
my.elf:     file format elf32-littleriscv


Disassembly of section .text:

00001000 <rvtest_entry_point>:
    1000:	feedc0b7          	lui	ra,0xfeedc
    1004:	ead08093          	addi	ra,ra,-339 # feedbead <_end+0xfeed6ea9>
    1008:	ff76e137          	lui	sp,0xff76e
    100c:	f5610113          	addi	sp,sp,-170 # ff76df56 <_end+0xff768f52>
    1010:	7fbb71b7          	lui	gp,0x7fbb7
    1014:	fab18193          	addi	gp,gp,-85 # 7fbb6fab <_end+0x7fbb1fa7>
    1018:	bfddb237          	lui	tp,0xbfddb
    101c:	7d520213          	addi	tp,tp,2005 # bfddb7d5 <_end+0xbfdd67d1>
    1020:	00000297          	auipc	t0,0x0
    1024:	0d828293          	addi	t0,t0,216 # 10f8 <rvtest_code_begin>
    1028:	00003317          	auipc	t1,0x3
    102c:	fd830313          	addi	t1,t1,-40 # 4000 <rvtest_data_begin>
    1030:	b7fbb3b7          	lui	t2,0xb7fbb
    1034:	6fa38393          	addi	t2,t2,1786 # b7fbb6fa <_end+0xb7fb66f6>
    1038:	5bfde437          	lui	s0,0x5bfde
    103c:	b7d40413          	addi	s0,s0,-1155 # 5bfddb7d <_end+0x5bfd8b79>
    1040:	adfef4b7          	lui	s1,0xadfef
    1044:	dbe48493          	addi	s1,s1,-578 # adfeedbe <_end+0xadfe9dba>
    1048:	56ff7537          	lui	a0,0x56ff7
    104c:	6df50513          	addi	a0,a0,1759 # 56ff76df <_end+0x56ff26db>
    1050:	ab7fc5b7          	lui	a1,0xab7fc
    1054:	b6f58593          	addi	a1,a1,-1169 # ab7fbb6f <_end+0xab7f6b6b>
    1058:	d5bfe637          	lui	a2,0xd5bfe
    105c:	db760613          	addi	a2,a2,-585 # d5bfddb7 <_end+0xd5bf8db3>
    1060:	eadff6b7          	lui	a3,0xeadff
    1064:	edb68693          	addi	a3,a3,-293 # eadfeedb <_end+0xeadf9ed7>
    1068:	f56ff737          	lui	a4,0xf56ff
    106c:	76d70713          	addi	a4,a4,1901 # f56ff76d <_end+0xf56fa769>
    1070:	fab807b7          	lui	a5,0xfab80
    1074:	bb678793          	addi	a5,a5,-1098 # fab7fbb6 <_end+0xfab7abb2>
    1078:	7d5c0837          	lui	a6,0x7d5c0
    107c:	ddb80813          	addi	a6,a6,-549 # 7d5bfddb <_end+0x7d5badd7>
    1080:	beae08b7          	lui	a7,0xbeae0
    1084:	eed88893          	addi	a7,a7,-275 # beadfeed <_end+0xbeadaee9>
    1088:	df570937          	lui	s2,0xdf570
    108c:	f7690913          	addi	s2,s2,-138 # df56ff76 <_end+0xdf56af72>
    1090:	6fab89b7          	lui	s3,0x6fab8
    1094:	fbb98993          	addi	s3,s3,-69 # 6fab7fbb <_end+0x6fab2fb7>
    1098:	b7d5ca37          	lui	s4,0xb7d5c
    109c:	fdda0a13          	addi	s4,s4,-35 # b7d5bfdd <_end+0xb7d56fd9>
    10a0:	dbeaeab7          	lui	s5,0xdbeae
    10a4:	feea8a93          	addi	s5,s5,-18 # dbeadfee <_end+0xdbea8fea>
    10a8:	6df57b37          	lui	s6,0x6df57
    10ac:	ff7b0b13          	addi	s6,s6,-9 # 6df56ff7 <_end+0x6df51ff3>
    10b0:	b6fabbb7          	lui	s7,0xb6fab
    10b4:	7fbb8b93          	addi	s7,s7,2043 # b6fab7fb <_end+0xb6fa67f7>
    10b8:	db7d6c37          	lui	s8,0xdb7d6
    10bc:	bfdc0c13          	addi	s8,s8,-1027 # db7d5bfd <_end+0xdb7d0bf9>
    10c0:	edbebcb7          	lui	s9,0xedbeb
    10c4:	dfec8c93          	addi	s9,s9,-514 # edbeadfe <_end+0xedbe5dfa>
    10c8:	76df5d37          	lui	s10,0x76df5
    10cc:	6ffd0d13          	addi	s10,s10,1791 # 76df56ff <_end+0x76df06fb>
    10d0:	bb6fbdb7          	lui	s11,0xbb6fb
    10d4:	b7fd8d93          	addi	s11,s11,-1153 # bb6fab7f <_end+0xbb6f5b7b>
    10d8:	ddb7de37          	lui	t3,0xddb7d
    10dc:	5bfe0e13          	addi	t3,t3,1471 # ddb7d5bf <_end+0xddb785bb>
    10e0:	eedbfeb7          	lui	t4,0xeedbf
    10e4:	adfe8e93          	addi	t4,t4,-1313 # eedbeadf <_end+0xeedb9adb>
    10e8:	f76dff37          	lui	t5,0xf76df
    10ec:	56ff0f13          	addi	t5,t5,1391 # f76df56f <_end+0xf76da56b>
    10f0:	fbb70fb7          	lui	t6,0xfbb70
    10f4:	ab7f8f93          	addi	t6,t6,-1353 # fbb6fab7 <_end+0xfbb6aab3>

000010f8 <rvtest_code_begin>:
    10f8:	00003117          	auipc	sp,0x3
    10fc:	f1810113          	addi	sp,sp,-232 # 4010 <begin_signature>

00001100 <inst_0>:
    1100:	33333c37          	lui	s8,0x33333
    1104:	334c0c13          	addi	s8,s8,820 # 33333334 <_end+0x3332e330>
    1108:	800c4513          	xori	a0,s8,-2048
    110c:	00a12023          	sw	a0,0(sp)

00001110 <inst_1>:
    1110:	00400913          	li	s2,4
    1114:	00094913          	xori	s2,s2,0
    1118:	01212223          	sw	s2,4(sp)

0000111c <inst_2>:
    111c:	ffc00793          	li	a5,-4
    1120:	7ff7cc13          	xori	s8,a5,2047
    1124:	01812423          	sw	s8,8(sp)

00001128 <inst_3>:
    1128:	00200593          	li	a1,2
    112c:	0015ca13          	xori	s4,a1,1
    1130:	01412623          	sw	s4,12(sp)

00001134 <inst_4>:
    1134:	800003b7          	lui	t2,0x80000
    1138:	5543ca93          	xori	s5,t2,1364
    113c:	01512823          	sw	s5,16(sp)

00001140 <inst_5>:
    1140:	00000893          	li	a7,0
    1144:	bff8cd93          	xori	s11,a7,-1025
    1148:	01b12a23          	sw	s11,20(sp)

0000114c <inst_6>:
    114c:	80000b37          	lui	s6,0x80000
    1150:	fffb0b13          	addi	s6,s6,-1 # 7fffffff <_end+0x7fffaffb>
    1154:	ff6b4093          	xori	ra,s6,-10
    1158:	00112c23          	sw	ra,24(sp)

0000115c <inst_7>:
    115c:	00100a13          	li	s4,1
    1160:	004a4b13          	xori	s6,s4,4
    1164:	01612e23          	sw	s6,28(sp)

00001168 <inst_8>:
    1168:	dff00993          	li	s3,-513
    116c:	dff9cf93          	xori	t6,s3,-513
    1170:	03f12023          	sw	t6,32(sp)

00001174 <inst_9>:
    1174:	fdf00493          	li	s1,-33
    1178:	0024c293          	xori	t0,s1,2
    117c:	02512223          	sw	t0,36(sp)

00001180 <inst_10>:
    1180:	80000e37          	lui	t3,0x80000
    1184:	008e4e93          	xori	t4,t3,8
    1188:	03d12423          	sw	t4,40(sp)

0000118c <inst_11>:
    118c:	c0000f37          	lui	t5,0xc0000
    1190:	ffff0f13          	addi	t5,t5,-1 # bfffffff <_end+0xbfffaffb>
    1194:	010f4213          	xori	tp,t5,16
    1198:	02412623          	sw	tp,44(sp)

0000119c <inst_12>:
    119c:	80000db7          	lui	s11,0x80000
    11a0:	fffd8d93          	addi	s11,s11,-1 # 7fffffff <_end+0x7fffaffb>
    11a4:	020dc413          	xori	s0,s11,32
    11a8:	02812823          	sw	s0,48(sp)

000011ac <inst_13>:
    11ac:	666661b7          	lui	gp,0x66666
    11b0:	66618193          	addi	gp,gp,1638 # 66666666 <_end+0x66661662>
    11b4:	0401cc93          	xori	s9,gp,64
    11b8:	03912a23          	sw	s9,52(sp)

000011bc <inst_14>:
    11bc:	fff80fb7          	lui	t6,0xfff80
    11c0:	ffff8f93          	addi	t6,t6,-1 # fff7ffff <_end+0xfff7affb>
    11c4:	080fc893          	xori	a7,t6,128
    11c8:	03112c23          	sw	a7,56(sp)

000011cc <inst_15>:
    11cc:	ffff5eb7          	lui	t4,0xffff5
    11d0:	afce8e93          	addi	t4,t4,-1284 # ffff4afc <_end+0xfffefaf8>
    11d4:	100ec813          	xori	a6,t4,256
    11d8:	03012e23          	sw	a6,60(sp)

000011dc <inst_16>:
    11dc:	00000213          	li	tp,0
    11e0:	20024313          	xori	t1,tp,512
    11e4:	04612023          	sw	t1,64(sp)

000011e8 <inst_17>:
    11e8:	fff00737          	lui	a4,0xfff00
    11ec:	fff70713          	addi	a4,a4,-1 # ffefffff <_end+0xffefaffb>
    11f0:	40074193          	xori	gp,a4,1024
    11f4:	04312223          	sw	gp,68(sp)

000011f8 <inst_18>:
    11f8:	ff900613          	li	a2,-7
    11fc:	ffe64793          	xori	a5,a2,-2
    1200:	04f12423          	sw	a5,72(sp)

00001204 <inst_19>:
    1204:	00500a93          	li	s5,5
    1208:	ffdac493          	xori	s1,s5,-3
    120c:	04912623          	sw	s1,76(sp)

00001210 <inst_20>:
    1210:	ffff5537          	lui	a0,0xffff5
    1214:	afc50513          	addi	a0,a0,-1284 # ffff4afc <_end+0xfffefaf8>
    1218:	ffb54993          	xori	s3,a0,-5
    121c:	05312823          	sw	s3,80(sp)

00001220 <inst_21>:
    1220:	00100813          	li	a6,1
    1224:	ff784d13          	xori	s10,a6,-9
    1228:	05a12a23          	sw	s10,84(sp)
    122c:	00003197          	auipc	gp,0x3
    1230:	e3c18193          	addi	gp,gp,-452 # 4068 <signature_x3_0>

00001234 <inst_22>:
    1234:	66666d37          	lui	s10,0x66666
    1238:	667d0d13          	addi	s10,s10,1639 # 66666667 <_end+0x66661663>
    123c:	fefd4f13          	xori	t5,s10,-17
    1240:	01e1a023          	sw	t5,0(gp)

00001244 <inst_23>:
    1244:	fbf00093          	li	ra,-65
    1248:	fdf0cb93          	xori	s7,ra,-33
    124c:	0171a223          	sw	s7,4(gp)

00001250 <inst_24>:
    1250:	fff00313          	li	t1,-1
    1254:	fbf34013          	xori	zero,t1,-65
    1258:	0001a423          	sw	zero,8(gp)

0000125c <inst_25>:
    125c:	55555137          	lui	sp,0x55555
    1260:	55510113          	addi	sp,sp,1365 # 55555555 <_end+0x55550551>
    1264:	f7f14393          	xori	t2,sp,-129
    1268:	0071a623          	sw	t2,12(gp)

0000126c <inst_26>:
    126c:	00000013          	nop
    1270:	eff04713          	xori	a4,zero,-257
    1274:	00e1a823          	sw	a4,16(gp)

00001278 <inst_27>:
    1278:	40000437          	lui	s0,0x40000
    127c:	fff40413          	addi	s0,s0,-1 # 3fffffff <_end+0x3fffaffb>
    1280:	55544693          	xori	a3,s0,1365
    1284:	00d1aa23          	sw	a3,20(gp)

00001288 <inst_28>:
    1288:	ff900c93          	li	s9,-7
    128c:	aaacc613          	xori	a2,s9,-1366
    1290:	00c1ac23          	sw	a2,24(gp)

00001294 <inst_29>:
    1294:	00800693          	li	a3,8
    1298:	0006c593          	xori	a1,a3,0
    129c:	00b1ae23          	sw	a1,28(gp)

000012a0 <inst_30>:
    12a0:	01000b93          	li	s7,16
    12a4:	001bc113          	xori	sp,s7,1
    12a8:	0221a023          	sw	sp,32(gp)

000012ac <inst_31>:
    12ac:	02000293          	li	t0,32
    12b0:	5552ce13          	xori	t3,t0,1365
    12b4:	03c1a223          	sw	t3,36(gp)

000012b8 <inst_32>:
    12b8:	04000513          	li	a0,64
    12bc:	10054593          	xori	a1,a0,256
    12c0:	02b1a423          	sw	a1,40(gp)

000012c4 <inst_33>:
    12c4:	08000513          	li	a0,128
    12c8:	00554593          	xori	a1,a0,5
    12cc:	02b1a623          	sw	a1,44(gp)

000012d0 <inst_34>:
    12d0:	10000513          	li	a0,256
    12d4:	fbf54593          	xori	a1,a0,-65
    12d8:	02b1a823          	sw	a1,48(gp)

000012dc <inst_35>:
    12dc:	20000513          	li	a0,512
    12e0:	00254593          	xori	a1,a0,2
    12e4:	02b1aa23          	sw	a1,52(gp)

000012e8 <inst_36>:
    12e8:	40000513          	li	a0,1024
    12ec:	aab54593          	xori	a1,a0,-1365
    12f0:	02b1ac23          	sw	a1,56(gp)

000012f4 <inst_37>:
    12f4:	00001537          	lui	a0,0x1
    12f8:	80050513          	addi	a0,a0,-2048 # 800 <offset+0x780>
    12fc:	00454593          	xori	a1,a0,4
    1300:	02b1ae23          	sw	a1,60(gp)

00001304 <inst_38>:
    1304:	00001537          	lui	a0,0x1
    1308:	00854593          	xori	a1,a0,8
    130c:	04b1a023          	sw	a1,64(gp)

00001310 <inst_39>:
    1310:	00002537          	lui	a0,0x2
    1314:	55454593          	xori	a1,a0,1364
    1318:	04b1a223          	sw	a1,68(gp)

0000131c <inst_40>:
    131c:	00004537          	lui	a0,0x4
    1320:	00454593          	xori	a1,a0,4
    1324:	04b1a423          	sw	a1,72(gp)

00001328 <inst_41>:
    1328:	00008537          	lui	a0,0x8
    132c:	7ff54593          	xori	a1,a0,2047
    1330:	04b1a623          	sw	a1,76(gp)

00001334 <inst_42>:
    1334:	00010537          	lui	a0,0x10
    1338:	04054593          	xori	a1,a0,64
    133c:	04b1a823          	sw	a1,80(gp)

00001340 <inst_43>:
    1340:	00020537          	lui	a0,0x20
    1344:	02c54593          	xori	a1,a0,44
    1348:	04b1aa23          	sw	a1,84(gp)

0000134c <inst_44>:
    134c:	00040537          	lui	a0,0x40
    1350:	aaa54593          	xori	a1,a0,-1366
    1354:	04b1ac23          	sw	a1,88(gp)

00001358 <inst_45>:
    1358:	00080537          	lui	a0,0x80
    135c:	33354593          	xori	a1,a0,819
    1360:	04b1ae23          	sw	a1,92(gp)

00001364 <inst_46>:
    1364:	00100537          	lui	a0,0x100
    1368:	ffa54593          	xori	a1,a0,-6
    136c:	06b1a023          	sw	a1,96(gp)

00001370 <inst_47>:
    1370:	00200537          	lui	a0,0x200
    1374:	ffd54593          	xori	a1,a0,-3
    1378:	06b1a223          	sw	a1,100(gp)

0000137c <inst_48>:
    137c:	00400537          	lui	a0,0x400
    1380:	55554593          	xori	a1,a0,1365
    1384:	06b1a423          	sw	a1,104(gp)

00001388 <inst_49>:
    1388:	00800537          	lui	a0,0x800
    138c:	ff754593          	xori	a1,a0,-9
    1390:	06b1a623          	sw	a1,108(gp)

00001394 <inst_50>:
    1394:	01000537          	lui	a0,0x1000
    1398:	00554593          	xori	a1,a0,5
    139c:	06b1a823          	sw	a1,112(gp)

000013a0 <inst_51>:
    13a0:	02000537          	lui	a0,0x2000
    13a4:	dff54593          	xori	a1,a0,-513
    13a8:	06b1aa23          	sw	a1,116(gp)

000013ac <inst_52>:
    13ac:	04000537          	lui	a0,0x4000
    13b0:	00054593          	xori	a1,a0,0
    13b4:	06b1ac23          	sw	a1,120(gp)

000013b8 <inst_53>:
    13b8:	08000537          	lui	a0,0x8000
    13bc:	33454593          	xori	a1,a0,820
    13c0:	06b1ae23          	sw	a1,124(gp)

000013c4 <inst_54>:
    13c4:	10000537          	lui	a0,0x10000
    13c8:	fbf54593          	xori	a1,a0,-65
    13cc:	08b1a023          	sw	a1,128(gp)

000013d0 <inst_55>:
    13d0:	20000537          	lui	a0,0x20000
    13d4:	55554593          	xori	a1,a0,1365
    13d8:	08b1a223          	sw	a1,132(gp)

000013dc <inst_56>:
    13dc:	40000537          	lui	a0,0x40000
    13e0:	aaa54593          	xori	a1,a0,-1366
    13e4:	08b1a423          	sw	a1,136(gp)

000013e8 <inst_57>:
    13e8:	ffe00513          	li	a0,-2
    13ec:	00454593          	xori	a1,a0,4
    13f0:	08b1a623          	sw	a1,140(gp)

000013f4 <inst_58>:
    13f4:	ffd00513          	li	a0,-3
    13f8:	ffd54593          	xori	a1,a0,-3
    13fc:	08b1a823          	sw	a1,144(gp)

00001400 <inst_59>:
    1400:	ffb00513          	li	a0,-5
    1404:	c0054593          	xori	a1,a0,-1024
    1408:	08b1aa23          	sw	a1,148(gp)

0000140c <inst_60>:
    140c:	ff700513          	li	a0,-9
    1410:	aab54593          	xori	a1,a0,-1365
    1414:	08b1ac23          	sw	a1,152(gp)

00001418 <inst_61>:
    1418:	fef00513          	li	a0,-17
    141c:	08054593          	xori	a1,a0,128
    1420:	08b1ae23          	sw	a1,156(gp)

00001424 <inst_62>:
    1424:	f7f00513          	li	a0,-129
    1428:	66654593          	xori	a1,a0,1638
    142c:	0ab1a023          	sw	a1,160(gp)

00001430 <inst_63>:
    1430:	eff00513          	li	a0,-257
    1434:	00654593          	xori	a1,a0,6
    1438:	0ab1a223          	sw	a1,164(gp)

0000143c <inst_64>:
    143c:	bff00513          	li	a0,-1025
    1440:	00654593          	xori	a1,a0,6
    1444:	0ab1a423          	sw	a1,168(gp)

00001448 <inst_65>:
    1448:	fffff537          	lui	a0,0xfffff
    144c:	7ff50513          	addi	a0,a0,2047 # fffff7ff <_end+0xffffa7fb>
    1450:	00254593          	xori	a1,a0,2
    1454:	0ab1a623          	sw	a1,172(gp)

00001458 <inst_66>:
    1458:	fffff537          	lui	a0,0xfffff
    145c:	fff50513          	addi	a0,a0,-1 # ffffefff <_end+0xffff9ffb>
    1460:	00054593          	xori	a1,a0,0
    1464:	0ab1a823          	sw	a1,176(gp)

00001468 <inst_67>:
    1468:	ffffe537          	lui	a0,0xffffe
    146c:	fff50513          	addi	a0,a0,-1 # ffffdfff <_end+0xffff8ffb>
    1470:	7ff54593          	xori	a1,a0,2047
    1474:	0ab1aa23          	sw	a1,180(gp)

00001478 <inst_68>:
    1478:	ffffc537          	lui	a0,0xffffc
    147c:	fff50513          	addi	a0,a0,-1 # ffffbfff <_end+0xffff6ffb>
    1480:	fd454593          	xori	a1,a0,-44
    1484:	0ab1ac23          	sw	a1,184(gp)

00001488 <inst_69>:
    1488:	ffff8537          	lui	a0,0xffff8
    148c:	fff50513          	addi	a0,a0,-1 # ffff7fff <_end+0xffff2ffb>
    1490:	66554593          	xori	a1,a0,1637
    1494:	0ab1ae23          	sw	a1,188(gp)

00001498 <inst_70>:
    1498:	ffff0537          	lui	a0,0xffff0
    149c:	fff50513          	addi	a0,a0,-1 # fffeffff <_end+0xfffeaffb>
    14a0:	33254593          	xori	a1,a0,818
    14a4:	0cb1a023          	sw	a1,192(gp)

000014a8 <inst_71>:
    14a8:	fffe0537          	lui	a0,0xfffe0
    14ac:	fff50513          	addi	a0,a0,-1 # fffdffff <_end+0xfffdaffb>
    14b0:	eff54593          	xori	a1,a0,-257
    14b4:	0cb1a223          	sw	a1,196(gp)

000014b8 <inst_72>:
    14b8:	fffc0537          	lui	a0,0xfffc0
    14bc:	fff50513          	addi	a0,a0,-1 # fffbffff <_end+0xfffbaffb>
    14c0:	80054593          	xori	a1,a0,-2048
    14c4:	0cb1a423          	sw	a1,200(gp)

000014c8 <inst_73>:
    14c8:	ffe00537          	lui	a0,0xffe00
    14cc:	fff50513          	addi	a0,a0,-1 # ffdfffff <_end+0xffdfaffb>
    14d0:	00054593          	xori	a1,a0,0
    14d4:	0cb1a623          	sw	a1,204(gp)

000014d8 <inst_74>:
    14d8:	ffc00537          	lui	a0,0xffc00
    14dc:	fff50513          	addi	a0,a0,-1 # ffbfffff <_end+0xffbfaffb>
    14e0:	66554593          	xori	a1,a0,1637
    14e4:	0cb1a823          	sw	a1,208(gp)

000014e8 <inst_75>:
    14e8:	ff800537          	lui	a0,0xff800
    14ec:	fff50513          	addi	a0,a0,-1 # ff7fffff <_end+0xff7faffb>
    14f0:	66754593          	xori	a1,a0,1639
    14f4:	0cb1aa23          	sw	a1,212(gp)

000014f8 <inst_76>:
    14f8:	ff000537          	lui	a0,0xff000
    14fc:	fff50513          	addi	a0,a0,-1 # feffffff <_end+0xfeffaffb>
    1500:	aaa54593          	xori	a1,a0,-1366
    1504:	0cb1ac23          	sw	a1,216(gp)

00001508 <inst_77>:
    1508:	fe000537          	lui	a0,0xfe000
    150c:	fff50513          	addi	a0,a0,-1 # fdffffff <_end+0xfdffaffb>
    1510:	ff854593          	xori	a1,a0,-8
    1514:	0cb1ae23          	sw	a1,220(gp)

00001518 <inst_78>:
    1518:	fc000537          	lui	a0,0xfc000
    151c:	fff50513          	addi	a0,a0,-1 # fbffffff <_end+0xfbffaffb>
    1520:	ffe54593          	xori	a1,a0,-2
    1524:	0eb1a023          	sw	a1,224(gp)

00001528 <inst_79>:
    1528:	f8000537          	lui	a0,0xf8000
    152c:	fff50513          	addi	a0,a0,-1 # f7ffffff <_end+0xf7ffaffb>
    1530:	c0054593          	xori	a1,a0,-1024
    1534:	0eb1a223          	sw	a1,228(gp)

00001538 <inst_80>:
    1538:	f0000537          	lui	a0,0xf0000
    153c:	fff50513          	addi	a0,a0,-1 # efffffff <_end+0xefffaffb>
    1540:	fd454593          	xori	a1,a0,-44
    1544:	0eb1a423          	sw	a1,232(gp)

00001548 <inst_81>:
    1548:	e0000537          	lui	a0,0xe0000
    154c:	fff50513          	addi	a0,a0,-1 # dfffffff <_end+0xdfffaffb>
    1550:	eff54593          	xori	a1,a0,-257
    1554:	0eb1a623          	sw	a1,236(gp)

00001558 <inst_82>:
    1558:	aaaab537          	lui	a0,0xaaaab
    155c:	aaa50513          	addi	a0,a0,-1366 # aaaaaaaa <_end+0xaaaa5aa6>
    1560:	20054593          	xori	a1,a0,512
    1564:	0eb1a823          	sw	a1,240(gp)

00001568 <inst_83>:
    1568:	00300513          	li	a0,3
    156c:	00354593          	xori	a1,a0,3
    1570:	0eb1aa23          	sw	a1,244(gp)

00001574 <inst_84>:
    1574:	00300513          	li	a0,3
    1578:	55554593          	xori	a1,a0,1365
    157c:	0eb1ac23          	sw	a1,248(gp)

00001580 <inst_85>:
    1580:	00300513          	li	a0,3
    1584:	aaa54593          	xori	a1,a0,-1366
    1588:	0eb1ae23          	sw	a1,252(gp)

0000158c <inst_86>:
    158c:	00300513          	li	a0,3
    1590:	00554593          	xori	a1,a0,5
    1594:	10b1a023          	sw	a1,256(gp)

00001598 <inst_87>:
    1598:	00300513          	li	a0,3
    159c:	33354593          	xori	a1,a0,819
    15a0:	10b1a223          	sw	a1,260(gp)

000015a4 <inst_88>:
    15a4:	00300513          	li	a0,3
    15a8:	66654593          	xori	a1,a0,1638
    15ac:	10b1a423          	sw	a1,264(gp)

000015b0 <inst_89>:
    15b0:	00300513          	li	a0,3
    15b4:	fd354593          	xori	a1,a0,-45
    15b8:	10b1a623          	sw	a1,268(gp)

000015bc <inst_90>:
    15bc:	00300513          	li	a0,3
    15c0:	02d54593          	xori	a1,a0,45
    15c4:	10b1a823          	sw	a1,272(gp)

000015c8 <inst_91>:
    15c8:	00300513          	li	a0,3
    15cc:	00254593          	xori	a1,a0,2
    15d0:	10b1aa23          	sw	a1,276(gp)

000015d4 <inst_92>:
    15d4:	00300513          	li	a0,3
    15d8:	55454593          	xori	a1,a0,1364
    15dc:	10b1ac23          	sw	a1,280(gp)

000015e0 <inst_93>:
    15e0:	00300513          	li	a0,3
    15e4:	00054593          	xori	a1,a0,0
    15e8:	10b1ae23          	sw	a1,284(gp)

000015ec <inst_94>:
    15ec:	00300513          	li	a0,3
    15f0:	00454593          	xori	a1,a0,4
    15f4:	12b1a023          	sw	a1,288(gp)

000015f8 <inst_95>:
    15f8:	00300513          	li	a0,3
    15fc:	33254593          	xori	a1,a0,818
    1600:	12b1a223          	sw	a1,292(gp)

00001604 <inst_96>:
    1604:	00300513          	li	a0,3
    1608:	66554593          	xori	a1,a0,1637
    160c:	12b1a423          	sw	a1,296(gp)

00001610 <inst_97>:
    1610:	00300513          	li	a0,3
    1614:	02c54593          	xori	a1,a0,44
    1618:	12b1a623          	sw	a1,300(gp)

0000161c <inst_98>:
    161c:	00300513          	li	a0,3
    1620:	55654593          	xori	a1,a0,1366
    1624:	12b1a823          	sw	a1,304(gp)

00001628 <inst_99>:
    1628:	00300513          	li	a0,3
    162c:	aab54593          	xori	a1,a0,-1365
    1630:	12b1aa23          	sw	a1,308(gp)

00001634 <inst_100>:
    1634:	00300513          	li	a0,3
    1638:	00654593          	xori	a1,a0,6
    163c:	12b1ac23          	sw	a1,312(gp)

00001640 <inst_101>:
    1640:	00300513          	li	a0,3
    1644:	33454593          	xori	a1,a0,820
    1648:	12b1ae23          	sw	a1,316(gp)

0000164c <inst_102>:
    164c:	00300513          	li	a0,3
    1650:	66754593          	xori	a1,a0,1639
    1654:	14b1a023          	sw	a1,320(gp)

00001658 <inst_103>:
    1658:	00300513          	li	a0,3
    165c:	fd454593          	xori	a1,a0,-44
    1660:	14b1a223          	sw	a1,324(gp)

00001664 <inst_104>:
    1664:	00300513          	li	a0,3
    1668:	02e54593          	xori	a1,a0,46
    166c:	14b1a423          	sw	a1,328(gp)

00001670 <inst_105>:
    1670:	55555537          	lui	a0,0x55555
    1674:	55550513          	addi	a0,a0,1365 # 55555555 <_end+0x55550551>
    1678:	00354593          	xori	a1,a0,3
    167c:	14b1a623          	sw	a1,332(gp)

00001680 <inst_106>:
    1680:	55555537          	lui	a0,0x55555
    1684:	55550513          	addi	a0,a0,1365 # 55555555 <_end+0x55550551>
    1688:	55554593          	xori	a1,a0,1365
    168c:	14b1a823          	sw	a1,336(gp)

00001690 <inst_107>:
    1690:	55555537          	lui	a0,0x55555
    1694:	55550513          	addi	a0,a0,1365 # 55555555 <_end+0x55550551>
    1698:	aaa54593          	xori	a1,a0,-1366
    169c:	14b1aa23          	sw	a1,340(gp)

000016a0 <inst_108>:
    16a0:	55555537          	lui	a0,0x55555
    16a4:	55550513          	addi	a0,a0,1365 # 55555555 <_end+0x55550551>
    16a8:	00554593          	xori	a1,a0,5
    16ac:	14b1ac23          	sw	a1,344(gp)

000016b0 <inst_109>:
    16b0:	55555537          	lui	a0,0x55555
    16b4:	55550513          	addi	a0,a0,1365 # 55555555 <_end+0x55550551>
    16b8:	33354593          	xori	a1,a0,819
    16bc:	14b1ae23          	sw	a1,348(gp)

000016c0 <inst_110>:
    16c0:	55555537          	lui	a0,0x55555
    16c4:	55550513          	addi	a0,a0,1365 # 55555555 <_end+0x55550551>
    16c8:	66654593          	xori	a1,a0,1638
    16cc:	16b1a023          	sw	a1,352(gp)

000016d0 <inst_111>:
    16d0:	55555537          	lui	a0,0x55555
    16d4:	55550513          	addi	a0,a0,1365 # 55555555 <_end+0x55550551>
    16d8:	fd354593          	xori	a1,a0,-45
    16dc:	16b1a223          	sw	a1,356(gp)

000016e0 <inst_112>:
    16e0:	55555537          	lui	a0,0x55555
    16e4:	55550513          	addi	a0,a0,1365 # 55555555 <_end+0x55550551>
    16e8:	02d54593          	xori	a1,a0,45
    16ec:	16b1a423          	sw	a1,360(gp)

000016f0 <inst_113>:
    16f0:	55555537          	lui	a0,0x55555
    16f4:	55550513          	addi	a0,a0,1365 # 55555555 <_end+0x55550551>
    16f8:	00254593          	xori	a1,a0,2
    16fc:	16b1a623          	sw	a1,364(gp)

00001700 <inst_114>:
    1700:	55555537          	lui	a0,0x55555
    1704:	55550513          	addi	a0,a0,1365 # 55555555 <_end+0x55550551>
    1708:	55454593          	xori	a1,a0,1364
    170c:	16b1a823          	sw	a1,368(gp)

00001710 <inst_115>:
    1710:	55555537          	lui	a0,0x55555
    1714:	55550513          	addi	a0,a0,1365 # 55555555 <_end+0x55550551>
    1718:	00054593          	xori	a1,a0,0
    171c:	16b1aa23          	sw	a1,372(gp)

00001720 <inst_116>:
    1720:	55555537          	lui	a0,0x55555
    1724:	55550513          	addi	a0,a0,1365 # 55555555 <_end+0x55550551>
    1728:	00454593          	xori	a1,a0,4
    172c:	16b1ac23          	sw	a1,376(gp)

00001730 <inst_117>:
    1730:	55555537          	lui	a0,0x55555
    1734:	55550513          	addi	a0,a0,1365 # 55555555 <_end+0x55550551>
    1738:	33254593          	xori	a1,a0,818
    173c:	16b1ae23          	sw	a1,380(gp)

00001740 <inst_118>:
    1740:	55555537          	lui	a0,0x55555
    1744:	55550513          	addi	a0,a0,1365 # 55555555 <_end+0x55550551>
    1748:	66554593          	xori	a1,a0,1637
    174c:	18b1a023          	sw	a1,384(gp)

00001750 <inst_119>:
    1750:	55555537          	lui	a0,0x55555
    1754:	55550513          	addi	a0,a0,1365 # 55555555 <_end+0x55550551>
    1758:	02c54593          	xori	a1,a0,44
    175c:	18b1a223          	sw	a1,388(gp)

00001760 <inst_120>:
    1760:	55555537          	lui	a0,0x55555
    1764:	55550513          	addi	a0,a0,1365 # 55555555 <_end+0x55550551>
    1768:	55654593          	xori	a1,a0,1366
    176c:	18b1a423          	sw	a1,392(gp)

00001770 <inst_121>:
    1770:	55555537          	lui	a0,0x55555
    1774:	55550513          	addi	a0,a0,1365 # 55555555 <_end+0x55550551>
    1778:	aab54593          	xori	a1,a0,-1365
    177c:	18b1a623          	sw	a1,396(gp)

00001780 <inst_122>:
    1780:	55555537          	lui	a0,0x55555
    1784:	55550513          	addi	a0,a0,1365 # 55555555 <_end+0x55550551>
    1788:	00654593          	xori	a1,a0,6
    178c:	18b1a823          	sw	a1,400(gp)

00001790 <inst_123>:
    1790:	55555537          	lui	a0,0x55555
    1794:	55550513          	addi	a0,a0,1365 # 55555555 <_end+0x55550551>
    1798:	33454593          	xori	a1,a0,820
    179c:	18b1aa23          	sw	a1,404(gp)

000017a0 <inst_124>:
    17a0:	55555537          	lui	a0,0x55555
    17a4:	55550513          	addi	a0,a0,1365 # 55555555 <_end+0x55550551>
    17a8:	66754593          	xori	a1,a0,1639
    17ac:	18b1ac23          	sw	a1,408(gp)

000017b0 <inst_125>:
    17b0:	55555537          	lui	a0,0x55555
    17b4:	55550513          	addi	a0,a0,1365 # 55555555 <_end+0x55550551>
    17b8:	fd454593          	xori	a1,a0,-44
    17bc:	18b1ae23          	sw	a1,412(gp)

000017c0 <inst_126>:
    17c0:	55555537          	lui	a0,0x55555
    17c4:	55550513          	addi	a0,a0,1365 # 55555555 <_end+0x55550551>
    17c8:	02e54593          	xori	a1,a0,46
    17cc:	1ab1a023          	sw	a1,416(gp)

000017d0 <inst_127>:
    17d0:	aaaab537          	lui	a0,0xaaaab
    17d4:	aaa50513          	addi	a0,a0,-1366 # aaaaaaaa <_end+0xaaaa5aa6>
    17d8:	00354593          	xori	a1,a0,3
    17dc:	1ab1a223          	sw	a1,420(gp)

000017e0 <inst_128>:
    17e0:	aaaab537          	lui	a0,0xaaaab
    17e4:	aaa50513          	addi	a0,a0,-1366 # aaaaaaaa <_end+0xaaaa5aa6>
    17e8:	55554593          	xori	a1,a0,1365
    17ec:	1ab1a423          	sw	a1,424(gp)

000017f0 <inst_129>:
    17f0:	aaaab537          	lui	a0,0xaaaab
    17f4:	aaa50513          	addi	a0,a0,-1366 # aaaaaaaa <_end+0xaaaa5aa6>
    17f8:	aaa54593          	xori	a1,a0,-1366
    17fc:	1ab1a623          	sw	a1,428(gp)

00001800 <inst_130>:
    1800:	aaaab537          	lui	a0,0xaaaab
    1804:	aaa50513          	addi	a0,a0,-1366 # aaaaaaaa <_end+0xaaaa5aa6>
    1808:	00554593          	xori	a1,a0,5
    180c:	1ab1a823          	sw	a1,432(gp)

00001810 <inst_131>:
    1810:	aaaab537          	lui	a0,0xaaaab
    1814:	aaa50513          	addi	a0,a0,-1366 # aaaaaaaa <_end+0xaaaa5aa6>
    1818:	33354593          	xori	a1,a0,819
    181c:	1ab1aa23          	sw	a1,436(gp)

00001820 <inst_132>:
    1820:	aaaab537          	lui	a0,0xaaaab
    1824:	aaa50513          	addi	a0,a0,-1366 # aaaaaaaa <_end+0xaaaa5aa6>
    1828:	66654593          	xori	a1,a0,1638
    182c:	1ab1ac23          	sw	a1,440(gp)

00001830 <inst_133>:
    1830:	aaaab537          	lui	a0,0xaaaab
    1834:	aaa50513          	addi	a0,a0,-1366 # aaaaaaaa <_end+0xaaaa5aa6>
    1838:	fd354593          	xori	a1,a0,-45
    183c:	1ab1ae23          	sw	a1,444(gp)

00001840 <inst_134>:
    1840:	aaaab537          	lui	a0,0xaaaab
    1844:	aaa50513          	addi	a0,a0,-1366 # aaaaaaaa <_end+0xaaaa5aa6>
    1848:	02d54593          	xori	a1,a0,45
    184c:	1cb1a023          	sw	a1,448(gp)

00001850 <inst_135>:
    1850:	aaaab537          	lui	a0,0xaaaab
    1854:	aaa50513          	addi	a0,a0,-1366 # aaaaaaaa <_end+0xaaaa5aa6>
    1858:	00254593          	xori	a1,a0,2
    185c:	1cb1a223          	sw	a1,452(gp)

00001860 <inst_136>:
    1860:	aaaab537          	lui	a0,0xaaaab
    1864:	aaa50513          	addi	a0,a0,-1366 # aaaaaaaa <_end+0xaaaa5aa6>
    1868:	55454593          	xori	a1,a0,1364
    186c:	1cb1a423          	sw	a1,456(gp)

00001870 <inst_137>:
    1870:	aaaab537          	lui	a0,0xaaaab
    1874:	aaa50513          	addi	a0,a0,-1366 # aaaaaaaa <_end+0xaaaa5aa6>
    1878:	00054593          	xori	a1,a0,0
    187c:	1cb1a623          	sw	a1,460(gp)

00001880 <inst_138>:
    1880:	aaaab537          	lui	a0,0xaaaab
    1884:	aaa50513          	addi	a0,a0,-1366 # aaaaaaaa <_end+0xaaaa5aa6>
    1888:	00454593          	xori	a1,a0,4
    188c:	1cb1a823          	sw	a1,464(gp)

00001890 <inst_139>:
    1890:	aaaab537          	lui	a0,0xaaaab
    1894:	aaa50513          	addi	a0,a0,-1366 # aaaaaaaa <_end+0xaaaa5aa6>
    1898:	33254593          	xori	a1,a0,818
    189c:	1cb1aa23          	sw	a1,468(gp)

000018a0 <inst_140>:
    18a0:	aaaab537          	lui	a0,0xaaaab
    18a4:	aaa50513          	addi	a0,a0,-1366 # aaaaaaaa <_end+0xaaaa5aa6>
    18a8:	66554593          	xori	a1,a0,1637
    18ac:	1cb1ac23          	sw	a1,472(gp)

000018b0 <inst_141>:
    18b0:	aaaab537          	lui	a0,0xaaaab
    18b4:	aaa50513          	addi	a0,a0,-1366 # aaaaaaaa <_end+0xaaaa5aa6>
    18b8:	02c54593          	xori	a1,a0,44
    18bc:	1cb1ae23          	sw	a1,476(gp)

000018c0 <inst_142>:
    18c0:	aaaab537          	lui	a0,0xaaaab
    18c4:	aaa50513          	addi	a0,a0,-1366 # aaaaaaaa <_end+0xaaaa5aa6>
    18c8:	55654593          	xori	a1,a0,1366
    18cc:	1eb1a023          	sw	a1,480(gp)

000018d0 <inst_143>:
    18d0:	aaaab537          	lui	a0,0xaaaab
    18d4:	aaa50513          	addi	a0,a0,-1366 # aaaaaaaa <_end+0xaaaa5aa6>
    18d8:	aab54593          	xori	a1,a0,-1365
    18dc:	1eb1a223          	sw	a1,484(gp)

000018e0 <inst_144>:
    18e0:	aaaab537          	lui	a0,0xaaaab
    18e4:	aaa50513          	addi	a0,a0,-1366 # aaaaaaaa <_end+0xaaaa5aa6>
    18e8:	00654593          	xori	a1,a0,6
    18ec:	1eb1a423          	sw	a1,488(gp)

000018f0 <inst_145>:
    18f0:	aaaab537          	lui	a0,0xaaaab
    18f4:	aaa50513          	addi	a0,a0,-1366 # aaaaaaaa <_end+0xaaaa5aa6>
    18f8:	33454593          	xori	a1,a0,820
    18fc:	1eb1a623          	sw	a1,492(gp)

00001900 <inst_146>:
    1900:	aaaab537          	lui	a0,0xaaaab
    1904:	aaa50513          	addi	a0,a0,-1366 # aaaaaaaa <_end+0xaaaa5aa6>
    1908:	66754593          	xori	a1,a0,1639
    190c:	1eb1a823          	sw	a1,496(gp)

00001910 <inst_147>:
    1910:	aaaab537          	lui	a0,0xaaaab
    1914:	aaa50513          	addi	a0,a0,-1366 # aaaaaaaa <_end+0xaaaa5aa6>
    1918:	fd454593          	xori	a1,a0,-44
    191c:	1eb1aa23          	sw	a1,500(gp)

00001920 <inst_148>:
    1920:	aaaab537          	lui	a0,0xaaaab
    1924:	aaa50513          	addi	a0,a0,-1366 # aaaaaaaa <_end+0xaaaa5aa6>
    1928:	02e54593          	xori	a1,a0,46
    192c:	1eb1ac23          	sw	a1,504(gp)

00001930 <inst_149>:
    1930:	00500513          	li	a0,5
    1934:	00354593          	xori	a1,a0,3
    1938:	1eb1ae23          	sw	a1,508(gp)

0000193c <inst_150>:
    193c:	00500513          	li	a0,5
    1940:	55554593          	xori	a1,a0,1365
    1944:	20b1a023          	sw	a1,512(gp)

00001948 <inst_151>:
    1948:	00500513          	li	a0,5
    194c:	aaa54593          	xori	a1,a0,-1366
    1950:	20b1a223          	sw	a1,516(gp)

00001954 <inst_152>:
    1954:	00500513          	li	a0,5
    1958:	00554593          	xori	a1,a0,5
    195c:	20b1a423          	sw	a1,520(gp)

00001960 <inst_153>:
    1960:	00500513          	li	a0,5
    1964:	33354593          	xori	a1,a0,819
    1968:	20b1a623          	sw	a1,524(gp)

0000196c <inst_154>:
    196c:	00500513          	li	a0,5
    1970:	66654593          	xori	a1,a0,1638
    1974:	20b1a823          	sw	a1,528(gp)

00001978 <inst_155>:
    1978:	00500513          	li	a0,5
    197c:	fd354593          	xori	a1,a0,-45
    1980:	20b1aa23          	sw	a1,532(gp)

00001984 <inst_156>:
    1984:	00500513          	li	a0,5
    1988:	02d54593          	xori	a1,a0,45
    198c:	20b1ac23          	sw	a1,536(gp)

00001990 <inst_157>:
    1990:	00500513          	li	a0,5
    1994:	00254593          	xori	a1,a0,2
    1998:	20b1ae23          	sw	a1,540(gp)

0000199c <inst_158>:
    199c:	00500513          	li	a0,5
    19a0:	55454593          	xori	a1,a0,1364
    19a4:	22b1a023          	sw	a1,544(gp)

000019a8 <inst_159>:
    19a8:	00500513          	li	a0,5
    19ac:	00054593          	xori	a1,a0,0
    19b0:	22b1a223          	sw	a1,548(gp)

000019b4 <inst_160>:
    19b4:	00500513          	li	a0,5
    19b8:	00454593          	xori	a1,a0,4
    19bc:	22b1a423          	sw	a1,552(gp)

000019c0 <inst_161>:
    19c0:	00500513          	li	a0,5
    19c4:	33254593          	xori	a1,a0,818
    19c8:	22b1a623          	sw	a1,556(gp)

000019cc <inst_162>:
    19cc:	00500513          	li	a0,5
    19d0:	66554593          	xori	a1,a0,1637
    19d4:	22b1a823          	sw	a1,560(gp)

000019d8 <inst_163>:
    19d8:	00500513          	li	a0,5
    19dc:	02c54593          	xori	a1,a0,44
    19e0:	22b1aa23          	sw	a1,564(gp)

000019e4 <inst_164>:
    19e4:	00500513          	li	a0,5
    19e8:	55654593          	xori	a1,a0,1366
    19ec:	22b1ac23          	sw	a1,568(gp)

000019f0 <inst_165>:
    19f0:	00500513          	li	a0,5
    19f4:	aab54593          	xori	a1,a0,-1365
    19f8:	22b1ae23          	sw	a1,572(gp)

000019fc <inst_166>:
    19fc:	00500513          	li	a0,5
    1a00:	00654593          	xori	a1,a0,6
    1a04:	24b1a023          	sw	a1,576(gp)

00001a08 <inst_167>:
    1a08:	00500513          	li	a0,5
    1a0c:	33454593          	xori	a1,a0,820
    1a10:	24b1a223          	sw	a1,580(gp)

00001a14 <inst_168>:
    1a14:	00500513          	li	a0,5
    1a18:	66754593          	xori	a1,a0,1639
    1a1c:	24b1a423          	sw	a1,584(gp)

00001a20 <inst_169>:
    1a20:	00500513          	li	a0,5
    1a24:	fd454593          	xori	a1,a0,-44
    1a28:	24b1a623          	sw	a1,588(gp)

00001a2c <inst_170>:
    1a2c:	00500513          	li	a0,5
    1a30:	02e54593          	xori	a1,a0,46
    1a34:	24b1a823          	sw	a1,592(gp)

00001a38 <inst_171>:
    1a38:	33333537          	lui	a0,0x33333
    1a3c:	33350513          	addi	a0,a0,819 # 33333333 <_end+0x3332e32f>
    1a40:	00354593          	xori	a1,a0,3
    1a44:	24b1aa23          	sw	a1,596(gp)

00001a48 <inst_172>:
    1a48:	33333537          	lui	a0,0x33333
    1a4c:	33350513          	addi	a0,a0,819 # 33333333 <_end+0x3332e32f>
    1a50:	55554593          	xori	a1,a0,1365
    1a54:	24b1ac23          	sw	a1,600(gp)

00001a58 <inst_173>:
    1a58:	33333537          	lui	a0,0x33333
    1a5c:	33350513          	addi	a0,a0,819 # 33333333 <_end+0x3332e32f>
    1a60:	aaa54593          	xori	a1,a0,-1366
    1a64:	24b1ae23          	sw	a1,604(gp)

00001a68 <inst_174>:
    1a68:	33333537          	lui	a0,0x33333
    1a6c:	33350513          	addi	a0,a0,819 # 33333333 <_end+0x3332e32f>
    1a70:	00554593          	xori	a1,a0,5
    1a74:	26b1a023          	sw	a1,608(gp)

00001a78 <inst_175>:
    1a78:	33333537          	lui	a0,0x33333
    1a7c:	33350513          	addi	a0,a0,819 # 33333333 <_end+0x3332e32f>
    1a80:	33354593          	xori	a1,a0,819
    1a84:	26b1a223          	sw	a1,612(gp)

00001a88 <inst_176>:
    1a88:	33333537          	lui	a0,0x33333
    1a8c:	33350513          	addi	a0,a0,819 # 33333333 <_end+0x3332e32f>
    1a90:	66654593          	xori	a1,a0,1638
    1a94:	26b1a423          	sw	a1,616(gp)

00001a98 <inst_177>:
    1a98:	33333537          	lui	a0,0x33333
    1a9c:	33350513          	addi	a0,a0,819 # 33333333 <_end+0x3332e32f>
    1aa0:	fd354593          	xori	a1,a0,-45
    1aa4:	26b1a623          	sw	a1,620(gp)

00001aa8 <inst_178>:
    1aa8:	33333537          	lui	a0,0x33333
    1aac:	33350513          	addi	a0,a0,819 # 33333333 <_end+0x3332e32f>
    1ab0:	02d54593          	xori	a1,a0,45
    1ab4:	26b1a823          	sw	a1,624(gp)

00001ab8 <inst_179>:
    1ab8:	33333537          	lui	a0,0x33333
    1abc:	33350513          	addi	a0,a0,819 # 33333333 <_end+0x3332e32f>
    1ac0:	00254593          	xori	a1,a0,2
    1ac4:	26b1aa23          	sw	a1,628(gp)

00001ac8 <inst_180>:
    1ac8:	33333537          	lui	a0,0x33333
    1acc:	33350513          	addi	a0,a0,819 # 33333333 <_end+0x3332e32f>
    1ad0:	55454593          	xori	a1,a0,1364
    1ad4:	26b1ac23          	sw	a1,632(gp)

00001ad8 <inst_181>:
    1ad8:	33333537          	lui	a0,0x33333
    1adc:	33350513          	addi	a0,a0,819 # 33333333 <_end+0x3332e32f>
    1ae0:	00054593          	xori	a1,a0,0
    1ae4:	26b1ae23          	sw	a1,636(gp)

00001ae8 <inst_182>:
    1ae8:	33333537          	lui	a0,0x33333
    1aec:	33350513          	addi	a0,a0,819 # 33333333 <_end+0x3332e32f>
    1af0:	00454593          	xori	a1,a0,4
    1af4:	28b1a023          	sw	a1,640(gp)

00001af8 <inst_183>:
    1af8:	33333537          	lui	a0,0x33333
    1afc:	33350513          	addi	a0,a0,819 # 33333333 <_end+0x3332e32f>
    1b00:	33254593          	xori	a1,a0,818
    1b04:	28b1a223          	sw	a1,644(gp)

00001b08 <inst_184>:
    1b08:	33333537          	lui	a0,0x33333
    1b0c:	33350513          	addi	a0,a0,819 # 33333333 <_end+0x3332e32f>
    1b10:	66554593          	xori	a1,a0,1637
    1b14:	28b1a423          	sw	a1,648(gp)

00001b18 <inst_185>:
    1b18:	33333537          	lui	a0,0x33333
    1b1c:	33350513          	addi	a0,a0,819 # 33333333 <_end+0x3332e32f>
    1b20:	02c54593          	xori	a1,a0,44
    1b24:	28b1a623          	sw	a1,652(gp)

00001b28 <inst_186>:
    1b28:	33333537          	lui	a0,0x33333
    1b2c:	33350513          	addi	a0,a0,819 # 33333333 <_end+0x3332e32f>
    1b30:	55654593          	xori	a1,a0,1366
    1b34:	28b1a823          	sw	a1,656(gp)

00001b38 <inst_187>:
    1b38:	33333537          	lui	a0,0x33333
    1b3c:	33350513          	addi	a0,a0,819 # 33333333 <_end+0x3332e32f>
    1b40:	aab54593          	xori	a1,a0,-1365
    1b44:	28b1aa23          	sw	a1,660(gp)

00001b48 <inst_188>:
    1b48:	33333537          	lui	a0,0x33333
    1b4c:	33350513          	addi	a0,a0,819 # 33333333 <_end+0x3332e32f>
    1b50:	00654593          	xori	a1,a0,6
    1b54:	28b1ac23          	sw	a1,664(gp)

00001b58 <inst_189>:
    1b58:	33333537          	lui	a0,0x33333
    1b5c:	33350513          	addi	a0,a0,819 # 33333333 <_end+0x3332e32f>
    1b60:	33454593          	xori	a1,a0,820
    1b64:	28b1ae23          	sw	a1,668(gp)

00001b68 <inst_190>:
    1b68:	33333537          	lui	a0,0x33333
    1b6c:	33350513          	addi	a0,a0,819 # 33333333 <_end+0x3332e32f>
    1b70:	66754593          	xori	a1,a0,1639
    1b74:	2ab1a023          	sw	a1,672(gp)

00001b78 <inst_191>:
    1b78:	33333537          	lui	a0,0x33333
    1b7c:	33350513          	addi	a0,a0,819 # 33333333 <_end+0x3332e32f>
    1b80:	fd454593          	xori	a1,a0,-44
    1b84:	2ab1a223          	sw	a1,676(gp)

00001b88 <inst_192>:
    1b88:	33333537          	lui	a0,0x33333
    1b8c:	33350513          	addi	a0,a0,819 # 33333333 <_end+0x3332e32f>
    1b90:	02e54593          	xori	a1,a0,46
    1b94:	2ab1a423          	sw	a1,680(gp)

00001b98 <inst_193>:
    1b98:	66666537          	lui	a0,0x66666
    1b9c:	66650513          	addi	a0,a0,1638 # 66666666 <_end+0x66661662>
    1ba0:	00354593          	xori	a1,a0,3
    1ba4:	2ab1a623          	sw	a1,684(gp)

00001ba8 <inst_194>:
    1ba8:	66666537          	lui	a0,0x66666
    1bac:	66650513          	addi	a0,a0,1638 # 66666666 <_end+0x66661662>
    1bb0:	55554593          	xori	a1,a0,1365
    1bb4:	2ab1a823          	sw	a1,688(gp)

00001bb8 <inst_195>:
    1bb8:	66666537          	lui	a0,0x66666
    1bbc:	66650513          	addi	a0,a0,1638 # 66666666 <_end+0x66661662>
    1bc0:	aaa54593          	xori	a1,a0,-1366
    1bc4:	2ab1aa23          	sw	a1,692(gp)

00001bc8 <inst_196>:
    1bc8:	66666537          	lui	a0,0x66666
    1bcc:	66650513          	addi	a0,a0,1638 # 66666666 <_end+0x66661662>
    1bd0:	00554593          	xori	a1,a0,5
    1bd4:	2ab1ac23          	sw	a1,696(gp)

00001bd8 <inst_197>:
    1bd8:	66666537          	lui	a0,0x66666
    1bdc:	66650513          	addi	a0,a0,1638 # 66666666 <_end+0x66661662>
    1be0:	33354593          	xori	a1,a0,819
    1be4:	2ab1ae23          	sw	a1,700(gp)

00001be8 <inst_198>:
    1be8:	66666537          	lui	a0,0x66666
    1bec:	66650513          	addi	a0,a0,1638 # 66666666 <_end+0x66661662>
    1bf0:	66654593          	xori	a1,a0,1638
    1bf4:	2cb1a023          	sw	a1,704(gp)

00001bf8 <inst_199>:
    1bf8:	66666537          	lui	a0,0x66666
    1bfc:	66650513          	addi	a0,a0,1638 # 66666666 <_end+0x66661662>
    1c00:	fd354593          	xori	a1,a0,-45
    1c04:	2cb1a223          	sw	a1,708(gp)

00001c08 <inst_200>:
    1c08:	66666537          	lui	a0,0x66666
    1c0c:	66650513          	addi	a0,a0,1638 # 66666666 <_end+0x66661662>
    1c10:	02d54593          	xori	a1,a0,45
    1c14:	2cb1a423          	sw	a1,712(gp)

00001c18 <inst_201>:
    1c18:	66666537          	lui	a0,0x66666
    1c1c:	66650513          	addi	a0,a0,1638 # 66666666 <_end+0x66661662>
    1c20:	00254593          	xori	a1,a0,2
    1c24:	2cb1a623          	sw	a1,716(gp)

00001c28 <inst_202>:
    1c28:	66666537          	lui	a0,0x66666
    1c2c:	66650513          	addi	a0,a0,1638 # 66666666 <_end+0x66661662>
    1c30:	55454593          	xori	a1,a0,1364
    1c34:	2cb1a823          	sw	a1,720(gp)

00001c38 <inst_203>:
    1c38:	66666537          	lui	a0,0x66666
    1c3c:	66650513          	addi	a0,a0,1638 # 66666666 <_end+0x66661662>
    1c40:	00054593          	xori	a1,a0,0
    1c44:	2cb1aa23          	sw	a1,724(gp)

00001c48 <inst_204>:
    1c48:	66666537          	lui	a0,0x66666
    1c4c:	66650513          	addi	a0,a0,1638 # 66666666 <_end+0x66661662>
    1c50:	00454593          	xori	a1,a0,4
    1c54:	2cb1ac23          	sw	a1,728(gp)

00001c58 <inst_205>:
    1c58:	66666537          	lui	a0,0x66666
    1c5c:	66650513          	addi	a0,a0,1638 # 66666666 <_end+0x66661662>
    1c60:	33254593          	xori	a1,a0,818
    1c64:	2cb1ae23          	sw	a1,732(gp)

00001c68 <inst_206>:
    1c68:	66666537          	lui	a0,0x66666
    1c6c:	66650513          	addi	a0,a0,1638 # 66666666 <_end+0x66661662>
    1c70:	66554593          	xori	a1,a0,1637
    1c74:	2eb1a023          	sw	a1,736(gp)

00001c78 <inst_207>:
    1c78:	66666537          	lui	a0,0x66666
    1c7c:	66650513          	addi	a0,a0,1638 # 66666666 <_end+0x66661662>
    1c80:	02c54593          	xori	a1,a0,44
    1c84:	2eb1a223          	sw	a1,740(gp)

00001c88 <inst_208>:
    1c88:	66666537          	lui	a0,0x66666
    1c8c:	66650513          	addi	a0,a0,1638 # 66666666 <_end+0x66661662>
    1c90:	55654593          	xori	a1,a0,1366
    1c94:	2eb1a423          	sw	a1,744(gp)

00001c98 <inst_209>:
    1c98:	66666537          	lui	a0,0x66666
    1c9c:	66650513          	addi	a0,a0,1638 # 66666666 <_end+0x66661662>
    1ca0:	aab54593          	xori	a1,a0,-1365
    1ca4:	2eb1a623          	sw	a1,748(gp)

00001ca8 <inst_210>:
    1ca8:	66666537          	lui	a0,0x66666
    1cac:	66650513          	addi	a0,a0,1638 # 66666666 <_end+0x66661662>
    1cb0:	00654593          	xori	a1,a0,6
    1cb4:	2eb1a823          	sw	a1,752(gp)

00001cb8 <inst_211>:
    1cb8:	66666537          	lui	a0,0x66666
    1cbc:	66650513          	addi	a0,a0,1638 # 66666666 <_end+0x66661662>
    1cc0:	33454593          	xori	a1,a0,820
    1cc4:	2eb1aa23          	sw	a1,756(gp)

00001cc8 <inst_212>:
    1cc8:	66666537          	lui	a0,0x66666
    1ccc:	66650513          	addi	a0,a0,1638 # 66666666 <_end+0x66661662>
    1cd0:	66754593          	xori	a1,a0,1639
    1cd4:	2eb1ac23          	sw	a1,760(gp)

00001cd8 <inst_213>:
    1cd8:	66666537          	lui	a0,0x66666
    1cdc:	66650513          	addi	a0,a0,1638 # 66666666 <_end+0x66661662>
    1ce0:	fd454593          	xori	a1,a0,-44
    1ce4:	2eb1ae23          	sw	a1,764(gp)

00001ce8 <inst_214>:
    1ce8:	66666537          	lui	a0,0x66666
    1cec:	66650513          	addi	a0,a0,1638 # 66666666 <_end+0x66661662>
    1cf0:	02e54593          	xori	a1,a0,46
    1cf4:	30b1a023          	sw	a1,768(gp)

00001cf8 <inst_215>:
    1cf8:	ffff5537          	lui	a0,0xffff5
    1cfc:	afc50513          	addi	a0,a0,-1284 # ffff4afc <_end+0xfffefaf8>
    1d00:	00354593          	xori	a1,a0,3
    1d04:	30b1a223          	sw	a1,772(gp)

00001d08 <inst_216>:
    1d08:	ffff5537          	lui	a0,0xffff5
    1d0c:	afc50513          	addi	a0,a0,-1284 # ffff4afc <_end+0xfffefaf8>
    1d10:	55554593          	xori	a1,a0,1365
    1d14:	30b1a423          	sw	a1,776(gp)

00001d18 <inst_217>:
    1d18:	ffff5537          	lui	a0,0xffff5
    1d1c:	afc50513          	addi	a0,a0,-1284 # ffff4afc <_end+0xfffefaf8>
    1d20:	aaa54593          	xori	a1,a0,-1366
    1d24:	30b1a623          	sw	a1,780(gp)

00001d28 <inst_218>:
    1d28:	ffff5537          	lui	a0,0xffff5
    1d2c:	afc50513          	addi	a0,a0,-1284 # ffff4afc <_end+0xfffefaf8>
    1d30:	00554593          	xori	a1,a0,5
    1d34:	30b1a823          	sw	a1,784(gp)

00001d38 <inst_219>:
    1d38:	ffff5537          	lui	a0,0xffff5
    1d3c:	afc50513          	addi	a0,a0,-1284 # ffff4afc <_end+0xfffefaf8>
    1d40:	33354593          	xori	a1,a0,819
    1d44:	30b1aa23          	sw	a1,788(gp)

00001d48 <inst_220>:
    1d48:	ffff5537          	lui	a0,0xffff5
    1d4c:	afc50513          	addi	a0,a0,-1284 # ffff4afc <_end+0xfffefaf8>
    1d50:	66654593          	xori	a1,a0,1638
    1d54:	30b1ac23          	sw	a1,792(gp)

00001d58 <inst_221>:
    1d58:	ffff5537          	lui	a0,0xffff5
    1d5c:	afc50513          	addi	a0,a0,-1284 # ffff4afc <_end+0xfffefaf8>
    1d60:	fd354593          	xori	a1,a0,-45
    1d64:	30b1ae23          	sw	a1,796(gp)

00001d68 <inst_222>:
    1d68:	ffff5537          	lui	a0,0xffff5
    1d6c:	afc50513          	addi	a0,a0,-1284 # ffff4afc <_end+0xfffefaf8>
    1d70:	02d54593          	xori	a1,a0,45
    1d74:	32b1a023          	sw	a1,800(gp)

00001d78 <inst_223>:
    1d78:	ffff5537          	lui	a0,0xffff5
    1d7c:	afc50513          	addi	a0,a0,-1284 # ffff4afc <_end+0xfffefaf8>
    1d80:	00254593          	xori	a1,a0,2
    1d84:	32b1a223          	sw	a1,804(gp)

00001d88 <inst_224>:
    1d88:	ffff5537          	lui	a0,0xffff5
    1d8c:	afc50513          	addi	a0,a0,-1284 # ffff4afc <_end+0xfffefaf8>
    1d90:	55454593          	xori	a1,a0,1364
    1d94:	32b1a423          	sw	a1,808(gp)

00001d98 <inst_225>:
    1d98:	ffff5537          	lui	a0,0xffff5
    1d9c:	afc50513          	addi	a0,a0,-1284 # ffff4afc <_end+0xfffefaf8>
    1da0:	00054593          	xori	a1,a0,0
    1da4:	32b1a623          	sw	a1,812(gp)

00001da8 <inst_226>:
    1da8:	ffff5537          	lui	a0,0xffff5
    1dac:	afc50513          	addi	a0,a0,-1284 # ffff4afc <_end+0xfffefaf8>
    1db0:	00454593          	xori	a1,a0,4
    1db4:	32b1a823          	sw	a1,816(gp)

00001db8 <inst_227>:
    1db8:	ffff5537          	lui	a0,0xffff5
    1dbc:	afc50513          	addi	a0,a0,-1284 # ffff4afc <_end+0xfffefaf8>
    1dc0:	33254593          	xori	a1,a0,818
    1dc4:	32b1aa23          	sw	a1,820(gp)

00001dc8 <inst_228>:
    1dc8:	ffff5537          	lui	a0,0xffff5
    1dcc:	afc50513          	addi	a0,a0,-1284 # ffff4afc <_end+0xfffefaf8>
    1dd0:	66554593          	xori	a1,a0,1637
    1dd4:	32b1ac23          	sw	a1,824(gp)

00001dd8 <inst_229>:
    1dd8:	ffff5537          	lui	a0,0xffff5
    1ddc:	afc50513          	addi	a0,a0,-1284 # ffff4afc <_end+0xfffefaf8>
    1de0:	02c54593          	xori	a1,a0,44
    1de4:	32b1ae23          	sw	a1,828(gp)

00001de8 <inst_230>:
    1de8:	ffff5537          	lui	a0,0xffff5
    1dec:	afc50513          	addi	a0,a0,-1284 # ffff4afc <_end+0xfffefaf8>
    1df0:	55654593          	xori	a1,a0,1366
    1df4:	34b1a023          	sw	a1,832(gp)

00001df8 <inst_231>:
    1df8:	ffff5537          	lui	a0,0xffff5
    1dfc:	afc50513          	addi	a0,a0,-1284 # ffff4afc <_end+0xfffefaf8>
    1e00:	aab54593          	xori	a1,a0,-1365
    1e04:	34b1a223          	sw	a1,836(gp)

00001e08 <inst_232>:
    1e08:	ffff5537          	lui	a0,0xffff5
    1e0c:	afc50513          	addi	a0,a0,-1284 # ffff4afc <_end+0xfffefaf8>
    1e10:	00654593          	xori	a1,a0,6
    1e14:	34b1a423          	sw	a1,840(gp)

00001e18 <inst_233>:
    1e18:	ffff5537          	lui	a0,0xffff5
    1e1c:	afc50513          	addi	a0,a0,-1284 # ffff4afc <_end+0xfffefaf8>
    1e20:	33454593          	xori	a1,a0,820
    1e24:	34b1a623          	sw	a1,844(gp)

00001e28 <inst_234>:
    1e28:	ffff5537          	lui	a0,0xffff5
    1e2c:	afc50513          	addi	a0,a0,-1284 # ffff4afc <_end+0xfffefaf8>
    1e30:	66754593          	xori	a1,a0,1639
    1e34:	34b1a823          	sw	a1,848(gp)

00001e38 <inst_235>:
    1e38:	ffff5537          	lui	a0,0xffff5
    1e3c:	afc50513          	addi	a0,a0,-1284 # ffff4afc <_end+0xfffefaf8>
    1e40:	fd454593          	xori	a1,a0,-44
    1e44:	34b1aa23          	sw	a1,852(gp)

00001e48 <inst_236>:
    1e48:	ffff5537          	lui	a0,0xffff5
    1e4c:	afc50513          	addi	a0,a0,-1284 # ffff4afc <_end+0xfffefaf8>
    1e50:	02e54593          	xori	a1,a0,46
    1e54:	34b1ac23          	sw	a1,856(gp)

00001e58 <inst_237>:
    1e58:	0000b537          	lui	a0,0xb
    1e5c:	50450513          	addi	a0,a0,1284 # b504 <_end+0x6500>
    1e60:	00354593          	xori	a1,a0,3
    1e64:	34b1ae23          	sw	a1,860(gp)

00001e68 <inst_238>:
    1e68:	0000b537          	lui	a0,0xb
    1e6c:	50450513          	addi	a0,a0,1284 # b504 <_end+0x6500>
    1e70:	55554593          	xori	a1,a0,1365
    1e74:	36b1a023          	sw	a1,864(gp)

00001e78 <inst_239>:
    1e78:	0000b537          	lui	a0,0xb
    1e7c:	50450513          	addi	a0,a0,1284 # b504 <_end+0x6500>
    1e80:	aaa54593          	xori	a1,a0,-1366
    1e84:	36b1a223          	sw	a1,868(gp)

00001e88 <inst_240>:
    1e88:	0000b537          	lui	a0,0xb
    1e8c:	50450513          	addi	a0,a0,1284 # b504 <_end+0x6500>
    1e90:	00554593          	xori	a1,a0,5
    1e94:	36b1a423          	sw	a1,872(gp)

00001e98 <inst_241>:
    1e98:	0000b537          	lui	a0,0xb
    1e9c:	50450513          	addi	a0,a0,1284 # b504 <_end+0x6500>
    1ea0:	33354593          	xori	a1,a0,819
    1ea4:	36b1a623          	sw	a1,876(gp)

00001ea8 <inst_242>:
    1ea8:	0000b537          	lui	a0,0xb
    1eac:	50450513          	addi	a0,a0,1284 # b504 <_end+0x6500>
    1eb0:	66654593          	xori	a1,a0,1638
    1eb4:	36b1a823          	sw	a1,880(gp)

00001eb8 <inst_243>:
    1eb8:	0000b537          	lui	a0,0xb
    1ebc:	50450513          	addi	a0,a0,1284 # b504 <_end+0x6500>
    1ec0:	fd354593          	xori	a1,a0,-45
    1ec4:	36b1aa23          	sw	a1,884(gp)

00001ec8 <inst_244>:
    1ec8:	0000b537          	lui	a0,0xb
    1ecc:	50450513          	addi	a0,a0,1284 # b504 <_end+0x6500>
    1ed0:	02d54593          	xori	a1,a0,45
    1ed4:	36b1ac23          	sw	a1,888(gp)

00001ed8 <inst_245>:
    1ed8:	0000b537          	lui	a0,0xb
    1edc:	50450513          	addi	a0,a0,1284 # b504 <_end+0x6500>
    1ee0:	00254593          	xori	a1,a0,2
    1ee4:	36b1ae23          	sw	a1,892(gp)

00001ee8 <inst_246>:
    1ee8:	0000b537          	lui	a0,0xb
    1eec:	50450513          	addi	a0,a0,1284 # b504 <_end+0x6500>
    1ef0:	55454593          	xori	a1,a0,1364
    1ef4:	38b1a023          	sw	a1,896(gp)

00001ef8 <inst_247>:
    1ef8:	0000b537          	lui	a0,0xb
    1efc:	50450513          	addi	a0,a0,1284 # b504 <_end+0x6500>
    1f00:	00054593          	xori	a1,a0,0
    1f04:	38b1a223          	sw	a1,900(gp)

00001f08 <inst_248>:
    1f08:	0000b537          	lui	a0,0xb
    1f0c:	50450513          	addi	a0,a0,1284 # b504 <_end+0x6500>
    1f10:	00454593          	xori	a1,a0,4
    1f14:	38b1a423          	sw	a1,904(gp)

00001f18 <inst_249>:
    1f18:	0000b537          	lui	a0,0xb
    1f1c:	50450513          	addi	a0,a0,1284 # b504 <_end+0x6500>
    1f20:	33254593          	xori	a1,a0,818
    1f24:	38b1a623          	sw	a1,908(gp)

00001f28 <inst_250>:
    1f28:	0000b537          	lui	a0,0xb
    1f2c:	50450513          	addi	a0,a0,1284 # b504 <_end+0x6500>
    1f30:	66554593          	xori	a1,a0,1637
    1f34:	38b1a823          	sw	a1,912(gp)

00001f38 <inst_251>:
    1f38:	0000b537          	lui	a0,0xb
    1f3c:	50450513          	addi	a0,a0,1284 # b504 <_end+0x6500>
    1f40:	02c54593          	xori	a1,a0,44
    1f44:	38b1aa23          	sw	a1,916(gp)

00001f48 <inst_252>:
    1f48:	0000b537          	lui	a0,0xb
    1f4c:	50450513          	addi	a0,a0,1284 # b504 <_end+0x6500>
    1f50:	55654593          	xori	a1,a0,1366
    1f54:	38b1ac23          	sw	a1,920(gp)

00001f58 <inst_253>:
    1f58:	0000b537          	lui	a0,0xb
    1f5c:	50450513          	addi	a0,a0,1284 # b504 <_end+0x6500>
    1f60:	aab54593          	xori	a1,a0,-1365
    1f64:	38b1ae23          	sw	a1,924(gp)

00001f68 <inst_254>:
    1f68:	0000b537          	lui	a0,0xb
    1f6c:	50450513          	addi	a0,a0,1284 # b504 <_end+0x6500>
    1f70:	00654593          	xori	a1,a0,6
    1f74:	3ab1a023          	sw	a1,928(gp)

00001f78 <inst_255>:
    1f78:	0000b537          	lui	a0,0xb
    1f7c:	50450513          	addi	a0,a0,1284 # b504 <_end+0x6500>
    1f80:	33454593          	xori	a1,a0,820
    1f84:	3ab1a223          	sw	a1,932(gp)

00001f88 <inst_256>:
    1f88:	0000b537          	lui	a0,0xb
    1f8c:	50450513          	addi	a0,a0,1284 # b504 <_end+0x6500>
    1f90:	66754593          	xori	a1,a0,1639
    1f94:	3ab1a423          	sw	a1,936(gp)

00001f98 <inst_257>:
    1f98:	0000b537          	lui	a0,0xb
    1f9c:	50450513          	addi	a0,a0,1284 # b504 <_end+0x6500>
    1fa0:	fd454593          	xori	a1,a0,-44
    1fa4:	3ab1a623          	sw	a1,940(gp)

00001fa8 <inst_258>:
    1fa8:	0000b537          	lui	a0,0xb
    1fac:	50450513          	addi	a0,a0,1284 # b504 <_end+0x6500>
    1fb0:	02e54593          	xori	a1,a0,46
    1fb4:	3ab1a823          	sw	a1,944(gp)

00001fb8 <inst_259>:
    1fb8:	00200513          	li	a0,2
    1fbc:	00354593          	xori	a1,a0,3
    1fc0:	3ab1aa23          	sw	a1,948(gp)

00001fc4 <inst_260>:
    1fc4:	00200513          	li	a0,2
    1fc8:	55554593          	xori	a1,a0,1365
    1fcc:	3ab1ac23          	sw	a1,952(gp)

00001fd0 <inst_261>:
    1fd0:	00200513          	li	a0,2
    1fd4:	aaa54593          	xori	a1,a0,-1366
    1fd8:	3ab1ae23          	sw	a1,956(gp)

00001fdc <inst_262>:
    1fdc:	00200513          	li	a0,2
    1fe0:	00554593          	xori	a1,a0,5
    1fe4:	3cb1a023          	sw	a1,960(gp)

00001fe8 <inst_263>:
    1fe8:	00200513          	li	a0,2
    1fec:	33354593          	xori	a1,a0,819
    1ff0:	3cb1a223          	sw	a1,964(gp)

00001ff4 <inst_264>:
    1ff4:	00200513          	li	a0,2
    1ff8:	66654593          	xori	a1,a0,1638
    1ffc:	3cb1a423          	sw	a1,968(gp)

00002000 <inst_265>:
    2000:	00200513          	li	a0,2
    2004:	fd354593          	xori	a1,a0,-45
    2008:	3cb1a623          	sw	a1,972(gp)

0000200c <inst_266>:
    200c:	00200513          	li	a0,2
    2010:	02d54593          	xori	a1,a0,45
    2014:	3cb1a823          	sw	a1,976(gp)

00002018 <inst_267>:
    2018:	00200513          	li	a0,2
    201c:	00254593          	xori	a1,a0,2
    2020:	3cb1aa23          	sw	a1,980(gp)

00002024 <inst_268>:
    2024:	00200513          	li	a0,2
    2028:	55454593          	xori	a1,a0,1364
    202c:	3cb1ac23          	sw	a1,984(gp)

00002030 <inst_269>:
    2030:	00200513          	li	a0,2
    2034:	00054593          	xori	a1,a0,0
    2038:	3cb1ae23          	sw	a1,988(gp)

0000203c <inst_270>:
    203c:	00200513          	li	a0,2
    2040:	00454593          	xori	a1,a0,4
    2044:	3eb1a023          	sw	a1,992(gp)

00002048 <inst_271>:
    2048:	00200513          	li	a0,2
    204c:	33254593          	xori	a1,a0,818
    2050:	3eb1a223          	sw	a1,996(gp)

00002054 <inst_272>:
    2054:	00200513          	li	a0,2
    2058:	66554593          	xori	a1,a0,1637
    205c:	3eb1a423          	sw	a1,1000(gp)

00002060 <inst_273>:
    2060:	00200513          	li	a0,2
    2064:	02c54593          	xori	a1,a0,44
    2068:	3eb1a623          	sw	a1,1004(gp)

0000206c <inst_274>:
    206c:	00200513          	li	a0,2
    2070:	55654593          	xori	a1,a0,1366
    2074:	3eb1a823          	sw	a1,1008(gp)

00002078 <inst_275>:
    2078:	00200513          	li	a0,2
    207c:	aab54593          	xori	a1,a0,-1365
    2080:	3eb1aa23          	sw	a1,1012(gp)

00002084 <inst_276>:
    2084:	00200513          	li	a0,2
    2088:	00654593          	xori	a1,a0,6
    208c:	3eb1ac23          	sw	a1,1016(gp)

00002090 <inst_277>:
    2090:	00200513          	li	a0,2
    2094:	33454593          	xori	a1,a0,820
    2098:	3eb1ae23          	sw	a1,1020(gp)

0000209c <inst_278>:
    209c:	00200513          	li	a0,2
    20a0:	66754593          	xori	a1,a0,1639
    20a4:	40b1a023          	sw	a1,1024(gp)

000020a8 <inst_279>:
    20a8:	00200513          	li	a0,2
    20ac:	fd454593          	xori	a1,a0,-44
    20b0:	40b1a223          	sw	a1,1028(gp)

000020b4 <inst_280>:
    20b4:	00200513          	li	a0,2
    20b8:	02e54593          	xori	a1,a0,46
    20bc:	40b1a423          	sw	a1,1032(gp)

000020c0 <inst_281>:
    20c0:	55555537          	lui	a0,0x55555
    20c4:	55450513          	addi	a0,a0,1364 # 55555554 <_end+0x55550550>
    20c8:	00354593          	xori	a1,a0,3
    20cc:	40b1a623          	sw	a1,1036(gp)

000020d0 <inst_282>:
    20d0:	55555537          	lui	a0,0x55555
    20d4:	55450513          	addi	a0,a0,1364 # 55555554 <_end+0x55550550>
    20d8:	55554593          	xori	a1,a0,1365
    20dc:	40b1a823          	sw	a1,1040(gp)

000020e0 <inst_283>:
    20e0:	55555537          	lui	a0,0x55555
    20e4:	55450513          	addi	a0,a0,1364 # 55555554 <_end+0x55550550>
    20e8:	aaa54593          	xori	a1,a0,-1366
    20ec:	40b1aa23          	sw	a1,1044(gp)

000020f0 <inst_284>:
    20f0:	55555537          	lui	a0,0x55555
    20f4:	55450513          	addi	a0,a0,1364 # 55555554 <_end+0x55550550>
    20f8:	00554593          	xori	a1,a0,5
    20fc:	40b1ac23          	sw	a1,1048(gp)

00002100 <inst_285>:
    2100:	55555537          	lui	a0,0x55555
    2104:	55450513          	addi	a0,a0,1364 # 55555554 <_end+0x55550550>
    2108:	33354593          	xori	a1,a0,819
    210c:	40b1ae23          	sw	a1,1052(gp)

00002110 <inst_286>:
    2110:	55555537          	lui	a0,0x55555
    2114:	55450513          	addi	a0,a0,1364 # 55555554 <_end+0x55550550>
    2118:	66654593          	xori	a1,a0,1638
    211c:	42b1a023          	sw	a1,1056(gp)

00002120 <inst_287>:
    2120:	55555537          	lui	a0,0x55555
    2124:	55450513          	addi	a0,a0,1364 # 55555554 <_end+0x55550550>
    2128:	fd354593          	xori	a1,a0,-45
    212c:	42b1a223          	sw	a1,1060(gp)

00002130 <inst_288>:
    2130:	55555537          	lui	a0,0x55555
    2134:	55450513          	addi	a0,a0,1364 # 55555554 <_end+0x55550550>
    2138:	02d54593          	xori	a1,a0,45
    213c:	42b1a423          	sw	a1,1064(gp)

00002140 <inst_289>:
    2140:	55555537          	lui	a0,0x55555
    2144:	55450513          	addi	a0,a0,1364 # 55555554 <_end+0x55550550>
    2148:	00254593          	xori	a1,a0,2
    214c:	42b1a623          	sw	a1,1068(gp)

00002150 <inst_290>:
    2150:	55555537          	lui	a0,0x55555
    2154:	55450513          	addi	a0,a0,1364 # 55555554 <_end+0x55550550>
    2158:	55454593          	xori	a1,a0,1364
    215c:	42b1a823          	sw	a1,1072(gp)

00002160 <inst_291>:
    2160:	55555537          	lui	a0,0x55555
    2164:	55450513          	addi	a0,a0,1364 # 55555554 <_end+0x55550550>
    2168:	00054593          	xori	a1,a0,0
    216c:	42b1aa23          	sw	a1,1076(gp)

00002170 <inst_292>:
    2170:	55555537          	lui	a0,0x55555
    2174:	55450513          	addi	a0,a0,1364 # 55555554 <_end+0x55550550>
    2178:	00454593          	xori	a1,a0,4
    217c:	42b1ac23          	sw	a1,1080(gp)

00002180 <inst_293>:
    2180:	55555537          	lui	a0,0x55555
    2184:	55450513          	addi	a0,a0,1364 # 55555554 <_end+0x55550550>
    2188:	33254593          	xori	a1,a0,818
    218c:	42b1ae23          	sw	a1,1084(gp)

00002190 <inst_294>:
    2190:	55555537          	lui	a0,0x55555
    2194:	55450513          	addi	a0,a0,1364 # 55555554 <_end+0x55550550>
    2198:	66554593          	xori	a1,a0,1637
    219c:	44b1a023          	sw	a1,1088(gp)

000021a0 <inst_295>:
    21a0:	55555537          	lui	a0,0x55555
    21a4:	55450513          	addi	a0,a0,1364 # 55555554 <_end+0x55550550>
    21a8:	02c54593          	xori	a1,a0,44
    21ac:	44b1a223          	sw	a1,1092(gp)

000021b0 <inst_296>:
    21b0:	55555537          	lui	a0,0x55555
    21b4:	55450513          	addi	a0,a0,1364 # 55555554 <_end+0x55550550>
    21b8:	55654593          	xori	a1,a0,1366
    21bc:	44b1a423          	sw	a1,1096(gp)

000021c0 <inst_297>:
    21c0:	55555537          	lui	a0,0x55555
    21c4:	55450513          	addi	a0,a0,1364 # 55555554 <_end+0x55550550>
    21c8:	aab54593          	xori	a1,a0,-1365
    21cc:	44b1a623          	sw	a1,1100(gp)

000021d0 <inst_298>:
    21d0:	55555537          	lui	a0,0x55555
    21d4:	55450513          	addi	a0,a0,1364 # 55555554 <_end+0x55550550>
    21d8:	00654593          	xori	a1,a0,6
    21dc:	44b1a823          	sw	a1,1104(gp)

000021e0 <inst_299>:
    21e0:	55555537          	lui	a0,0x55555
    21e4:	55450513          	addi	a0,a0,1364 # 55555554 <_end+0x55550550>
    21e8:	33454593          	xori	a1,a0,820
    21ec:	44b1aa23          	sw	a1,1108(gp)

000021f0 <inst_300>:
    21f0:	55555537          	lui	a0,0x55555
    21f4:	55450513          	addi	a0,a0,1364 # 55555554 <_end+0x55550550>
    21f8:	66754593          	xori	a1,a0,1639
    21fc:	44b1ac23          	sw	a1,1112(gp)

00002200 <inst_301>:
    2200:	55555537          	lui	a0,0x55555
    2204:	55450513          	addi	a0,a0,1364 # 55555554 <_end+0x55550550>
    2208:	fd454593          	xori	a1,a0,-44
    220c:	44b1ae23          	sw	a1,1116(gp)

00002210 <inst_302>:
    2210:	55555537          	lui	a0,0x55555
    2214:	55450513          	addi	a0,a0,1364 # 55555554 <_end+0x55550550>
    2218:	02e54593          	xori	a1,a0,46
    221c:	46b1a023          	sw	a1,1120(gp)

00002220 <inst_303>:
    2220:	00000513          	li	a0,0
    2224:	00354593          	xori	a1,a0,3
    2228:	46b1a223          	sw	a1,1124(gp)

0000222c <inst_304>:
    222c:	00000513          	li	a0,0
    2230:	55554593          	xori	a1,a0,1365
    2234:	46b1a423          	sw	a1,1128(gp)

00002238 <inst_305>:
    2238:	00000513          	li	a0,0
    223c:	aaa54593          	xori	a1,a0,-1366
    2240:	46b1a623          	sw	a1,1132(gp)

00002244 <inst_306>:
    2244:	00000513          	li	a0,0
    2248:	00554593          	xori	a1,a0,5
    224c:	46b1a823          	sw	a1,1136(gp)

00002250 <inst_307>:
    2250:	00000513          	li	a0,0
    2254:	33354593          	xori	a1,a0,819
    2258:	46b1aa23          	sw	a1,1140(gp)

0000225c <inst_308>:
    225c:	00000513          	li	a0,0
    2260:	66654593          	xori	a1,a0,1638
    2264:	46b1ac23          	sw	a1,1144(gp)

00002268 <inst_309>:
    2268:	00000513          	li	a0,0
    226c:	fd354593          	xori	a1,a0,-45
    2270:	46b1ae23          	sw	a1,1148(gp)

00002274 <inst_310>:
    2274:	00000513          	li	a0,0
    2278:	02d54593          	xori	a1,a0,45
    227c:	48b1a023          	sw	a1,1152(gp)

00002280 <inst_311>:
    2280:	33333537          	lui	a0,0x33333
    2284:	33450513          	addi	a0,a0,820 # 33333334 <_end+0x3332e330>
    2288:	33254593          	xori	a1,a0,818
    228c:	48b1a223          	sw	a1,1156(gp)

00002290 <inst_312>:
    2290:	33333537          	lui	a0,0x33333
    2294:	33450513          	addi	a0,a0,820 # 33333334 <_end+0x3332e330>
    2298:	66554593          	xori	a1,a0,1637
    229c:	48b1a423          	sw	a1,1160(gp)

000022a0 <inst_313>:
    22a0:	33333537          	lui	a0,0x33333
    22a4:	33450513          	addi	a0,a0,820 # 33333334 <_end+0x3332e330>
    22a8:	02c54593          	xori	a1,a0,44
    22ac:	48b1a623          	sw	a1,1164(gp)

000022b0 <inst_314>:
    22b0:	33333537          	lui	a0,0x33333
    22b4:	33450513          	addi	a0,a0,820 # 33333334 <_end+0x3332e330>
    22b8:	55654593          	xori	a1,a0,1366
    22bc:	48b1a823          	sw	a1,1168(gp)

000022c0 <inst_315>:
    22c0:	33333537          	lui	a0,0x33333
    22c4:	33450513          	addi	a0,a0,820 # 33333334 <_end+0x3332e330>
    22c8:	aab54593          	xori	a1,a0,-1365
    22cc:	48b1aa23          	sw	a1,1172(gp)

000022d0 <inst_316>:
    22d0:	33333537          	lui	a0,0x33333
    22d4:	33450513          	addi	a0,a0,820 # 33333334 <_end+0x3332e330>
    22d8:	00654593          	xori	a1,a0,6
    22dc:	48b1ac23          	sw	a1,1176(gp)

000022e0 <inst_317>:
    22e0:	33333537          	lui	a0,0x33333
    22e4:	33450513          	addi	a0,a0,820 # 33333334 <_end+0x3332e330>
    22e8:	33454593          	xori	a1,a0,820
    22ec:	48b1ae23          	sw	a1,1180(gp)

000022f0 <inst_318>:
    22f0:	33333537          	lui	a0,0x33333
    22f4:	33450513          	addi	a0,a0,820 # 33333334 <_end+0x3332e330>
    22f8:	66754593          	xori	a1,a0,1639
    22fc:	4ab1a023          	sw	a1,1184(gp)

00002300 <inst_319>:
    2300:	33333537          	lui	a0,0x33333
    2304:	33450513          	addi	a0,a0,820 # 33333334 <_end+0x3332e330>
    2308:	fd454593          	xori	a1,a0,-44
    230c:	4ab1a223          	sw	a1,1188(gp)

00002310 <inst_320>:
    2310:	33333537          	lui	a0,0x33333
    2314:	33450513          	addi	a0,a0,820 # 33333334 <_end+0x3332e330>
    2318:	02e54593          	xori	a1,a0,46
    231c:	4ab1a423          	sw	a1,1192(gp)

00002320 <inst_321>:
    2320:	66666537          	lui	a0,0x66666
    2324:	66750513          	addi	a0,a0,1639 # 66666667 <_end+0x66661663>
    2328:	00354593          	xori	a1,a0,3
    232c:	4ab1a623          	sw	a1,1196(gp)

00002330 <inst_322>:
    2330:	66666537          	lui	a0,0x66666
    2334:	66750513          	addi	a0,a0,1639 # 66666667 <_end+0x66661663>
    2338:	55554593          	xori	a1,a0,1365
    233c:	4ab1a823          	sw	a1,1200(gp)

00002340 <inst_323>:
    2340:	66666537          	lui	a0,0x66666
    2344:	66750513          	addi	a0,a0,1639 # 66666667 <_end+0x66661663>
    2348:	aaa54593          	xori	a1,a0,-1366
    234c:	4ab1aa23          	sw	a1,1204(gp)

00002350 <inst_324>:
    2350:	66666537          	lui	a0,0x66666
    2354:	66750513          	addi	a0,a0,1639 # 66666667 <_end+0x66661663>
    2358:	00554593          	xori	a1,a0,5
    235c:	4ab1ac23          	sw	a1,1208(gp)

00002360 <inst_325>:
    2360:	66666537          	lui	a0,0x66666
    2364:	66750513          	addi	a0,a0,1639 # 66666667 <_end+0x66661663>
    2368:	33354593          	xori	a1,a0,819
    236c:	4ab1ae23          	sw	a1,1212(gp)

00002370 <inst_326>:
    2370:	66666537          	lui	a0,0x66666
    2374:	66750513          	addi	a0,a0,1639 # 66666667 <_end+0x66661663>
    2378:	66654593          	xori	a1,a0,1638
    237c:	4cb1a023          	sw	a1,1216(gp)

00002380 <inst_327>:
    2380:	66666537          	lui	a0,0x66666
    2384:	66750513          	addi	a0,a0,1639 # 66666667 <_end+0x66661663>
    2388:	fd354593          	xori	a1,a0,-45
    238c:	4cb1a223          	sw	a1,1220(gp)

00002390 <inst_328>:
    2390:	66666537          	lui	a0,0x66666
    2394:	66750513          	addi	a0,a0,1639 # 66666667 <_end+0x66661663>
    2398:	02d54593          	xori	a1,a0,45
    239c:	4cb1a423          	sw	a1,1224(gp)

000023a0 <inst_329>:
    23a0:	66666537          	lui	a0,0x66666
    23a4:	66750513          	addi	a0,a0,1639 # 66666667 <_end+0x66661663>
    23a8:	00254593          	xori	a1,a0,2
    23ac:	4cb1a623          	sw	a1,1228(gp)

000023b0 <inst_330>:
    23b0:	66666537          	lui	a0,0x66666
    23b4:	66750513          	addi	a0,a0,1639 # 66666667 <_end+0x66661663>
    23b8:	55454593          	xori	a1,a0,1364
    23bc:	4cb1a823          	sw	a1,1232(gp)

000023c0 <inst_331>:
    23c0:	66666537          	lui	a0,0x66666
    23c4:	66750513          	addi	a0,a0,1639 # 66666667 <_end+0x66661663>
    23c8:	00054593          	xori	a1,a0,0
    23cc:	4cb1aa23          	sw	a1,1236(gp)

000023d0 <inst_332>:
    23d0:	66666537          	lui	a0,0x66666
    23d4:	66750513          	addi	a0,a0,1639 # 66666667 <_end+0x66661663>
    23d8:	00454593          	xori	a1,a0,4
    23dc:	4cb1ac23          	sw	a1,1240(gp)

000023e0 <inst_333>:
    23e0:	66666537          	lui	a0,0x66666
    23e4:	66750513          	addi	a0,a0,1639 # 66666667 <_end+0x66661663>
    23e8:	33254593          	xori	a1,a0,818
    23ec:	4cb1ae23          	sw	a1,1244(gp)

000023f0 <inst_334>:
    23f0:	66666537          	lui	a0,0x66666
    23f4:	66750513          	addi	a0,a0,1639 # 66666667 <_end+0x66661663>
    23f8:	66554593          	xori	a1,a0,1637
    23fc:	4eb1a023          	sw	a1,1248(gp)

00002400 <inst_335>:
    2400:	66666537          	lui	a0,0x66666
    2404:	66750513          	addi	a0,a0,1639 # 66666667 <_end+0x66661663>
    2408:	02c54593          	xori	a1,a0,44
    240c:	4eb1a223          	sw	a1,1252(gp)

00002410 <inst_336>:
    2410:	66666537          	lui	a0,0x66666
    2414:	66750513          	addi	a0,a0,1639 # 66666667 <_end+0x66661663>
    2418:	55654593          	xori	a1,a0,1366
    241c:	4eb1a423          	sw	a1,1256(gp)

00002420 <inst_337>:
    2420:	66666537          	lui	a0,0x66666
    2424:	66750513          	addi	a0,a0,1639 # 66666667 <_end+0x66661663>
    2428:	aab54593          	xori	a1,a0,-1365
    242c:	4eb1a623          	sw	a1,1260(gp)

00002430 <inst_338>:
    2430:	66666537          	lui	a0,0x66666
    2434:	66750513          	addi	a0,a0,1639 # 66666667 <_end+0x66661663>
    2438:	00654593          	xori	a1,a0,6
    243c:	4eb1a823          	sw	a1,1264(gp)

00002440 <inst_339>:
    2440:	66666537          	lui	a0,0x66666
    2444:	66750513          	addi	a0,a0,1639 # 66666667 <_end+0x66661663>
    2448:	33454593          	xori	a1,a0,820
    244c:	4eb1aa23          	sw	a1,1268(gp)

00002450 <inst_340>:
    2450:	66666537          	lui	a0,0x66666
    2454:	66750513          	addi	a0,a0,1639 # 66666667 <_end+0x66661663>
    2458:	66754593          	xori	a1,a0,1639
    245c:	4eb1ac23          	sw	a1,1272(gp)

00002460 <inst_341>:
    2460:	66666537          	lui	a0,0x66666
    2464:	66750513          	addi	a0,a0,1639 # 66666667 <_end+0x66661663>
    2468:	fd454593          	xori	a1,a0,-44
    246c:	4eb1ae23          	sw	a1,1276(gp)

00002470 <inst_342>:
    2470:	66666537          	lui	a0,0x66666
    2474:	66750513          	addi	a0,a0,1639 # 66666667 <_end+0x66661663>
    2478:	02e54593          	xori	a1,a0,46
    247c:	50b1a023          	sw	a1,1280(gp)

00002480 <inst_343>:
    2480:	ffff5537          	lui	a0,0xffff5
    2484:	afd50513          	addi	a0,a0,-1283 # ffff4afd <_end+0xfffefaf9>
    2488:	00354593          	xori	a1,a0,3
    248c:	50b1a223          	sw	a1,1284(gp)

00002490 <inst_344>:
    2490:	ffff5537          	lui	a0,0xffff5
    2494:	afd50513          	addi	a0,a0,-1283 # ffff4afd <_end+0xfffefaf9>
    2498:	55554593          	xori	a1,a0,1365
    249c:	50b1a423          	sw	a1,1288(gp)

000024a0 <inst_345>:
    24a0:	ffff5537          	lui	a0,0xffff5
    24a4:	afd50513          	addi	a0,a0,-1283 # ffff4afd <_end+0xfffefaf9>
    24a8:	aaa54593          	xori	a1,a0,-1366
    24ac:	50b1a623          	sw	a1,1292(gp)

000024b0 <inst_346>:
    24b0:	ffff5537          	lui	a0,0xffff5
    24b4:	afd50513          	addi	a0,a0,-1283 # ffff4afd <_end+0xfffefaf9>
    24b8:	00554593          	xori	a1,a0,5
    24bc:	50b1a823          	sw	a1,1296(gp)

000024c0 <inst_347>:
    24c0:	ffff5537          	lui	a0,0xffff5
    24c4:	afd50513          	addi	a0,a0,-1283 # ffff4afd <_end+0xfffefaf9>
    24c8:	33354593          	xori	a1,a0,819
    24cc:	50b1aa23          	sw	a1,1300(gp)

000024d0 <inst_348>:
    24d0:	ffff5537          	lui	a0,0xffff5
    24d4:	afd50513          	addi	a0,a0,-1283 # ffff4afd <_end+0xfffefaf9>
    24d8:	66654593          	xori	a1,a0,1638
    24dc:	50b1ac23          	sw	a1,1304(gp)

000024e0 <inst_349>:
    24e0:	ffff5537          	lui	a0,0xffff5
    24e4:	afd50513          	addi	a0,a0,-1283 # ffff4afd <_end+0xfffefaf9>
    24e8:	fd354593          	xori	a1,a0,-45
    24ec:	50b1ae23          	sw	a1,1308(gp)

000024f0 <inst_350>:
    24f0:	ffff5537          	lui	a0,0xffff5
    24f4:	afd50513          	addi	a0,a0,-1283 # ffff4afd <_end+0xfffefaf9>
    24f8:	02d54593          	xori	a1,a0,45
    24fc:	52b1a023          	sw	a1,1312(gp)

00002500 <inst_351>:
    2500:	ffff5537          	lui	a0,0xffff5
    2504:	afd50513          	addi	a0,a0,-1283 # ffff4afd <_end+0xfffefaf9>
    2508:	00254593          	xori	a1,a0,2
    250c:	52b1a223          	sw	a1,1316(gp)

00002510 <inst_352>:
    2510:	ffff5537          	lui	a0,0xffff5
    2514:	afd50513          	addi	a0,a0,-1283 # ffff4afd <_end+0xfffefaf9>
    2518:	55454593          	xori	a1,a0,1364
    251c:	52b1a423          	sw	a1,1320(gp)

00002520 <inst_353>:
    2520:	ffff5537          	lui	a0,0xffff5
    2524:	afd50513          	addi	a0,a0,-1283 # ffff4afd <_end+0xfffefaf9>
    2528:	00054593          	xori	a1,a0,0
    252c:	52b1a623          	sw	a1,1324(gp)

00002530 <inst_354>:
    2530:	ffff5537          	lui	a0,0xffff5
    2534:	afd50513          	addi	a0,a0,-1283 # ffff4afd <_end+0xfffefaf9>
    2538:	00454593          	xori	a1,a0,4
    253c:	52b1a823          	sw	a1,1328(gp)

00002540 <inst_355>:
    2540:	ffff5537          	lui	a0,0xffff5
    2544:	afd50513          	addi	a0,a0,-1283 # ffff4afd <_end+0xfffefaf9>
    2548:	33254593          	xori	a1,a0,818
    254c:	52b1aa23          	sw	a1,1332(gp)

00002550 <inst_356>:
    2550:	ffff5537          	lui	a0,0xffff5
    2554:	afd50513          	addi	a0,a0,-1283 # ffff4afd <_end+0xfffefaf9>
    2558:	66554593          	xori	a1,a0,1637
    255c:	52b1ac23          	sw	a1,1336(gp)

00002560 <inst_357>:
    2560:	ffff5537          	lui	a0,0xffff5
    2564:	afd50513          	addi	a0,a0,-1283 # ffff4afd <_end+0xfffefaf9>
    2568:	02c54593          	xori	a1,a0,44
    256c:	52b1ae23          	sw	a1,1340(gp)

00002570 <inst_358>:
    2570:	ffff5537          	lui	a0,0xffff5
    2574:	afd50513          	addi	a0,a0,-1283 # ffff4afd <_end+0xfffefaf9>
    2578:	55654593          	xori	a1,a0,1366
    257c:	54b1a023          	sw	a1,1344(gp)

00002580 <inst_359>:
    2580:	ffff5537          	lui	a0,0xffff5
    2584:	afd50513          	addi	a0,a0,-1283 # ffff4afd <_end+0xfffefaf9>
    2588:	aab54593          	xori	a1,a0,-1365
    258c:	54b1a223          	sw	a1,1348(gp)

00002590 <inst_360>:
    2590:	ffff5537          	lui	a0,0xffff5
    2594:	afd50513          	addi	a0,a0,-1283 # ffff4afd <_end+0xfffefaf9>
    2598:	00654593          	xori	a1,a0,6
    259c:	54b1a423          	sw	a1,1352(gp)

000025a0 <inst_361>:
    25a0:	ffff5537          	lui	a0,0xffff5
    25a4:	afd50513          	addi	a0,a0,-1283 # ffff4afd <_end+0xfffefaf9>
    25a8:	33454593          	xori	a1,a0,820
    25ac:	54b1a623          	sw	a1,1356(gp)

000025b0 <inst_362>:
    25b0:	ffff5537          	lui	a0,0xffff5
    25b4:	afd50513          	addi	a0,a0,-1283 # ffff4afd <_end+0xfffefaf9>
    25b8:	66754593          	xori	a1,a0,1639
    25bc:	54b1a823          	sw	a1,1360(gp)

000025c0 <inst_363>:
    25c0:	ffff5537          	lui	a0,0xffff5
    25c4:	afd50513          	addi	a0,a0,-1283 # ffff4afd <_end+0xfffefaf9>
    25c8:	fd454593          	xori	a1,a0,-44
    25cc:	54b1aa23          	sw	a1,1364(gp)

000025d0 <inst_364>:
    25d0:	ffff5537          	lui	a0,0xffff5
    25d4:	afd50513          	addi	a0,a0,-1283 # ffff4afd <_end+0xfffefaf9>
    25d8:	02e54593          	xori	a1,a0,46
    25dc:	54b1ac23          	sw	a1,1368(gp)

000025e0 <inst_365>:
    25e0:	0000b537          	lui	a0,0xb
    25e4:	50550513          	addi	a0,a0,1285 # b505 <_end+0x6501>
    25e8:	00354593          	xori	a1,a0,3
    25ec:	54b1ae23          	sw	a1,1372(gp)

000025f0 <inst_366>:
    25f0:	0000b537          	lui	a0,0xb
    25f4:	50550513          	addi	a0,a0,1285 # b505 <_end+0x6501>
    25f8:	55554593          	xori	a1,a0,1365
    25fc:	56b1a023          	sw	a1,1376(gp)

00002600 <inst_367>:
    2600:	0000b537          	lui	a0,0xb
    2604:	50550513          	addi	a0,a0,1285 # b505 <_end+0x6501>
    2608:	aaa54593          	xori	a1,a0,-1366
    260c:	56b1a223          	sw	a1,1380(gp)

00002610 <inst_368>:
    2610:	0000b537          	lui	a0,0xb
    2614:	50550513          	addi	a0,a0,1285 # b505 <_end+0x6501>
    2618:	00554593          	xori	a1,a0,5
    261c:	56b1a423          	sw	a1,1384(gp)

00002620 <inst_369>:
    2620:	0000b537          	lui	a0,0xb
    2624:	50550513          	addi	a0,a0,1285 # b505 <_end+0x6501>
    2628:	33354593          	xori	a1,a0,819
    262c:	56b1a623          	sw	a1,1388(gp)

00002630 <inst_370>:
    2630:	0000b537          	lui	a0,0xb
    2634:	50550513          	addi	a0,a0,1285 # b505 <_end+0x6501>
    2638:	66654593          	xori	a1,a0,1638
    263c:	56b1a823          	sw	a1,1392(gp)

00002640 <inst_371>:
    2640:	0000b537          	lui	a0,0xb
    2644:	50550513          	addi	a0,a0,1285 # b505 <_end+0x6501>
    2648:	fd354593          	xori	a1,a0,-45
    264c:	56b1aa23          	sw	a1,1396(gp)

00002650 <inst_372>:
    2650:	0000b537          	lui	a0,0xb
    2654:	50550513          	addi	a0,a0,1285 # b505 <_end+0x6501>
    2658:	02d54593          	xori	a1,a0,45
    265c:	56b1ac23          	sw	a1,1400(gp)

00002660 <inst_373>:
    2660:	0000b537          	lui	a0,0xb
    2664:	50550513          	addi	a0,a0,1285 # b505 <_end+0x6501>
    2668:	00254593          	xori	a1,a0,2
    266c:	56b1ae23          	sw	a1,1404(gp)

00002670 <inst_374>:
    2670:	0000b537          	lui	a0,0xb
    2674:	50550513          	addi	a0,a0,1285 # b505 <_end+0x6501>
    2678:	55454593          	xori	a1,a0,1364
    267c:	58b1a023          	sw	a1,1408(gp)

00002680 <inst_375>:
    2680:	0000b537          	lui	a0,0xb
    2684:	50550513          	addi	a0,a0,1285 # b505 <_end+0x6501>
    2688:	00054593          	xori	a1,a0,0
    268c:	58b1a223          	sw	a1,1412(gp)

00002690 <inst_376>:
    2690:	0000b537          	lui	a0,0xb
    2694:	50550513          	addi	a0,a0,1285 # b505 <_end+0x6501>
    2698:	00454593          	xori	a1,a0,4
    269c:	58b1a423          	sw	a1,1416(gp)

000026a0 <inst_377>:
    26a0:	0000b537          	lui	a0,0xb
    26a4:	50550513          	addi	a0,a0,1285 # b505 <_end+0x6501>
    26a8:	33254593          	xori	a1,a0,818
    26ac:	58b1a623          	sw	a1,1420(gp)

000026b0 <inst_378>:
    26b0:	0000b537          	lui	a0,0xb
    26b4:	50550513          	addi	a0,a0,1285 # b505 <_end+0x6501>
    26b8:	66554593          	xori	a1,a0,1637
    26bc:	58b1a823          	sw	a1,1424(gp)

000026c0 <inst_379>:
    26c0:	0000b537          	lui	a0,0xb
    26c4:	50550513          	addi	a0,a0,1285 # b505 <_end+0x6501>
    26c8:	02c54593          	xori	a1,a0,44
    26cc:	58b1aa23          	sw	a1,1428(gp)

000026d0 <inst_380>:
    26d0:	0000b537          	lui	a0,0xb
    26d4:	50550513          	addi	a0,a0,1285 # b505 <_end+0x6501>
    26d8:	55654593          	xori	a1,a0,1366
    26dc:	58b1ac23          	sw	a1,1432(gp)

000026e0 <inst_381>:
    26e0:	0000b537          	lui	a0,0xb
    26e4:	50550513          	addi	a0,a0,1285 # b505 <_end+0x6501>
    26e8:	aab54593          	xori	a1,a0,-1365
    26ec:	58b1ae23          	sw	a1,1436(gp)

000026f0 <inst_382>:
    26f0:	0000b537          	lui	a0,0xb
    26f4:	50550513          	addi	a0,a0,1285 # b505 <_end+0x6501>
    26f8:	00654593          	xori	a1,a0,6
    26fc:	5ab1a023          	sw	a1,1440(gp)

00002700 <inst_383>:
    2700:	0000b537          	lui	a0,0xb
    2704:	50550513          	addi	a0,a0,1285 # b505 <_end+0x6501>
    2708:	33454593          	xori	a1,a0,820
    270c:	5ab1a223          	sw	a1,1444(gp)

00002710 <inst_384>:
    2710:	0000b537          	lui	a0,0xb
    2714:	50550513          	addi	a0,a0,1285 # b505 <_end+0x6501>
    2718:	66754593          	xori	a1,a0,1639
    271c:	5ab1a423          	sw	a1,1448(gp)

00002720 <inst_385>:
    2720:	0000b537          	lui	a0,0xb
    2724:	50550513          	addi	a0,a0,1285 # b505 <_end+0x6501>
    2728:	fd454593          	xori	a1,a0,-44
    272c:	5ab1a623          	sw	a1,1452(gp)

00002730 <inst_386>:
    2730:	0000b537          	lui	a0,0xb
    2734:	50550513          	addi	a0,a0,1285 # b505 <_end+0x6501>
    2738:	02e54593          	xori	a1,a0,46
    273c:	5ab1a823          	sw	a1,1456(gp)

00002740 <inst_387>:
    2740:	00000513          	li	a0,0
    2744:	00254593          	xori	a1,a0,2
    2748:	5ab1aa23          	sw	a1,1460(gp)

0000274c <inst_388>:
    274c:	00000513          	li	a0,0
    2750:	55454593          	xori	a1,a0,1364
    2754:	5ab1ac23          	sw	a1,1464(gp)

00002758 <inst_389>:
    2758:	00000513          	li	a0,0
    275c:	00054593          	xori	a1,a0,0
    2760:	5ab1ae23          	sw	a1,1468(gp)

00002764 <inst_390>:
    2764:	00000513          	li	a0,0
    2768:	00454593          	xori	a1,a0,4
    276c:	5cb1a023          	sw	a1,1472(gp)

00002770 <inst_391>:
    2770:	00000513          	li	a0,0
    2774:	33254593          	xori	a1,a0,818
    2778:	5cb1a223          	sw	a1,1476(gp)

0000277c <inst_392>:
    277c:	00000513          	li	a0,0
    2780:	66554593          	xori	a1,a0,1637
    2784:	5cb1a423          	sw	a1,1480(gp)

00002788 <inst_393>:
    2788:	00000513          	li	a0,0
    278c:	02c54593          	xori	a1,a0,44
    2790:	5cb1a623          	sw	a1,1484(gp)

00002794 <inst_394>:
    2794:	00000513          	li	a0,0
    2798:	55654593          	xori	a1,a0,1366
    279c:	5cb1a823          	sw	a1,1488(gp)

000027a0 <inst_395>:
    27a0:	00000513          	li	a0,0
    27a4:	aab54593          	xori	a1,a0,-1365
    27a8:	5cb1aa23          	sw	a1,1492(gp)

000027ac <inst_396>:
    27ac:	00000513          	li	a0,0
    27b0:	00654593          	xori	a1,a0,6
    27b4:	5cb1ac23          	sw	a1,1496(gp)

000027b8 <inst_397>:
    27b8:	00000513          	li	a0,0
    27bc:	33454593          	xori	a1,a0,820
    27c0:	5cb1ae23          	sw	a1,1500(gp)

000027c4 <inst_398>:
    27c4:	00000513          	li	a0,0
    27c8:	66754593          	xori	a1,a0,1639
    27cc:	5eb1a023          	sw	a1,1504(gp)

000027d0 <inst_399>:
    27d0:	00000513          	li	a0,0
    27d4:	fd454593          	xori	a1,a0,-44
    27d8:	5eb1a223          	sw	a1,1508(gp)

000027dc <inst_400>:
    27dc:	00000513          	li	a0,0
    27e0:	02e54593          	xori	a1,a0,46
    27e4:	5eb1a423          	sw	a1,1512(gp)

000027e8 <inst_401>:
    27e8:	00400513          	li	a0,4
    27ec:	00354593          	xori	a1,a0,3
    27f0:	5eb1a623          	sw	a1,1516(gp)

000027f4 <inst_402>:
    27f4:	00400513          	li	a0,4
    27f8:	55554593          	xori	a1,a0,1365
    27fc:	5eb1a823          	sw	a1,1520(gp)

00002800 <inst_403>:
    2800:	00400513          	li	a0,4
    2804:	aaa54593          	xori	a1,a0,-1366
    2808:	5eb1aa23          	sw	a1,1524(gp)

0000280c <inst_404>:
    280c:	00400513          	li	a0,4
    2810:	00554593          	xori	a1,a0,5
    2814:	5eb1ac23          	sw	a1,1528(gp)

00002818 <inst_405>:
    2818:	00400513          	li	a0,4
    281c:	33354593          	xori	a1,a0,819
    2820:	5eb1ae23          	sw	a1,1532(gp)

00002824 <inst_406>:
    2824:	00400513          	li	a0,4
    2828:	66654593          	xori	a1,a0,1638
    282c:	60b1a023          	sw	a1,1536(gp)

00002830 <inst_407>:
    2830:	00400513          	li	a0,4
    2834:	fd354593          	xori	a1,a0,-45
    2838:	60b1a223          	sw	a1,1540(gp)

0000283c <inst_408>:
    283c:	00400513          	li	a0,4
    2840:	02d54593          	xori	a1,a0,45
    2844:	60b1a423          	sw	a1,1544(gp)

00002848 <inst_409>:
    2848:	00400513          	li	a0,4
    284c:	00254593          	xori	a1,a0,2
    2850:	60b1a623          	sw	a1,1548(gp)

00002854 <inst_410>:
    2854:	00400513          	li	a0,4
    2858:	55454593          	xori	a1,a0,1364
    285c:	60b1a823          	sw	a1,1552(gp)

00002860 <inst_411>:
    2860:	00400513          	li	a0,4
    2864:	00454593          	xori	a1,a0,4
    2868:	60b1aa23          	sw	a1,1556(gp)

0000286c <inst_412>:
    286c:	00400513          	li	a0,4
    2870:	33254593          	xori	a1,a0,818
    2874:	60b1ac23          	sw	a1,1560(gp)

00002878 <inst_413>:
    2878:	00400513          	li	a0,4
    287c:	66554593          	xori	a1,a0,1637
    2880:	60b1ae23          	sw	a1,1564(gp)

00002884 <inst_414>:
    2884:	00400513          	li	a0,4
    2888:	02c54593          	xori	a1,a0,44
    288c:	62b1a023          	sw	a1,1568(gp)

00002890 <inst_415>:
    2890:	00400513          	li	a0,4
    2894:	55654593          	xori	a1,a0,1366
    2898:	62b1a223          	sw	a1,1572(gp)

0000289c <inst_416>:
    289c:	00400513          	li	a0,4
    28a0:	aab54593          	xori	a1,a0,-1365
    28a4:	62b1a423          	sw	a1,1576(gp)

000028a8 <inst_417>:
    28a8:	00400513          	li	a0,4
    28ac:	00654593          	xori	a1,a0,6
    28b0:	62b1a623          	sw	a1,1580(gp)

000028b4 <inst_418>:
    28b4:	00400513          	li	a0,4
    28b8:	33454593          	xori	a1,a0,820
    28bc:	62b1a823          	sw	a1,1584(gp)

000028c0 <inst_419>:
    28c0:	00400513          	li	a0,4
    28c4:	66754593          	xori	a1,a0,1639
    28c8:	62b1aa23          	sw	a1,1588(gp)

000028cc <inst_420>:
    28cc:	00400513          	li	a0,4
    28d0:	fd454593          	xori	a1,a0,-44
    28d4:	62b1ac23          	sw	a1,1592(gp)

000028d8 <inst_421>:
    28d8:	00400513          	li	a0,4
    28dc:	02e54593          	xori	a1,a0,46
    28e0:	62b1ae23          	sw	a1,1596(gp)

000028e4 <inst_422>:
    28e4:	33333537          	lui	a0,0x33333
    28e8:	33250513          	addi	a0,a0,818 # 33333332 <_end+0x3332e32e>
    28ec:	00354593          	xori	a1,a0,3
    28f0:	64b1a023          	sw	a1,1600(gp)

000028f4 <inst_423>:
    28f4:	33333537          	lui	a0,0x33333
    28f8:	33250513          	addi	a0,a0,818 # 33333332 <_end+0x3332e32e>
    28fc:	55554593          	xori	a1,a0,1365
    2900:	64b1a223          	sw	a1,1604(gp)

00002904 <inst_424>:
    2904:	33333537          	lui	a0,0x33333
    2908:	33250513          	addi	a0,a0,818 # 33333332 <_end+0x3332e32e>
    290c:	aaa54593          	xori	a1,a0,-1366
    2910:	64b1a423          	sw	a1,1608(gp)

00002914 <inst_425>:
    2914:	33333537          	lui	a0,0x33333
    2918:	33250513          	addi	a0,a0,818 # 33333332 <_end+0x3332e32e>
    291c:	00554593          	xori	a1,a0,5
    2920:	64b1a623          	sw	a1,1612(gp)

00002924 <inst_426>:
    2924:	33333537          	lui	a0,0x33333
    2928:	33250513          	addi	a0,a0,818 # 33333332 <_end+0x3332e32e>
    292c:	33354593          	xori	a1,a0,819
    2930:	64b1a823          	sw	a1,1616(gp)

00002934 <inst_427>:
    2934:	33333537          	lui	a0,0x33333
    2938:	33250513          	addi	a0,a0,818 # 33333332 <_end+0x3332e32e>
    293c:	66654593          	xori	a1,a0,1638
    2940:	64b1aa23          	sw	a1,1620(gp)

00002944 <inst_428>:
    2944:	33333537          	lui	a0,0x33333
    2948:	33250513          	addi	a0,a0,818 # 33333332 <_end+0x3332e32e>
    294c:	fd354593          	xori	a1,a0,-45
    2950:	64b1ac23          	sw	a1,1624(gp)

00002954 <inst_429>:
    2954:	33333537          	lui	a0,0x33333
    2958:	33250513          	addi	a0,a0,818 # 33333332 <_end+0x3332e32e>
    295c:	02d54593          	xori	a1,a0,45
    2960:	64b1ae23          	sw	a1,1628(gp)

00002964 <inst_430>:
    2964:	33333537          	lui	a0,0x33333
    2968:	33250513          	addi	a0,a0,818 # 33333332 <_end+0x3332e32e>
    296c:	00254593          	xori	a1,a0,2
    2970:	66b1a023          	sw	a1,1632(gp)

00002974 <inst_431>:
    2974:	33333537          	lui	a0,0x33333
    2978:	33250513          	addi	a0,a0,818 # 33333332 <_end+0x3332e32e>
    297c:	55454593          	xori	a1,a0,1364
    2980:	66b1a223          	sw	a1,1636(gp)

00002984 <inst_432>:
    2984:	33333537          	lui	a0,0x33333
    2988:	33250513          	addi	a0,a0,818 # 33333332 <_end+0x3332e32e>
    298c:	00054593          	xori	a1,a0,0
    2990:	66b1a423          	sw	a1,1640(gp)

00002994 <inst_433>:
    2994:	33333537          	lui	a0,0x33333
    2998:	33250513          	addi	a0,a0,818 # 33333332 <_end+0x3332e32e>
    299c:	00454593          	xori	a1,a0,4
    29a0:	66b1a623          	sw	a1,1644(gp)

000029a4 <inst_434>:
    29a4:	33333537          	lui	a0,0x33333
    29a8:	33250513          	addi	a0,a0,818 # 33333332 <_end+0x3332e32e>
    29ac:	33254593          	xori	a1,a0,818
    29b0:	66b1a823          	sw	a1,1648(gp)

000029b4 <inst_435>:
    29b4:	33333537          	lui	a0,0x33333
    29b8:	33250513          	addi	a0,a0,818 # 33333332 <_end+0x3332e32e>
    29bc:	66554593          	xori	a1,a0,1637
    29c0:	66b1aa23          	sw	a1,1652(gp)

000029c4 <inst_436>:
    29c4:	33333537          	lui	a0,0x33333
    29c8:	33250513          	addi	a0,a0,818 # 33333332 <_end+0x3332e32e>
    29cc:	02c54593          	xori	a1,a0,44
    29d0:	66b1ac23          	sw	a1,1656(gp)

000029d4 <inst_437>:
    29d4:	33333537          	lui	a0,0x33333
    29d8:	33250513          	addi	a0,a0,818 # 33333332 <_end+0x3332e32e>
    29dc:	55654593          	xori	a1,a0,1366
    29e0:	66b1ae23          	sw	a1,1660(gp)

000029e4 <inst_438>:
    29e4:	33333537          	lui	a0,0x33333
    29e8:	33250513          	addi	a0,a0,818 # 33333332 <_end+0x3332e32e>
    29ec:	aab54593          	xori	a1,a0,-1365
    29f0:	68b1a023          	sw	a1,1664(gp)

000029f4 <inst_439>:
    29f4:	33333537          	lui	a0,0x33333
    29f8:	33250513          	addi	a0,a0,818 # 33333332 <_end+0x3332e32e>
    29fc:	00654593          	xori	a1,a0,6
    2a00:	68b1a223          	sw	a1,1668(gp)

00002a04 <inst_440>:
    2a04:	33333537          	lui	a0,0x33333
    2a08:	33250513          	addi	a0,a0,818 # 33333332 <_end+0x3332e32e>
    2a0c:	33454593          	xori	a1,a0,820
    2a10:	68b1a423          	sw	a1,1672(gp)

00002a14 <inst_441>:
    2a14:	33333537          	lui	a0,0x33333
    2a18:	33250513          	addi	a0,a0,818 # 33333332 <_end+0x3332e32e>
    2a1c:	66754593          	xori	a1,a0,1639
    2a20:	68b1a623          	sw	a1,1676(gp)

00002a24 <inst_442>:
    2a24:	33333537          	lui	a0,0x33333
    2a28:	33250513          	addi	a0,a0,818 # 33333332 <_end+0x3332e32e>
    2a2c:	fd454593          	xori	a1,a0,-44
    2a30:	68b1a823          	sw	a1,1680(gp)

00002a34 <inst_443>:
    2a34:	33333537          	lui	a0,0x33333
    2a38:	33250513          	addi	a0,a0,818 # 33333332 <_end+0x3332e32e>
    2a3c:	02e54593          	xori	a1,a0,46
    2a40:	68b1aa23          	sw	a1,1684(gp)

00002a44 <inst_444>:
    2a44:	66666537          	lui	a0,0x66666
    2a48:	66550513          	addi	a0,a0,1637 # 66666665 <_end+0x66661661>
    2a4c:	00354593          	xori	a1,a0,3
    2a50:	68b1ac23          	sw	a1,1688(gp)

00002a54 <inst_445>:
    2a54:	66666537          	lui	a0,0x66666
    2a58:	66550513          	addi	a0,a0,1637 # 66666665 <_end+0x66661661>
    2a5c:	55554593          	xori	a1,a0,1365
    2a60:	68b1ae23          	sw	a1,1692(gp)

00002a64 <inst_446>:
    2a64:	66666537          	lui	a0,0x66666
    2a68:	66550513          	addi	a0,a0,1637 # 66666665 <_end+0x66661661>
    2a6c:	aaa54593          	xori	a1,a0,-1366
    2a70:	6ab1a023          	sw	a1,1696(gp)

00002a74 <inst_447>:
    2a74:	66666537          	lui	a0,0x66666
    2a78:	66550513          	addi	a0,a0,1637 # 66666665 <_end+0x66661661>
    2a7c:	00554593          	xori	a1,a0,5
    2a80:	6ab1a223          	sw	a1,1700(gp)

00002a84 <inst_448>:
    2a84:	66666537          	lui	a0,0x66666
    2a88:	66550513          	addi	a0,a0,1637 # 66666665 <_end+0x66661661>
    2a8c:	33354593          	xori	a1,a0,819
    2a90:	6ab1a423          	sw	a1,1704(gp)

00002a94 <inst_449>:
    2a94:	66666537          	lui	a0,0x66666
    2a98:	66550513          	addi	a0,a0,1637 # 66666665 <_end+0x66661661>
    2a9c:	66654593          	xori	a1,a0,1638
    2aa0:	6ab1a623          	sw	a1,1708(gp)

00002aa4 <inst_450>:
    2aa4:	66666537          	lui	a0,0x66666
    2aa8:	66550513          	addi	a0,a0,1637 # 66666665 <_end+0x66661661>
    2aac:	fd354593          	xori	a1,a0,-45
    2ab0:	6ab1a823          	sw	a1,1712(gp)

00002ab4 <inst_451>:
    2ab4:	66666537          	lui	a0,0x66666
    2ab8:	66550513          	addi	a0,a0,1637 # 66666665 <_end+0x66661661>
    2abc:	02d54593          	xori	a1,a0,45
    2ac0:	6ab1aa23          	sw	a1,1716(gp)

00002ac4 <inst_452>:
    2ac4:	66666537          	lui	a0,0x66666
    2ac8:	66550513          	addi	a0,a0,1637 # 66666665 <_end+0x66661661>
    2acc:	00254593          	xori	a1,a0,2
    2ad0:	6ab1ac23          	sw	a1,1720(gp)

00002ad4 <inst_453>:
    2ad4:	66666537          	lui	a0,0x66666
    2ad8:	66550513          	addi	a0,a0,1637 # 66666665 <_end+0x66661661>
    2adc:	55454593          	xori	a1,a0,1364
    2ae0:	6ab1ae23          	sw	a1,1724(gp)

00002ae4 <inst_454>:
    2ae4:	66666537          	lui	a0,0x66666
    2ae8:	66550513          	addi	a0,a0,1637 # 66666665 <_end+0x66661661>
    2aec:	00054593          	xori	a1,a0,0
    2af0:	6cb1a023          	sw	a1,1728(gp)

00002af4 <inst_455>:
    2af4:	66666537          	lui	a0,0x66666
    2af8:	66550513          	addi	a0,a0,1637 # 66666665 <_end+0x66661661>
    2afc:	00454593          	xori	a1,a0,4
    2b00:	6cb1a223          	sw	a1,1732(gp)

00002b04 <inst_456>:
    2b04:	66666537          	lui	a0,0x66666
    2b08:	66550513          	addi	a0,a0,1637 # 66666665 <_end+0x66661661>
    2b0c:	33254593          	xori	a1,a0,818
    2b10:	6cb1a423          	sw	a1,1736(gp)

00002b14 <inst_457>:
    2b14:	66666537          	lui	a0,0x66666
    2b18:	66550513          	addi	a0,a0,1637 # 66666665 <_end+0x66661661>
    2b1c:	66554593          	xori	a1,a0,1637
    2b20:	6cb1a623          	sw	a1,1740(gp)

00002b24 <inst_458>:
    2b24:	66666537          	lui	a0,0x66666
    2b28:	66550513          	addi	a0,a0,1637 # 66666665 <_end+0x66661661>
    2b2c:	02c54593          	xori	a1,a0,44
    2b30:	6cb1a823          	sw	a1,1744(gp)

00002b34 <inst_459>:
    2b34:	66666537          	lui	a0,0x66666
    2b38:	66550513          	addi	a0,a0,1637 # 66666665 <_end+0x66661661>
    2b3c:	55654593          	xori	a1,a0,1366
    2b40:	6cb1aa23          	sw	a1,1748(gp)

00002b44 <inst_460>:
    2b44:	66666537          	lui	a0,0x66666
    2b48:	66550513          	addi	a0,a0,1637 # 66666665 <_end+0x66661661>
    2b4c:	aab54593          	xori	a1,a0,-1365
    2b50:	6cb1ac23          	sw	a1,1752(gp)

00002b54 <inst_461>:
    2b54:	66666537          	lui	a0,0x66666
    2b58:	66550513          	addi	a0,a0,1637 # 66666665 <_end+0x66661661>
    2b5c:	00654593          	xori	a1,a0,6
    2b60:	6cb1ae23          	sw	a1,1756(gp)

00002b64 <inst_462>:
    2b64:	66666537          	lui	a0,0x66666
    2b68:	66550513          	addi	a0,a0,1637 # 66666665 <_end+0x66661661>
    2b6c:	33454593          	xori	a1,a0,820
    2b70:	6eb1a023          	sw	a1,1760(gp)

00002b74 <inst_463>:
    2b74:	66666537          	lui	a0,0x66666
    2b78:	66550513          	addi	a0,a0,1637 # 66666665 <_end+0x66661661>
    2b7c:	66754593          	xori	a1,a0,1639
    2b80:	6eb1a223          	sw	a1,1764(gp)

00002b84 <inst_464>:
    2b84:	66666537          	lui	a0,0x66666
    2b88:	66550513          	addi	a0,a0,1637 # 66666665 <_end+0x66661661>
    2b8c:	fd454593          	xori	a1,a0,-44
    2b90:	6eb1a423          	sw	a1,1768(gp)

00002b94 <inst_465>:
    2b94:	66666537          	lui	a0,0x66666
    2b98:	66550513          	addi	a0,a0,1637 # 66666665 <_end+0x66661661>
    2b9c:	02e54593          	xori	a1,a0,46
    2ba0:	6eb1a623          	sw	a1,1772(gp)

00002ba4 <inst_466>:
    2ba4:	0000b537          	lui	a0,0xb
    2ba8:	50350513          	addi	a0,a0,1283 # b503 <_end+0x64ff>
    2bac:	00354593          	xori	a1,a0,3
    2bb0:	6eb1a823          	sw	a1,1776(gp)

00002bb4 <inst_467>:
    2bb4:	0000b537          	lui	a0,0xb
    2bb8:	50350513          	addi	a0,a0,1283 # b503 <_end+0x64ff>
    2bbc:	55554593          	xori	a1,a0,1365
    2bc0:	6eb1aa23          	sw	a1,1780(gp)

00002bc4 <inst_468>:
    2bc4:	0000b537          	lui	a0,0xb
    2bc8:	50350513          	addi	a0,a0,1283 # b503 <_end+0x64ff>
    2bcc:	aaa54593          	xori	a1,a0,-1366
    2bd0:	6eb1ac23          	sw	a1,1784(gp)

00002bd4 <inst_469>:
    2bd4:	0000b537          	lui	a0,0xb
    2bd8:	50350513          	addi	a0,a0,1283 # b503 <_end+0x64ff>
    2bdc:	00554593          	xori	a1,a0,5
    2be0:	6eb1ae23          	sw	a1,1788(gp)

00002be4 <inst_470>:
    2be4:	0000b537          	lui	a0,0xb
    2be8:	50350513          	addi	a0,a0,1283 # b503 <_end+0x64ff>
    2bec:	33354593          	xori	a1,a0,819
    2bf0:	70b1a023          	sw	a1,1792(gp)

00002bf4 <inst_471>:
    2bf4:	0000b537          	lui	a0,0xb
    2bf8:	50350513          	addi	a0,a0,1283 # b503 <_end+0x64ff>
    2bfc:	66654593          	xori	a1,a0,1638
    2c00:	70b1a223          	sw	a1,1796(gp)

00002c04 <inst_472>:
    2c04:	0000b537          	lui	a0,0xb
    2c08:	50350513          	addi	a0,a0,1283 # b503 <_end+0x64ff>
    2c0c:	fd354593          	xori	a1,a0,-45
    2c10:	70b1a423          	sw	a1,1800(gp)

00002c14 <inst_473>:
    2c14:	0000b537          	lui	a0,0xb
    2c18:	50350513          	addi	a0,a0,1283 # b503 <_end+0x64ff>
    2c1c:	02d54593          	xori	a1,a0,45
    2c20:	70b1a623          	sw	a1,1804(gp)

00002c24 <inst_474>:
    2c24:	0000b537          	lui	a0,0xb
    2c28:	50350513          	addi	a0,a0,1283 # b503 <_end+0x64ff>
    2c2c:	00254593          	xori	a1,a0,2
    2c30:	70b1a823          	sw	a1,1808(gp)

00002c34 <inst_475>:
    2c34:	0000b537          	lui	a0,0xb
    2c38:	50350513          	addi	a0,a0,1283 # b503 <_end+0x64ff>
    2c3c:	55454593          	xori	a1,a0,1364
    2c40:	70b1aa23          	sw	a1,1812(gp)

00002c44 <inst_476>:
    2c44:	0000b537          	lui	a0,0xb
    2c48:	50350513          	addi	a0,a0,1283 # b503 <_end+0x64ff>
    2c4c:	00054593          	xori	a1,a0,0
    2c50:	70b1ac23          	sw	a1,1816(gp)

00002c54 <inst_477>:
    2c54:	0000b537          	lui	a0,0xb
    2c58:	50350513          	addi	a0,a0,1283 # b503 <_end+0x64ff>
    2c5c:	00454593          	xori	a1,a0,4
    2c60:	70b1ae23          	sw	a1,1820(gp)

00002c64 <inst_478>:
    2c64:	0000b537          	lui	a0,0xb
    2c68:	50350513          	addi	a0,a0,1283 # b503 <_end+0x64ff>
    2c6c:	33254593          	xori	a1,a0,818
    2c70:	72b1a023          	sw	a1,1824(gp)

00002c74 <inst_479>:
    2c74:	0000b537          	lui	a0,0xb
    2c78:	50350513          	addi	a0,a0,1283 # b503 <_end+0x64ff>
    2c7c:	66554593          	xori	a1,a0,1637
    2c80:	72b1a223          	sw	a1,1828(gp)

00002c84 <inst_480>:
    2c84:	0000b537          	lui	a0,0xb
    2c88:	50350513          	addi	a0,a0,1283 # b503 <_end+0x64ff>
    2c8c:	02c54593          	xori	a1,a0,44
    2c90:	72b1a423          	sw	a1,1832(gp)

00002c94 <inst_481>:
    2c94:	0000b537          	lui	a0,0xb
    2c98:	50350513          	addi	a0,a0,1283 # b503 <_end+0x64ff>
    2c9c:	55654593          	xori	a1,a0,1366
    2ca0:	72b1a623          	sw	a1,1836(gp)

00002ca4 <inst_482>:
    2ca4:	0000b537          	lui	a0,0xb
    2ca8:	50350513          	addi	a0,a0,1283 # b503 <_end+0x64ff>
    2cac:	aab54593          	xori	a1,a0,-1365
    2cb0:	72b1a823          	sw	a1,1840(gp)

00002cb4 <inst_483>:
    2cb4:	0000b537          	lui	a0,0xb
    2cb8:	50350513          	addi	a0,a0,1283 # b503 <_end+0x64ff>
    2cbc:	00654593          	xori	a1,a0,6
    2cc0:	72b1aa23          	sw	a1,1844(gp)

00002cc4 <inst_484>:
    2cc4:	0000b537          	lui	a0,0xb
    2cc8:	50350513          	addi	a0,a0,1283 # b503 <_end+0x64ff>
    2ccc:	33454593          	xori	a1,a0,820
    2cd0:	72b1ac23          	sw	a1,1848(gp)

00002cd4 <inst_485>:
    2cd4:	0000b537          	lui	a0,0xb
    2cd8:	50350513          	addi	a0,a0,1283 # b503 <_end+0x64ff>
    2cdc:	66754593          	xori	a1,a0,1639
    2ce0:	72b1ae23          	sw	a1,1852(gp)

00002ce4 <inst_486>:
    2ce4:	0000b537          	lui	a0,0xb
    2ce8:	50350513          	addi	a0,a0,1283 # b503 <_end+0x64ff>
    2cec:	fd454593          	xori	a1,a0,-44
    2cf0:	74b1a023          	sw	a1,1856(gp)

00002cf4 <inst_487>:
    2cf4:	0000b537          	lui	a0,0xb
    2cf8:	50350513          	addi	a0,a0,1283 # b503 <_end+0x64ff>
    2cfc:	02e54593          	xori	a1,a0,46
    2d00:	74b1a223          	sw	a1,1860(gp)

00002d04 <inst_488>:
    2d04:	55555537          	lui	a0,0x55555
    2d08:	55650513          	addi	a0,a0,1366 # 55555556 <_end+0x55550552>
    2d0c:	00354593          	xori	a1,a0,3
    2d10:	74b1a423          	sw	a1,1864(gp)

00002d14 <inst_489>:
    2d14:	55555537          	lui	a0,0x55555
    2d18:	55650513          	addi	a0,a0,1366 # 55555556 <_end+0x55550552>
    2d1c:	55554593          	xori	a1,a0,1365
    2d20:	74b1a623          	sw	a1,1868(gp)

00002d24 <inst_490>:
    2d24:	55555537          	lui	a0,0x55555
    2d28:	55650513          	addi	a0,a0,1366 # 55555556 <_end+0x55550552>
    2d2c:	aaa54593          	xori	a1,a0,-1366
    2d30:	74b1a823          	sw	a1,1872(gp)

00002d34 <inst_491>:
    2d34:	55555537          	lui	a0,0x55555
    2d38:	55650513          	addi	a0,a0,1366 # 55555556 <_end+0x55550552>
    2d3c:	00554593          	xori	a1,a0,5
    2d40:	74b1aa23          	sw	a1,1876(gp)

00002d44 <inst_492>:
    2d44:	55555537          	lui	a0,0x55555
    2d48:	55650513          	addi	a0,a0,1366 # 55555556 <_end+0x55550552>
    2d4c:	33354593          	xori	a1,a0,819
    2d50:	74b1ac23          	sw	a1,1880(gp)

00002d54 <inst_493>:
    2d54:	55555537          	lui	a0,0x55555
    2d58:	55650513          	addi	a0,a0,1366 # 55555556 <_end+0x55550552>
    2d5c:	66654593          	xori	a1,a0,1638
    2d60:	74b1ae23          	sw	a1,1884(gp)

00002d64 <inst_494>:
    2d64:	55555537          	lui	a0,0x55555
    2d68:	55650513          	addi	a0,a0,1366 # 55555556 <_end+0x55550552>
    2d6c:	fd354593          	xori	a1,a0,-45
    2d70:	76b1a023          	sw	a1,1888(gp)

00002d74 <inst_495>:
    2d74:	55555537          	lui	a0,0x55555
    2d78:	55650513          	addi	a0,a0,1366 # 55555556 <_end+0x55550552>
    2d7c:	02d54593          	xori	a1,a0,45
    2d80:	76b1a223          	sw	a1,1892(gp)

00002d84 <inst_496>:
    2d84:	55555537          	lui	a0,0x55555
    2d88:	55650513          	addi	a0,a0,1366 # 55555556 <_end+0x55550552>
    2d8c:	00254593          	xori	a1,a0,2
    2d90:	76b1a423          	sw	a1,1896(gp)

00002d94 <inst_497>:
    2d94:	55555537          	lui	a0,0x55555
    2d98:	55650513          	addi	a0,a0,1366 # 55555556 <_end+0x55550552>
    2d9c:	55454593          	xori	a1,a0,1364
    2da0:	76b1a623          	sw	a1,1900(gp)

00002da4 <inst_498>:
    2da4:	55555537          	lui	a0,0x55555
    2da8:	55650513          	addi	a0,a0,1366 # 55555556 <_end+0x55550552>
    2dac:	00054593          	xori	a1,a0,0
    2db0:	76b1a823          	sw	a1,1904(gp)

00002db4 <inst_499>:
    2db4:	55555537          	lui	a0,0x55555
    2db8:	55650513          	addi	a0,a0,1366 # 55555556 <_end+0x55550552>
    2dbc:	00454593          	xori	a1,a0,4
    2dc0:	76b1aa23          	sw	a1,1908(gp)

00002dc4 <inst_500>:
    2dc4:	55555537          	lui	a0,0x55555
    2dc8:	55650513          	addi	a0,a0,1366 # 55555556 <_end+0x55550552>
    2dcc:	33254593          	xori	a1,a0,818
    2dd0:	76b1ac23          	sw	a1,1912(gp)

00002dd4 <inst_501>:
    2dd4:	55555537          	lui	a0,0x55555
    2dd8:	55650513          	addi	a0,a0,1366 # 55555556 <_end+0x55550552>
    2ddc:	66554593          	xori	a1,a0,1637
    2de0:	76b1ae23          	sw	a1,1916(gp)

00002de4 <inst_502>:
    2de4:	55555537          	lui	a0,0x55555
    2de8:	55650513          	addi	a0,a0,1366 # 55555556 <_end+0x55550552>
    2dec:	02c54593          	xori	a1,a0,44
    2df0:	78b1a023          	sw	a1,1920(gp)

00002df4 <inst_503>:
    2df4:	55555537          	lui	a0,0x55555
    2df8:	55650513          	addi	a0,a0,1366 # 55555556 <_end+0x55550552>
    2dfc:	55654593          	xori	a1,a0,1366
    2e00:	78b1a223          	sw	a1,1924(gp)

00002e04 <inst_504>:
    2e04:	55555537          	lui	a0,0x55555
    2e08:	55650513          	addi	a0,a0,1366 # 55555556 <_end+0x55550552>
    2e0c:	aab54593          	xori	a1,a0,-1365
    2e10:	78b1a423          	sw	a1,1928(gp)

00002e14 <inst_505>:
    2e14:	55555537          	lui	a0,0x55555
    2e18:	55650513          	addi	a0,a0,1366 # 55555556 <_end+0x55550552>
    2e1c:	00654593          	xori	a1,a0,6
    2e20:	78b1a623          	sw	a1,1932(gp)

00002e24 <inst_506>:
    2e24:	55555537          	lui	a0,0x55555
    2e28:	55650513          	addi	a0,a0,1366 # 55555556 <_end+0x55550552>
    2e2c:	33454593          	xori	a1,a0,820
    2e30:	78b1a823          	sw	a1,1936(gp)

00002e34 <inst_507>:
    2e34:	55555537          	lui	a0,0x55555
    2e38:	55650513          	addi	a0,a0,1366 # 55555556 <_end+0x55550552>
    2e3c:	66754593          	xori	a1,a0,1639
    2e40:	78b1aa23          	sw	a1,1940(gp)

00002e44 <inst_508>:
    2e44:	55555537          	lui	a0,0x55555
    2e48:	55650513          	addi	a0,a0,1366 # 55555556 <_end+0x55550552>
    2e4c:	fd454593          	xori	a1,a0,-44
    2e50:	78b1ac23          	sw	a1,1944(gp)

00002e54 <inst_509>:
    2e54:	55555537          	lui	a0,0x55555
    2e58:	55650513          	addi	a0,a0,1366 # 55555556 <_end+0x55550552>
    2e5c:	02e54593          	xori	a1,a0,46
    2e60:	78b1ae23          	sw	a1,1948(gp)

00002e64 <inst_510>:
    2e64:	aaaab537          	lui	a0,0xaaaab
    2e68:	aab50513          	addi	a0,a0,-1365 # aaaaaaab <_end+0xaaaa5aa7>
    2e6c:	00354593          	xori	a1,a0,3
    2e70:	7ab1a023          	sw	a1,1952(gp)

00002e74 <inst_511>:
    2e74:	aaaab537          	lui	a0,0xaaaab
    2e78:	aab50513          	addi	a0,a0,-1365 # aaaaaaab <_end+0xaaaa5aa7>
    2e7c:	55554593          	xori	a1,a0,1365
    2e80:	7ab1a223          	sw	a1,1956(gp)

00002e84 <inst_512>:
    2e84:	aaaab537          	lui	a0,0xaaaab
    2e88:	aab50513          	addi	a0,a0,-1365 # aaaaaaab <_end+0xaaaa5aa7>
    2e8c:	aaa54593          	xori	a1,a0,-1366
    2e90:	7ab1a423          	sw	a1,1960(gp)

00002e94 <inst_513>:
    2e94:	aaaab537          	lui	a0,0xaaaab
    2e98:	aab50513          	addi	a0,a0,-1365 # aaaaaaab <_end+0xaaaa5aa7>
    2e9c:	00554593          	xori	a1,a0,5
    2ea0:	7ab1a623          	sw	a1,1964(gp)

00002ea4 <inst_514>:
    2ea4:	aaaab537          	lui	a0,0xaaaab
    2ea8:	aab50513          	addi	a0,a0,-1365 # aaaaaaab <_end+0xaaaa5aa7>
    2eac:	33354593          	xori	a1,a0,819
    2eb0:	7ab1a823          	sw	a1,1968(gp)

00002eb4 <inst_515>:
    2eb4:	aaaab537          	lui	a0,0xaaaab
    2eb8:	aab50513          	addi	a0,a0,-1365 # aaaaaaab <_end+0xaaaa5aa7>
    2ebc:	66654593          	xori	a1,a0,1638
    2ec0:	7ab1aa23          	sw	a1,1972(gp)

00002ec4 <inst_516>:
    2ec4:	aaaab537          	lui	a0,0xaaaab
    2ec8:	aab50513          	addi	a0,a0,-1365 # aaaaaaab <_end+0xaaaa5aa7>
    2ecc:	fd354593          	xori	a1,a0,-45
    2ed0:	7ab1ac23          	sw	a1,1976(gp)

00002ed4 <inst_517>:
    2ed4:	aaaab537          	lui	a0,0xaaaab
    2ed8:	aab50513          	addi	a0,a0,-1365 # aaaaaaab <_end+0xaaaa5aa7>
    2edc:	02d54593          	xori	a1,a0,45
    2ee0:	7ab1ae23          	sw	a1,1980(gp)

00002ee4 <inst_518>:
    2ee4:	aaaab537          	lui	a0,0xaaaab
    2ee8:	aab50513          	addi	a0,a0,-1365 # aaaaaaab <_end+0xaaaa5aa7>
    2eec:	00254593          	xori	a1,a0,2
    2ef0:	7cb1a023          	sw	a1,1984(gp)

00002ef4 <inst_519>:
    2ef4:	aaaab537          	lui	a0,0xaaaab
    2ef8:	aab50513          	addi	a0,a0,-1365 # aaaaaaab <_end+0xaaaa5aa7>
    2efc:	55454593          	xori	a1,a0,1364
    2f00:	7cb1a223          	sw	a1,1988(gp)

00002f04 <inst_520>:
    2f04:	aaaab537          	lui	a0,0xaaaab
    2f08:	aab50513          	addi	a0,a0,-1365 # aaaaaaab <_end+0xaaaa5aa7>
    2f0c:	00054593          	xori	a1,a0,0
    2f10:	7cb1a423          	sw	a1,1992(gp)

00002f14 <inst_521>:
    2f14:	aaaab537          	lui	a0,0xaaaab
    2f18:	aab50513          	addi	a0,a0,-1365 # aaaaaaab <_end+0xaaaa5aa7>
    2f1c:	00454593          	xori	a1,a0,4
    2f20:	7cb1a623          	sw	a1,1996(gp)

00002f24 <inst_522>:
    2f24:	aaaab537          	lui	a0,0xaaaab
    2f28:	aab50513          	addi	a0,a0,-1365 # aaaaaaab <_end+0xaaaa5aa7>
    2f2c:	33254593          	xori	a1,a0,818
    2f30:	7cb1a823          	sw	a1,2000(gp)

00002f34 <inst_523>:
    2f34:	aaaab537          	lui	a0,0xaaaab
    2f38:	aab50513          	addi	a0,a0,-1365 # aaaaaaab <_end+0xaaaa5aa7>
    2f3c:	66554593          	xori	a1,a0,1637
    2f40:	7cb1aa23          	sw	a1,2004(gp)

00002f44 <inst_524>:
    2f44:	aaaab537          	lui	a0,0xaaaab
    2f48:	aab50513          	addi	a0,a0,-1365 # aaaaaaab <_end+0xaaaa5aa7>
    2f4c:	02c54593          	xori	a1,a0,44
    2f50:	7cb1ac23          	sw	a1,2008(gp)

00002f54 <inst_525>:
    2f54:	aaaab537          	lui	a0,0xaaaab
    2f58:	aab50513          	addi	a0,a0,-1365 # aaaaaaab <_end+0xaaaa5aa7>
    2f5c:	55654593          	xori	a1,a0,1366
    2f60:	7cb1ae23          	sw	a1,2012(gp)

00002f64 <inst_526>:
    2f64:	aaaab537          	lui	a0,0xaaaab
    2f68:	aab50513          	addi	a0,a0,-1365 # aaaaaaab <_end+0xaaaa5aa7>
    2f6c:	aab54593          	xori	a1,a0,-1365
    2f70:	7eb1a023          	sw	a1,2016(gp)

00002f74 <inst_527>:
    2f74:	aaaab537          	lui	a0,0xaaaab
    2f78:	aab50513          	addi	a0,a0,-1365 # aaaaaaab <_end+0xaaaa5aa7>
    2f7c:	00654593          	xori	a1,a0,6
    2f80:	7eb1a223          	sw	a1,2020(gp)

00002f84 <inst_528>:
    2f84:	aaaab537          	lui	a0,0xaaaab
    2f88:	aab50513          	addi	a0,a0,-1365 # aaaaaaab <_end+0xaaaa5aa7>
    2f8c:	33454593          	xori	a1,a0,820
    2f90:	7eb1a423          	sw	a1,2024(gp)

00002f94 <inst_529>:
    2f94:	aaaab537          	lui	a0,0xaaaab
    2f98:	aab50513          	addi	a0,a0,-1365 # aaaaaaab <_end+0xaaaa5aa7>
    2f9c:	66754593          	xori	a1,a0,1639
    2fa0:	7eb1a623          	sw	a1,2028(gp)

00002fa4 <inst_530>:
    2fa4:	aaaab537          	lui	a0,0xaaaab
    2fa8:	aab50513          	addi	a0,a0,-1365 # aaaaaaab <_end+0xaaaa5aa7>
    2fac:	fd454593          	xori	a1,a0,-44
    2fb0:	7eb1a823          	sw	a1,2032(gp)

00002fb4 <inst_531>:
    2fb4:	aaaab537          	lui	a0,0xaaaab
    2fb8:	aab50513          	addi	a0,a0,-1365 # aaaaaaab <_end+0xaaaa5aa7>
    2fbc:	02e54593          	xori	a1,a0,46
    2fc0:	7eb1aa23          	sw	a1,2036(gp)

00002fc4 <inst_532>:
    2fc4:	00600513          	li	a0,6
    2fc8:	00354593          	xori	a1,a0,3
    2fcc:	7eb1ac23          	sw	a1,2040(gp)

00002fd0 <inst_533>:
    2fd0:	00600513          	li	a0,6
    2fd4:	55554593          	xori	a1,a0,1365
    2fd8:	7eb1ae23          	sw	a1,2044(gp)
    2fdc:	00002197          	auipc	gp,0x2
    2fe0:	88c18193          	addi	gp,gp,-1908 # 4868 <signature_x3_1>

00002fe4 <inst_534>:
    2fe4:	00600513          	li	a0,6
    2fe8:	aaa54593          	xori	a1,a0,-1366
    2fec:	00b1a023          	sw	a1,0(gp)

00002ff0 <inst_535>:
    2ff0:	00600513          	li	a0,6
    2ff4:	00554593          	xori	a1,a0,5
    2ff8:	00b1a223          	sw	a1,4(gp)

00002ffc <inst_536>:
    2ffc:	00600513          	li	a0,6
    3000:	33354593          	xori	a1,a0,819
    3004:	00b1a423          	sw	a1,8(gp)

00003008 <inst_537>:
    3008:	00600513          	li	a0,6
    300c:	66654593          	xori	a1,a0,1638
    3010:	00b1a623          	sw	a1,12(gp)

00003014 <inst_538>:
    3014:	00600513          	li	a0,6
    3018:	fd354593          	xori	a1,a0,-45
    301c:	00b1a823          	sw	a1,16(gp)

00003020 <inst_539>:
    3020:	00600513          	li	a0,6
    3024:	02d54593          	xori	a1,a0,45
    3028:	00b1aa23          	sw	a1,20(gp)

0000302c <inst_540>:
    302c:	00600513          	li	a0,6
    3030:	00254593          	xori	a1,a0,2
    3034:	00b1ac23          	sw	a1,24(gp)

00003038 <inst_541>:
    3038:	00600513          	li	a0,6
    303c:	55454593          	xori	a1,a0,1364
    3040:	00b1ae23          	sw	a1,28(gp)

00003044 <inst_542>:
    3044:	00600513          	li	a0,6
    3048:	00054593          	xori	a1,a0,0
    304c:	02b1a023          	sw	a1,32(gp)

00003050 <inst_543>:
    3050:	00600513          	li	a0,6
    3054:	00454593          	xori	a1,a0,4
    3058:	02b1a223          	sw	a1,36(gp)

0000305c <inst_544>:
    305c:	00600513          	li	a0,6
    3060:	33254593          	xori	a1,a0,818
    3064:	02b1a423          	sw	a1,40(gp)

00003068 <inst_545>:
    3068:	00600513          	li	a0,6
    306c:	66554593          	xori	a1,a0,1637
    3070:	02b1a623          	sw	a1,44(gp)

00003074 <inst_546>:
    3074:	00600513          	li	a0,6
    3078:	02c54593          	xori	a1,a0,44
    307c:	02b1a823          	sw	a1,48(gp)

00003080 <inst_547>:
    3080:	00600513          	li	a0,6
    3084:	55654593          	xori	a1,a0,1366
    3088:	02b1aa23          	sw	a1,52(gp)

0000308c <inst_548>:
    308c:	00600513          	li	a0,6
    3090:	aab54593          	xori	a1,a0,-1365
    3094:	02b1ac23          	sw	a1,56(gp)

00003098 <inst_549>:
    3098:	00600513          	li	a0,6
    309c:	00654593          	xori	a1,a0,6
    30a0:	02b1ae23          	sw	a1,60(gp)

000030a4 <inst_550>:
    30a4:	00600513          	li	a0,6
    30a8:	33454593          	xori	a1,a0,820
    30ac:	04b1a023          	sw	a1,64(gp)

000030b0 <inst_551>:
    30b0:	00600513          	li	a0,6
    30b4:	66754593          	xori	a1,a0,1639
    30b8:	04b1a223          	sw	a1,68(gp)

000030bc <inst_552>:
    30bc:	00600513          	li	a0,6
    30c0:	fd454593          	xori	a1,a0,-44
    30c4:	04b1a423          	sw	a1,72(gp)

000030c8 <inst_553>:
    30c8:	00600513          	li	a0,6
    30cc:	02e54593          	xori	a1,a0,46
    30d0:	04b1a623          	sw	a1,76(gp)

000030d4 <inst_554>:
    30d4:	33333537          	lui	a0,0x33333
    30d8:	33450513          	addi	a0,a0,820 # 33333334 <_end+0x3332e330>
    30dc:	00354593          	xori	a1,a0,3
    30e0:	04b1a823          	sw	a1,80(gp)

000030e4 <inst_555>:
    30e4:	33333537          	lui	a0,0x33333
    30e8:	33450513          	addi	a0,a0,820 # 33333334 <_end+0x3332e330>
    30ec:	55554593          	xori	a1,a0,1365
    30f0:	04b1aa23          	sw	a1,84(gp)

000030f4 <inst_556>:
    30f4:	33333537          	lui	a0,0x33333
    30f8:	33450513          	addi	a0,a0,820 # 33333334 <_end+0x3332e330>
    30fc:	aaa54593          	xori	a1,a0,-1366
    3100:	04b1ac23          	sw	a1,88(gp)

00003104 <inst_557>:
    3104:	33333537          	lui	a0,0x33333
    3108:	33450513          	addi	a0,a0,820 # 33333334 <_end+0x3332e330>
    310c:	00554593          	xori	a1,a0,5
    3110:	04b1ae23          	sw	a1,92(gp)

00003114 <inst_558>:
    3114:	33333537          	lui	a0,0x33333
    3118:	33450513          	addi	a0,a0,820 # 33333334 <_end+0x3332e330>
    311c:	33354593          	xori	a1,a0,819
    3120:	06b1a023          	sw	a1,96(gp)

00003124 <inst_559>:
    3124:	33333537          	lui	a0,0x33333
    3128:	33450513          	addi	a0,a0,820 # 33333334 <_end+0x3332e330>
    312c:	66654593          	xori	a1,a0,1638
    3130:	06b1a223          	sw	a1,100(gp)

00003134 <inst_560>:
    3134:	33333537          	lui	a0,0x33333
    3138:	33450513          	addi	a0,a0,820 # 33333334 <_end+0x3332e330>
    313c:	fd354593          	xori	a1,a0,-45
    3140:	06b1a423          	sw	a1,104(gp)

00003144 <inst_561>:
    3144:	33333537          	lui	a0,0x33333
    3148:	33450513          	addi	a0,a0,820 # 33333334 <_end+0x3332e330>
    314c:	02d54593          	xori	a1,a0,45
    3150:	06b1a623          	sw	a1,108(gp)

00003154 <inst_562>:
    3154:	33333537          	lui	a0,0x33333
    3158:	33450513          	addi	a0,a0,820 # 33333334 <_end+0x3332e330>
    315c:	00254593          	xori	a1,a0,2
    3160:	06b1a823          	sw	a1,112(gp)

00003164 <inst_563>:
    3164:	33333537          	lui	a0,0x33333
    3168:	33450513          	addi	a0,a0,820 # 33333334 <_end+0x3332e330>
    316c:	55454593          	xori	a1,a0,1364
    3170:	06b1aa23          	sw	a1,116(gp)

00003174 <inst_564>:
    3174:	33333537          	lui	a0,0x33333
    3178:	33450513          	addi	a0,a0,820 # 33333334 <_end+0x3332e330>
    317c:	00054593          	xori	a1,a0,0
    3180:	06b1ac23          	sw	a1,120(gp)

00003184 <inst_565>:
    3184:	33333537          	lui	a0,0x33333
    3188:	33450513          	addi	a0,a0,820 # 33333334 <_end+0x3332e330>
    318c:	00454593          	xori	a1,a0,4
    3190:	06b1ae23          	sw	a1,124(gp)
    3194:	00000013          	nop
    3198:	00000013          	nop
    319c:	00000013          	nop

000031a0 <rvtest_code_end>:
    31a0:	babed0b7          	lui	ra,0xbabed
    31a4:	afe08093          	addi	ra,ra,-1282 # babecafe <_end+0xbabe7afa>

000031a8 <write_tohost>:
    31a8:	00002017          	auipc	zero,0x2
    31ac:	e4102c23          	sw	ra,-424(zero) # fffffe58 <_end+0xffffae54>

000031b0 <loop>:
    31b0:	0000006f          	j	31b0 <loop>
	...

Disassembly of section .data:

00004000 <rvtest_data_begin>:
    4000:	cafe                	sw	t6,84(sp)
    4002:	babe                	fsd	fa5,368(sp)

00004004 <rvtest_data_end>:
	...

00004010 <begin_signature>:
    4010:	deadbeef          	jal	t4,fffdf5fa <_end+0xfffda5f6>
    4014:	deadbeef          	jal	t4,fffdf5fe <_end+0xfffda5fa>
    4018:	deadbeef          	jal	t4,fffdf602 <_end+0xfffda5fe>
    401c:	deadbeef          	jal	t4,fffdf606 <_end+0xfffda602>
    4020:	deadbeef          	jal	t4,fffdf60a <_end+0xfffda606>
    4024:	deadbeef          	jal	t4,fffdf60e <_end+0xfffda60a>
    4028:	deadbeef          	jal	t4,fffdf612 <_end+0xfffda60e>
    402c:	deadbeef          	jal	t4,fffdf616 <_end+0xfffda612>
    4030:	deadbeef          	jal	t4,fffdf61a <_end+0xfffda616>
    4034:	deadbeef          	jal	t4,fffdf61e <_end+0xfffda61a>
    4038:	deadbeef          	jal	t4,fffdf622 <_end+0xfffda61e>
    403c:	deadbeef          	jal	t4,fffdf626 <_end+0xfffda622>
    4040:	deadbeef          	jal	t4,fffdf62a <_end+0xfffda626>
    4044:	deadbeef          	jal	t4,fffdf62e <_end+0xfffda62a>
    4048:	deadbeef          	jal	t4,fffdf632 <_end+0xfffda62e>
    404c:	deadbeef          	jal	t4,fffdf636 <_end+0xfffda632>
    4050:	deadbeef          	jal	t4,fffdf63a <_end+0xfffda636>
    4054:	deadbeef          	jal	t4,fffdf63e <_end+0xfffda63a>
    4058:	deadbeef          	jal	t4,fffdf642 <_end+0xfffda63e>
    405c:	deadbeef          	jal	t4,fffdf646 <_end+0xfffda642>
    4060:	deadbeef          	jal	t4,fffdf64a <_end+0xfffda646>
    4064:	deadbeef          	jal	t4,fffdf64e <_end+0xfffda64a>

00004068 <signature_x3_0>:
    4068:	deadbeef          	jal	t4,fffdf652 <_end+0xfffda64e>
    406c:	deadbeef          	jal	t4,fffdf656 <_end+0xfffda652>
    4070:	deadbeef          	jal	t4,fffdf65a <_end+0xfffda656>
    4074:	deadbeef          	jal	t4,fffdf65e <_end+0xfffda65a>
    4078:	deadbeef          	jal	t4,fffdf662 <_end+0xfffda65e>
    407c:	deadbeef          	jal	t4,fffdf666 <_end+0xfffda662>
    4080:	deadbeef          	jal	t4,fffdf66a <_end+0xfffda666>
    4084:	deadbeef          	jal	t4,fffdf66e <_end+0xfffda66a>
    4088:	deadbeef          	jal	t4,fffdf672 <_end+0xfffda66e>
    408c:	deadbeef          	jal	t4,fffdf676 <_end+0xfffda672>
    4090:	deadbeef          	jal	t4,fffdf67a <_end+0xfffda676>
    4094:	deadbeef          	jal	t4,fffdf67e <_end+0xfffda67a>
    4098:	deadbeef          	jal	t4,fffdf682 <_end+0xfffda67e>
    409c:	deadbeef          	jal	t4,fffdf686 <_end+0xfffda682>
    40a0:	deadbeef          	jal	t4,fffdf68a <_end+0xfffda686>
    40a4:	deadbeef          	jal	t4,fffdf68e <_end+0xfffda68a>
    40a8:	deadbeef          	jal	t4,fffdf692 <_end+0xfffda68e>
    40ac:	deadbeef          	jal	t4,fffdf696 <_end+0xfffda692>
    40b0:	deadbeef          	jal	t4,fffdf69a <_end+0xfffda696>
    40b4:	deadbeef          	jal	t4,fffdf69e <_end+0xfffda69a>
    40b8:	deadbeef          	jal	t4,fffdf6a2 <_end+0xfffda69e>
    40bc:	deadbeef          	jal	t4,fffdf6a6 <_end+0xfffda6a2>
    40c0:	deadbeef          	jal	t4,fffdf6aa <_end+0xfffda6a6>
    40c4:	deadbeef          	jal	t4,fffdf6ae <_end+0xfffda6aa>
    40c8:	deadbeef          	jal	t4,fffdf6b2 <_end+0xfffda6ae>
    40cc:	deadbeef          	jal	t4,fffdf6b6 <_end+0xfffda6b2>
    40d0:	deadbeef          	jal	t4,fffdf6ba <_end+0xfffda6b6>
    40d4:	deadbeef          	jal	t4,fffdf6be <_end+0xfffda6ba>
    40d8:	deadbeef          	jal	t4,fffdf6c2 <_end+0xfffda6be>
    40dc:	deadbeef          	jal	t4,fffdf6c6 <_end+0xfffda6c2>
    40e0:	deadbeef          	jal	t4,fffdf6ca <_end+0xfffda6c6>
    40e4:	deadbeef          	jal	t4,fffdf6ce <_end+0xfffda6ca>
    40e8:	deadbeef          	jal	t4,fffdf6d2 <_end+0xfffda6ce>
    40ec:	deadbeef          	jal	t4,fffdf6d6 <_end+0xfffda6d2>
    40f0:	deadbeef          	jal	t4,fffdf6da <_end+0xfffda6d6>
    40f4:	deadbeef          	jal	t4,fffdf6de <_end+0xfffda6da>
    40f8:	deadbeef          	jal	t4,fffdf6e2 <_end+0xfffda6de>
    40fc:	deadbeef          	jal	t4,fffdf6e6 <_end+0xfffda6e2>
    4100:	deadbeef          	jal	t4,fffdf6ea <_end+0xfffda6e6>
    4104:	deadbeef          	jal	t4,fffdf6ee <_end+0xfffda6ea>
    4108:	deadbeef          	jal	t4,fffdf6f2 <_end+0xfffda6ee>
    410c:	deadbeef          	jal	t4,fffdf6f6 <_end+0xfffda6f2>
    4110:	deadbeef          	jal	t4,fffdf6fa <_end+0xfffda6f6>
    4114:	deadbeef          	jal	t4,fffdf6fe <_end+0xfffda6fa>
    4118:	deadbeef          	jal	t4,fffdf702 <_end+0xfffda6fe>
    411c:	deadbeef          	jal	t4,fffdf706 <_end+0xfffda702>
    4120:	deadbeef          	jal	t4,fffdf70a <_end+0xfffda706>
    4124:	deadbeef          	jal	t4,fffdf70e <_end+0xfffda70a>
    4128:	deadbeef          	jal	t4,fffdf712 <_end+0xfffda70e>
    412c:	deadbeef          	jal	t4,fffdf716 <_end+0xfffda712>
    4130:	deadbeef          	jal	t4,fffdf71a <_end+0xfffda716>
    4134:	deadbeef          	jal	t4,fffdf71e <_end+0xfffda71a>
    4138:	deadbeef          	jal	t4,fffdf722 <_end+0xfffda71e>
    413c:	deadbeef          	jal	t4,fffdf726 <_end+0xfffda722>
    4140:	deadbeef          	jal	t4,fffdf72a <_end+0xfffda726>
    4144:	deadbeef          	jal	t4,fffdf72e <_end+0xfffda72a>
    4148:	deadbeef          	jal	t4,fffdf732 <_end+0xfffda72e>
    414c:	deadbeef          	jal	t4,fffdf736 <_end+0xfffda732>
    4150:	deadbeef          	jal	t4,fffdf73a <_end+0xfffda736>
    4154:	deadbeef          	jal	t4,fffdf73e <_end+0xfffda73a>
    4158:	deadbeef          	jal	t4,fffdf742 <_end+0xfffda73e>
    415c:	deadbeef          	jal	t4,fffdf746 <_end+0xfffda742>
    4160:	deadbeef          	jal	t4,fffdf74a <_end+0xfffda746>
    4164:	deadbeef          	jal	t4,fffdf74e <_end+0xfffda74a>
    4168:	deadbeef          	jal	t4,fffdf752 <_end+0xfffda74e>
    416c:	deadbeef          	jal	t4,fffdf756 <_end+0xfffda752>
    4170:	deadbeef          	jal	t4,fffdf75a <_end+0xfffda756>
    4174:	deadbeef          	jal	t4,fffdf75e <_end+0xfffda75a>
    4178:	deadbeef          	jal	t4,fffdf762 <_end+0xfffda75e>
    417c:	deadbeef          	jal	t4,fffdf766 <_end+0xfffda762>
    4180:	deadbeef          	jal	t4,fffdf76a <_end+0xfffda766>
    4184:	deadbeef          	jal	t4,fffdf76e <_end+0xfffda76a>
    4188:	deadbeef          	jal	t4,fffdf772 <_end+0xfffda76e>
    418c:	deadbeef          	jal	t4,fffdf776 <_end+0xfffda772>
    4190:	deadbeef          	jal	t4,fffdf77a <_end+0xfffda776>
    4194:	deadbeef          	jal	t4,fffdf77e <_end+0xfffda77a>
    4198:	deadbeef          	jal	t4,fffdf782 <_end+0xfffda77e>
    419c:	deadbeef          	jal	t4,fffdf786 <_end+0xfffda782>
    41a0:	deadbeef          	jal	t4,fffdf78a <_end+0xfffda786>
    41a4:	deadbeef          	jal	t4,fffdf78e <_end+0xfffda78a>
    41a8:	deadbeef          	jal	t4,fffdf792 <_end+0xfffda78e>
    41ac:	deadbeef          	jal	t4,fffdf796 <_end+0xfffda792>
    41b0:	deadbeef          	jal	t4,fffdf79a <_end+0xfffda796>
    41b4:	deadbeef          	jal	t4,fffdf79e <_end+0xfffda79a>
    41b8:	deadbeef          	jal	t4,fffdf7a2 <_end+0xfffda79e>
    41bc:	deadbeef          	jal	t4,fffdf7a6 <_end+0xfffda7a2>
    41c0:	deadbeef          	jal	t4,fffdf7aa <_end+0xfffda7a6>
    41c4:	deadbeef          	jal	t4,fffdf7ae <_end+0xfffda7aa>
    41c8:	deadbeef          	jal	t4,fffdf7b2 <_end+0xfffda7ae>
    41cc:	deadbeef          	jal	t4,fffdf7b6 <_end+0xfffda7b2>
    41d0:	deadbeef          	jal	t4,fffdf7ba <_end+0xfffda7b6>
    41d4:	deadbeef          	jal	t4,fffdf7be <_end+0xfffda7ba>
    41d8:	deadbeef          	jal	t4,fffdf7c2 <_end+0xfffda7be>
    41dc:	deadbeef          	jal	t4,fffdf7c6 <_end+0xfffda7c2>
    41e0:	deadbeef          	jal	t4,fffdf7ca <_end+0xfffda7c6>
    41e4:	deadbeef          	jal	t4,fffdf7ce <_end+0xfffda7ca>
    41e8:	deadbeef          	jal	t4,fffdf7d2 <_end+0xfffda7ce>
    41ec:	deadbeef          	jal	t4,fffdf7d6 <_end+0xfffda7d2>
    41f0:	deadbeef          	jal	t4,fffdf7da <_end+0xfffda7d6>
    41f4:	deadbeef          	jal	t4,fffdf7de <_end+0xfffda7da>
    41f8:	deadbeef          	jal	t4,fffdf7e2 <_end+0xfffda7de>
    41fc:	deadbeef          	jal	t4,fffdf7e6 <_end+0xfffda7e2>
    4200:	deadbeef          	jal	t4,fffdf7ea <_end+0xfffda7e6>
    4204:	deadbeef          	jal	t4,fffdf7ee <_end+0xfffda7ea>
    4208:	deadbeef          	jal	t4,fffdf7f2 <_end+0xfffda7ee>
    420c:	deadbeef          	jal	t4,fffdf7f6 <_end+0xfffda7f2>
    4210:	deadbeef          	jal	t4,fffdf7fa <_end+0xfffda7f6>
    4214:	deadbeef          	jal	t4,fffdf7fe <_end+0xfffda7fa>
    4218:	deadbeef          	jal	t4,fffdf802 <_end+0xfffda7fe>
    421c:	deadbeef          	jal	t4,fffdf806 <_end+0xfffda802>
    4220:	deadbeef          	jal	t4,fffdf80a <_end+0xfffda806>
    4224:	deadbeef          	jal	t4,fffdf80e <_end+0xfffda80a>
    4228:	deadbeef          	jal	t4,fffdf812 <_end+0xfffda80e>
    422c:	deadbeef          	jal	t4,fffdf816 <_end+0xfffda812>
    4230:	deadbeef          	jal	t4,fffdf81a <_end+0xfffda816>
    4234:	deadbeef          	jal	t4,fffdf81e <_end+0xfffda81a>
    4238:	deadbeef          	jal	t4,fffdf822 <_end+0xfffda81e>
    423c:	deadbeef          	jal	t4,fffdf826 <_end+0xfffda822>
    4240:	deadbeef          	jal	t4,fffdf82a <_end+0xfffda826>
    4244:	deadbeef          	jal	t4,fffdf82e <_end+0xfffda82a>
    4248:	deadbeef          	jal	t4,fffdf832 <_end+0xfffda82e>
    424c:	deadbeef          	jal	t4,fffdf836 <_end+0xfffda832>
    4250:	deadbeef          	jal	t4,fffdf83a <_end+0xfffda836>
    4254:	deadbeef          	jal	t4,fffdf83e <_end+0xfffda83a>
    4258:	deadbeef          	jal	t4,fffdf842 <_end+0xfffda83e>
    425c:	deadbeef          	jal	t4,fffdf846 <_end+0xfffda842>
    4260:	deadbeef          	jal	t4,fffdf84a <_end+0xfffda846>
    4264:	deadbeef          	jal	t4,fffdf84e <_end+0xfffda84a>
    4268:	deadbeef          	jal	t4,fffdf852 <_end+0xfffda84e>
    426c:	deadbeef          	jal	t4,fffdf856 <_end+0xfffda852>
    4270:	deadbeef          	jal	t4,fffdf85a <_end+0xfffda856>
    4274:	deadbeef          	jal	t4,fffdf85e <_end+0xfffda85a>
    4278:	deadbeef          	jal	t4,fffdf862 <_end+0xfffda85e>
    427c:	deadbeef          	jal	t4,fffdf866 <_end+0xfffda862>
    4280:	deadbeef          	jal	t4,fffdf86a <_end+0xfffda866>
    4284:	deadbeef          	jal	t4,fffdf86e <_end+0xfffda86a>
    4288:	deadbeef          	jal	t4,fffdf872 <_end+0xfffda86e>
    428c:	deadbeef          	jal	t4,fffdf876 <_end+0xfffda872>
    4290:	deadbeef          	jal	t4,fffdf87a <_end+0xfffda876>
    4294:	deadbeef          	jal	t4,fffdf87e <_end+0xfffda87a>
    4298:	deadbeef          	jal	t4,fffdf882 <_end+0xfffda87e>
    429c:	deadbeef          	jal	t4,fffdf886 <_end+0xfffda882>
    42a0:	deadbeef          	jal	t4,fffdf88a <_end+0xfffda886>
    42a4:	deadbeef          	jal	t4,fffdf88e <_end+0xfffda88a>
    42a8:	deadbeef          	jal	t4,fffdf892 <_end+0xfffda88e>
    42ac:	deadbeef          	jal	t4,fffdf896 <_end+0xfffda892>
    42b0:	deadbeef          	jal	t4,fffdf89a <_end+0xfffda896>
    42b4:	deadbeef          	jal	t4,fffdf89e <_end+0xfffda89a>
    42b8:	deadbeef          	jal	t4,fffdf8a2 <_end+0xfffda89e>
    42bc:	deadbeef          	jal	t4,fffdf8a6 <_end+0xfffda8a2>
    42c0:	deadbeef          	jal	t4,fffdf8aa <_end+0xfffda8a6>
    42c4:	deadbeef          	jal	t4,fffdf8ae <_end+0xfffda8aa>
    42c8:	deadbeef          	jal	t4,fffdf8b2 <_end+0xfffda8ae>
    42cc:	deadbeef          	jal	t4,fffdf8b6 <_end+0xfffda8b2>
    42d0:	deadbeef          	jal	t4,fffdf8ba <_end+0xfffda8b6>
    42d4:	deadbeef          	jal	t4,fffdf8be <_end+0xfffda8ba>
    42d8:	deadbeef          	jal	t4,fffdf8c2 <_end+0xfffda8be>
    42dc:	deadbeef          	jal	t4,fffdf8c6 <_end+0xfffda8c2>
    42e0:	deadbeef          	jal	t4,fffdf8ca <_end+0xfffda8c6>
    42e4:	deadbeef          	jal	t4,fffdf8ce <_end+0xfffda8ca>
    42e8:	deadbeef          	jal	t4,fffdf8d2 <_end+0xfffda8ce>
    42ec:	deadbeef          	jal	t4,fffdf8d6 <_end+0xfffda8d2>
    42f0:	deadbeef          	jal	t4,fffdf8da <_end+0xfffda8d6>
    42f4:	deadbeef          	jal	t4,fffdf8de <_end+0xfffda8da>
    42f8:	deadbeef          	jal	t4,fffdf8e2 <_end+0xfffda8de>
    42fc:	deadbeef          	jal	t4,fffdf8e6 <_end+0xfffda8e2>
    4300:	deadbeef          	jal	t4,fffdf8ea <_end+0xfffda8e6>
    4304:	deadbeef          	jal	t4,fffdf8ee <_end+0xfffda8ea>
    4308:	deadbeef          	jal	t4,fffdf8f2 <_end+0xfffda8ee>
    430c:	deadbeef          	jal	t4,fffdf8f6 <_end+0xfffda8f2>
    4310:	deadbeef          	jal	t4,fffdf8fa <_end+0xfffda8f6>
    4314:	deadbeef          	jal	t4,fffdf8fe <_end+0xfffda8fa>
    4318:	deadbeef          	jal	t4,fffdf902 <_end+0xfffda8fe>
    431c:	deadbeef          	jal	t4,fffdf906 <_end+0xfffda902>
    4320:	deadbeef          	jal	t4,fffdf90a <_end+0xfffda906>
    4324:	deadbeef          	jal	t4,fffdf90e <_end+0xfffda90a>
    4328:	deadbeef          	jal	t4,fffdf912 <_end+0xfffda90e>
    432c:	deadbeef          	jal	t4,fffdf916 <_end+0xfffda912>
    4330:	deadbeef          	jal	t4,fffdf91a <_end+0xfffda916>
    4334:	deadbeef          	jal	t4,fffdf91e <_end+0xfffda91a>
    4338:	deadbeef          	jal	t4,fffdf922 <_end+0xfffda91e>
    433c:	deadbeef          	jal	t4,fffdf926 <_end+0xfffda922>
    4340:	deadbeef          	jal	t4,fffdf92a <_end+0xfffda926>
    4344:	deadbeef          	jal	t4,fffdf92e <_end+0xfffda92a>
    4348:	deadbeef          	jal	t4,fffdf932 <_end+0xfffda92e>
    434c:	deadbeef          	jal	t4,fffdf936 <_end+0xfffda932>
    4350:	deadbeef          	jal	t4,fffdf93a <_end+0xfffda936>
    4354:	deadbeef          	jal	t4,fffdf93e <_end+0xfffda93a>
    4358:	deadbeef          	jal	t4,fffdf942 <_end+0xfffda93e>
    435c:	deadbeef          	jal	t4,fffdf946 <_end+0xfffda942>
    4360:	deadbeef          	jal	t4,fffdf94a <_end+0xfffda946>
    4364:	deadbeef          	jal	t4,fffdf94e <_end+0xfffda94a>
    4368:	deadbeef          	jal	t4,fffdf952 <_end+0xfffda94e>
    436c:	deadbeef          	jal	t4,fffdf956 <_end+0xfffda952>
    4370:	deadbeef          	jal	t4,fffdf95a <_end+0xfffda956>
    4374:	deadbeef          	jal	t4,fffdf95e <_end+0xfffda95a>
    4378:	deadbeef          	jal	t4,fffdf962 <_end+0xfffda95e>
    437c:	deadbeef          	jal	t4,fffdf966 <_end+0xfffda962>
    4380:	deadbeef          	jal	t4,fffdf96a <_end+0xfffda966>
    4384:	deadbeef          	jal	t4,fffdf96e <_end+0xfffda96a>
    4388:	deadbeef          	jal	t4,fffdf972 <_end+0xfffda96e>
    438c:	deadbeef          	jal	t4,fffdf976 <_end+0xfffda972>
    4390:	deadbeef          	jal	t4,fffdf97a <_end+0xfffda976>
    4394:	deadbeef          	jal	t4,fffdf97e <_end+0xfffda97a>
    4398:	deadbeef          	jal	t4,fffdf982 <_end+0xfffda97e>
    439c:	deadbeef          	jal	t4,fffdf986 <_end+0xfffda982>
    43a0:	deadbeef          	jal	t4,fffdf98a <_end+0xfffda986>
    43a4:	deadbeef          	jal	t4,fffdf98e <_end+0xfffda98a>
    43a8:	deadbeef          	jal	t4,fffdf992 <_end+0xfffda98e>
    43ac:	deadbeef          	jal	t4,fffdf996 <_end+0xfffda992>
    43b0:	deadbeef          	jal	t4,fffdf99a <_end+0xfffda996>
    43b4:	deadbeef          	jal	t4,fffdf99e <_end+0xfffda99a>
    43b8:	deadbeef          	jal	t4,fffdf9a2 <_end+0xfffda99e>
    43bc:	deadbeef          	jal	t4,fffdf9a6 <_end+0xfffda9a2>
    43c0:	deadbeef          	jal	t4,fffdf9aa <_end+0xfffda9a6>
    43c4:	deadbeef          	jal	t4,fffdf9ae <_end+0xfffda9aa>
    43c8:	deadbeef          	jal	t4,fffdf9b2 <_end+0xfffda9ae>
    43cc:	deadbeef          	jal	t4,fffdf9b6 <_end+0xfffda9b2>
    43d0:	deadbeef          	jal	t4,fffdf9ba <_end+0xfffda9b6>
    43d4:	deadbeef          	jal	t4,fffdf9be <_end+0xfffda9ba>
    43d8:	deadbeef          	jal	t4,fffdf9c2 <_end+0xfffda9be>
    43dc:	deadbeef          	jal	t4,fffdf9c6 <_end+0xfffda9c2>
    43e0:	deadbeef          	jal	t4,fffdf9ca <_end+0xfffda9c6>
    43e4:	deadbeef          	jal	t4,fffdf9ce <_end+0xfffda9ca>
    43e8:	deadbeef          	jal	t4,fffdf9d2 <_end+0xfffda9ce>
    43ec:	deadbeef          	jal	t4,fffdf9d6 <_end+0xfffda9d2>
    43f0:	deadbeef          	jal	t4,fffdf9da <_end+0xfffda9d6>
    43f4:	deadbeef          	jal	t4,fffdf9de <_end+0xfffda9da>
    43f8:	deadbeef          	jal	t4,fffdf9e2 <_end+0xfffda9de>
    43fc:	deadbeef          	jal	t4,fffdf9e6 <_end+0xfffda9e2>
    4400:	deadbeef          	jal	t4,fffdf9ea <_end+0xfffda9e6>
    4404:	deadbeef          	jal	t4,fffdf9ee <_end+0xfffda9ea>
    4408:	deadbeef          	jal	t4,fffdf9f2 <_end+0xfffda9ee>
    440c:	deadbeef          	jal	t4,fffdf9f6 <_end+0xfffda9f2>
    4410:	deadbeef          	jal	t4,fffdf9fa <_end+0xfffda9f6>
    4414:	deadbeef          	jal	t4,fffdf9fe <_end+0xfffda9fa>
    4418:	deadbeef          	jal	t4,fffdfa02 <_end+0xfffda9fe>
    441c:	deadbeef          	jal	t4,fffdfa06 <_end+0xfffdaa02>
    4420:	deadbeef          	jal	t4,fffdfa0a <_end+0xfffdaa06>
    4424:	deadbeef          	jal	t4,fffdfa0e <_end+0xfffdaa0a>
    4428:	deadbeef          	jal	t4,fffdfa12 <_end+0xfffdaa0e>
    442c:	deadbeef          	jal	t4,fffdfa16 <_end+0xfffdaa12>
    4430:	deadbeef          	jal	t4,fffdfa1a <_end+0xfffdaa16>
    4434:	deadbeef          	jal	t4,fffdfa1e <_end+0xfffdaa1a>
    4438:	deadbeef          	jal	t4,fffdfa22 <_end+0xfffdaa1e>
    443c:	deadbeef          	jal	t4,fffdfa26 <_end+0xfffdaa22>
    4440:	deadbeef          	jal	t4,fffdfa2a <_end+0xfffdaa26>
    4444:	deadbeef          	jal	t4,fffdfa2e <_end+0xfffdaa2a>
    4448:	deadbeef          	jal	t4,fffdfa32 <_end+0xfffdaa2e>
    444c:	deadbeef          	jal	t4,fffdfa36 <_end+0xfffdaa32>
    4450:	deadbeef          	jal	t4,fffdfa3a <_end+0xfffdaa36>
    4454:	deadbeef          	jal	t4,fffdfa3e <_end+0xfffdaa3a>
    4458:	deadbeef          	jal	t4,fffdfa42 <_end+0xfffdaa3e>
    445c:	deadbeef          	jal	t4,fffdfa46 <_end+0xfffdaa42>
    4460:	deadbeef          	jal	t4,fffdfa4a <_end+0xfffdaa46>
    4464:	deadbeef          	jal	t4,fffdfa4e <_end+0xfffdaa4a>
    4468:	deadbeef          	jal	t4,fffdfa52 <_end+0xfffdaa4e>
    446c:	deadbeef          	jal	t4,fffdfa56 <_end+0xfffdaa52>
    4470:	deadbeef          	jal	t4,fffdfa5a <_end+0xfffdaa56>
    4474:	deadbeef          	jal	t4,fffdfa5e <_end+0xfffdaa5a>
    4478:	deadbeef          	jal	t4,fffdfa62 <_end+0xfffdaa5e>
    447c:	deadbeef          	jal	t4,fffdfa66 <_end+0xfffdaa62>
    4480:	deadbeef          	jal	t4,fffdfa6a <_end+0xfffdaa66>
    4484:	deadbeef          	jal	t4,fffdfa6e <_end+0xfffdaa6a>
    4488:	deadbeef          	jal	t4,fffdfa72 <_end+0xfffdaa6e>
    448c:	deadbeef          	jal	t4,fffdfa76 <_end+0xfffdaa72>
    4490:	deadbeef          	jal	t4,fffdfa7a <_end+0xfffdaa76>
    4494:	deadbeef          	jal	t4,fffdfa7e <_end+0xfffdaa7a>
    4498:	deadbeef          	jal	t4,fffdfa82 <_end+0xfffdaa7e>
    449c:	deadbeef          	jal	t4,fffdfa86 <_end+0xfffdaa82>
    44a0:	deadbeef          	jal	t4,fffdfa8a <_end+0xfffdaa86>
    44a4:	deadbeef          	jal	t4,fffdfa8e <_end+0xfffdaa8a>
    44a8:	deadbeef          	jal	t4,fffdfa92 <_end+0xfffdaa8e>
    44ac:	deadbeef          	jal	t4,fffdfa96 <_end+0xfffdaa92>
    44b0:	deadbeef          	jal	t4,fffdfa9a <_end+0xfffdaa96>
    44b4:	deadbeef          	jal	t4,fffdfa9e <_end+0xfffdaa9a>
    44b8:	deadbeef          	jal	t4,fffdfaa2 <_end+0xfffdaa9e>
    44bc:	deadbeef          	jal	t4,fffdfaa6 <_end+0xfffdaaa2>
    44c0:	deadbeef          	jal	t4,fffdfaaa <_end+0xfffdaaa6>
    44c4:	deadbeef          	jal	t4,fffdfaae <_end+0xfffdaaaa>
    44c8:	deadbeef          	jal	t4,fffdfab2 <_end+0xfffdaaae>
    44cc:	deadbeef          	jal	t4,fffdfab6 <_end+0xfffdaab2>
    44d0:	deadbeef          	jal	t4,fffdfaba <_end+0xfffdaab6>
    44d4:	deadbeef          	jal	t4,fffdfabe <_end+0xfffdaaba>
    44d8:	deadbeef          	jal	t4,fffdfac2 <_end+0xfffdaabe>
    44dc:	deadbeef          	jal	t4,fffdfac6 <_end+0xfffdaac2>
    44e0:	deadbeef          	jal	t4,fffdfaca <_end+0xfffdaac6>
    44e4:	deadbeef          	jal	t4,fffdface <_end+0xfffdaaca>
    44e8:	deadbeef          	jal	t4,fffdfad2 <_end+0xfffdaace>
    44ec:	deadbeef          	jal	t4,fffdfad6 <_end+0xfffdaad2>
    44f0:	deadbeef          	jal	t4,fffdfada <_end+0xfffdaad6>
    44f4:	deadbeef          	jal	t4,fffdfade <_end+0xfffdaada>
    44f8:	deadbeef          	jal	t4,fffdfae2 <_end+0xfffdaade>
    44fc:	deadbeef          	jal	t4,fffdfae6 <_end+0xfffdaae2>
    4500:	deadbeef          	jal	t4,fffdfaea <_end+0xfffdaae6>
    4504:	deadbeef          	jal	t4,fffdfaee <_end+0xfffdaaea>
    4508:	deadbeef          	jal	t4,fffdfaf2 <_end+0xfffdaaee>
    450c:	deadbeef          	jal	t4,fffdfaf6 <_end+0xfffdaaf2>
    4510:	deadbeef          	jal	t4,fffdfafa <_end+0xfffdaaf6>
    4514:	deadbeef          	jal	t4,fffdfafe <_end+0xfffdaafa>
    4518:	deadbeef          	jal	t4,fffdfb02 <_end+0xfffdaafe>
    451c:	deadbeef          	jal	t4,fffdfb06 <_end+0xfffdab02>
    4520:	deadbeef          	jal	t4,fffdfb0a <_end+0xfffdab06>
    4524:	deadbeef          	jal	t4,fffdfb0e <_end+0xfffdab0a>
    4528:	deadbeef          	jal	t4,fffdfb12 <_end+0xfffdab0e>
    452c:	deadbeef          	jal	t4,fffdfb16 <_end+0xfffdab12>
    4530:	deadbeef          	jal	t4,fffdfb1a <_end+0xfffdab16>
    4534:	deadbeef          	jal	t4,fffdfb1e <_end+0xfffdab1a>
    4538:	deadbeef          	jal	t4,fffdfb22 <_end+0xfffdab1e>
    453c:	deadbeef          	jal	t4,fffdfb26 <_end+0xfffdab22>
    4540:	deadbeef          	jal	t4,fffdfb2a <_end+0xfffdab26>
    4544:	deadbeef          	jal	t4,fffdfb2e <_end+0xfffdab2a>
    4548:	deadbeef          	jal	t4,fffdfb32 <_end+0xfffdab2e>
    454c:	deadbeef          	jal	t4,fffdfb36 <_end+0xfffdab32>
    4550:	deadbeef          	jal	t4,fffdfb3a <_end+0xfffdab36>
    4554:	deadbeef          	jal	t4,fffdfb3e <_end+0xfffdab3a>
    4558:	deadbeef          	jal	t4,fffdfb42 <_end+0xfffdab3e>
    455c:	deadbeef          	jal	t4,fffdfb46 <_end+0xfffdab42>
    4560:	deadbeef          	jal	t4,fffdfb4a <_end+0xfffdab46>
    4564:	deadbeef          	jal	t4,fffdfb4e <_end+0xfffdab4a>
    4568:	deadbeef          	jal	t4,fffdfb52 <_end+0xfffdab4e>
    456c:	deadbeef          	jal	t4,fffdfb56 <_end+0xfffdab52>
    4570:	deadbeef          	jal	t4,fffdfb5a <_end+0xfffdab56>
    4574:	deadbeef          	jal	t4,fffdfb5e <_end+0xfffdab5a>
    4578:	deadbeef          	jal	t4,fffdfb62 <_end+0xfffdab5e>
    457c:	deadbeef          	jal	t4,fffdfb66 <_end+0xfffdab62>
    4580:	deadbeef          	jal	t4,fffdfb6a <_end+0xfffdab66>
    4584:	deadbeef          	jal	t4,fffdfb6e <_end+0xfffdab6a>
    4588:	deadbeef          	jal	t4,fffdfb72 <_end+0xfffdab6e>
    458c:	deadbeef          	jal	t4,fffdfb76 <_end+0xfffdab72>
    4590:	deadbeef          	jal	t4,fffdfb7a <_end+0xfffdab76>
    4594:	deadbeef          	jal	t4,fffdfb7e <_end+0xfffdab7a>
    4598:	deadbeef          	jal	t4,fffdfb82 <_end+0xfffdab7e>
    459c:	deadbeef          	jal	t4,fffdfb86 <_end+0xfffdab82>
    45a0:	deadbeef          	jal	t4,fffdfb8a <_end+0xfffdab86>
    45a4:	deadbeef          	jal	t4,fffdfb8e <_end+0xfffdab8a>
    45a8:	deadbeef          	jal	t4,fffdfb92 <_end+0xfffdab8e>
    45ac:	deadbeef          	jal	t4,fffdfb96 <_end+0xfffdab92>
    45b0:	deadbeef          	jal	t4,fffdfb9a <_end+0xfffdab96>
    45b4:	deadbeef          	jal	t4,fffdfb9e <_end+0xfffdab9a>
    45b8:	deadbeef          	jal	t4,fffdfba2 <_end+0xfffdab9e>
    45bc:	deadbeef          	jal	t4,fffdfba6 <_end+0xfffdaba2>
    45c0:	deadbeef          	jal	t4,fffdfbaa <_end+0xfffdaba6>
    45c4:	deadbeef          	jal	t4,fffdfbae <_end+0xfffdabaa>
    45c8:	deadbeef          	jal	t4,fffdfbb2 <_end+0xfffdabae>
    45cc:	deadbeef          	jal	t4,fffdfbb6 <_end+0xfffdabb2>
    45d0:	deadbeef          	jal	t4,fffdfbba <_end+0xfffdabb6>
    45d4:	deadbeef          	jal	t4,fffdfbbe <_end+0xfffdabba>
    45d8:	deadbeef          	jal	t4,fffdfbc2 <_end+0xfffdabbe>
    45dc:	deadbeef          	jal	t4,fffdfbc6 <_end+0xfffdabc2>
    45e0:	deadbeef          	jal	t4,fffdfbca <_end+0xfffdabc6>
    45e4:	deadbeef          	jal	t4,fffdfbce <_end+0xfffdabca>
    45e8:	deadbeef          	jal	t4,fffdfbd2 <_end+0xfffdabce>
    45ec:	deadbeef          	jal	t4,fffdfbd6 <_end+0xfffdabd2>
    45f0:	deadbeef          	jal	t4,fffdfbda <_end+0xfffdabd6>
    45f4:	deadbeef          	jal	t4,fffdfbde <_end+0xfffdabda>
    45f8:	deadbeef          	jal	t4,fffdfbe2 <_end+0xfffdabde>
    45fc:	deadbeef          	jal	t4,fffdfbe6 <_end+0xfffdabe2>
    4600:	deadbeef          	jal	t4,fffdfbea <_end+0xfffdabe6>
    4604:	deadbeef          	jal	t4,fffdfbee <_end+0xfffdabea>
    4608:	deadbeef          	jal	t4,fffdfbf2 <_end+0xfffdabee>
    460c:	deadbeef          	jal	t4,fffdfbf6 <_end+0xfffdabf2>
    4610:	deadbeef          	jal	t4,fffdfbfa <_end+0xfffdabf6>
    4614:	deadbeef          	jal	t4,fffdfbfe <_end+0xfffdabfa>
    4618:	deadbeef          	jal	t4,fffdfc02 <_end+0xfffdabfe>
    461c:	deadbeef          	jal	t4,fffdfc06 <_end+0xfffdac02>
    4620:	deadbeef          	jal	t4,fffdfc0a <_end+0xfffdac06>
    4624:	deadbeef          	jal	t4,fffdfc0e <_end+0xfffdac0a>
    4628:	deadbeef          	jal	t4,fffdfc12 <_end+0xfffdac0e>
    462c:	deadbeef          	jal	t4,fffdfc16 <_end+0xfffdac12>
    4630:	deadbeef          	jal	t4,fffdfc1a <_end+0xfffdac16>
    4634:	deadbeef          	jal	t4,fffdfc1e <_end+0xfffdac1a>
    4638:	deadbeef          	jal	t4,fffdfc22 <_end+0xfffdac1e>
    463c:	deadbeef          	jal	t4,fffdfc26 <_end+0xfffdac22>
    4640:	deadbeef          	jal	t4,fffdfc2a <_end+0xfffdac26>
    4644:	deadbeef          	jal	t4,fffdfc2e <_end+0xfffdac2a>
    4648:	deadbeef          	jal	t4,fffdfc32 <_end+0xfffdac2e>
    464c:	deadbeef          	jal	t4,fffdfc36 <_end+0xfffdac32>
    4650:	deadbeef          	jal	t4,fffdfc3a <_end+0xfffdac36>
    4654:	deadbeef          	jal	t4,fffdfc3e <_end+0xfffdac3a>
    4658:	deadbeef          	jal	t4,fffdfc42 <_end+0xfffdac3e>
    465c:	deadbeef          	jal	t4,fffdfc46 <_end+0xfffdac42>
    4660:	deadbeef          	jal	t4,fffdfc4a <_end+0xfffdac46>
    4664:	deadbeef          	jal	t4,fffdfc4e <_end+0xfffdac4a>
    4668:	deadbeef          	jal	t4,fffdfc52 <_end+0xfffdac4e>
    466c:	deadbeef          	jal	t4,fffdfc56 <_end+0xfffdac52>
    4670:	deadbeef          	jal	t4,fffdfc5a <_end+0xfffdac56>
    4674:	deadbeef          	jal	t4,fffdfc5e <_end+0xfffdac5a>
    4678:	deadbeef          	jal	t4,fffdfc62 <_end+0xfffdac5e>
    467c:	deadbeef          	jal	t4,fffdfc66 <_end+0xfffdac62>
    4680:	deadbeef          	jal	t4,fffdfc6a <_end+0xfffdac66>
    4684:	deadbeef          	jal	t4,fffdfc6e <_end+0xfffdac6a>
    4688:	deadbeef          	jal	t4,fffdfc72 <_end+0xfffdac6e>
    468c:	deadbeef          	jal	t4,fffdfc76 <_end+0xfffdac72>
    4690:	deadbeef          	jal	t4,fffdfc7a <_end+0xfffdac76>
    4694:	deadbeef          	jal	t4,fffdfc7e <_end+0xfffdac7a>
    4698:	deadbeef          	jal	t4,fffdfc82 <_end+0xfffdac7e>
    469c:	deadbeef          	jal	t4,fffdfc86 <_end+0xfffdac82>
    46a0:	deadbeef          	jal	t4,fffdfc8a <_end+0xfffdac86>
    46a4:	deadbeef          	jal	t4,fffdfc8e <_end+0xfffdac8a>
    46a8:	deadbeef          	jal	t4,fffdfc92 <_end+0xfffdac8e>
    46ac:	deadbeef          	jal	t4,fffdfc96 <_end+0xfffdac92>
    46b0:	deadbeef          	jal	t4,fffdfc9a <_end+0xfffdac96>
    46b4:	deadbeef          	jal	t4,fffdfc9e <_end+0xfffdac9a>
    46b8:	deadbeef          	jal	t4,fffdfca2 <_end+0xfffdac9e>
    46bc:	deadbeef          	jal	t4,fffdfca6 <_end+0xfffdaca2>
    46c0:	deadbeef          	jal	t4,fffdfcaa <_end+0xfffdaca6>
    46c4:	deadbeef          	jal	t4,fffdfcae <_end+0xfffdacaa>
    46c8:	deadbeef          	jal	t4,fffdfcb2 <_end+0xfffdacae>
    46cc:	deadbeef          	jal	t4,fffdfcb6 <_end+0xfffdacb2>
    46d0:	deadbeef          	jal	t4,fffdfcba <_end+0xfffdacb6>
    46d4:	deadbeef          	jal	t4,fffdfcbe <_end+0xfffdacba>
    46d8:	deadbeef          	jal	t4,fffdfcc2 <_end+0xfffdacbe>
    46dc:	deadbeef          	jal	t4,fffdfcc6 <_end+0xfffdacc2>
    46e0:	deadbeef          	jal	t4,fffdfcca <_end+0xfffdacc6>
    46e4:	deadbeef          	jal	t4,fffdfcce <_end+0xfffdacca>
    46e8:	deadbeef          	jal	t4,fffdfcd2 <_end+0xfffdacce>
    46ec:	deadbeef          	jal	t4,fffdfcd6 <_end+0xfffdacd2>
    46f0:	deadbeef          	jal	t4,fffdfcda <_end+0xfffdacd6>
    46f4:	deadbeef          	jal	t4,fffdfcde <_end+0xfffdacda>
    46f8:	deadbeef          	jal	t4,fffdfce2 <_end+0xfffdacde>
    46fc:	deadbeef          	jal	t4,fffdfce6 <_end+0xfffdace2>
    4700:	deadbeef          	jal	t4,fffdfcea <_end+0xfffdace6>
    4704:	deadbeef          	jal	t4,fffdfcee <_end+0xfffdacea>
    4708:	deadbeef          	jal	t4,fffdfcf2 <_end+0xfffdacee>
    470c:	deadbeef          	jal	t4,fffdfcf6 <_end+0xfffdacf2>
    4710:	deadbeef          	jal	t4,fffdfcfa <_end+0xfffdacf6>
    4714:	deadbeef          	jal	t4,fffdfcfe <_end+0xfffdacfa>
    4718:	deadbeef          	jal	t4,fffdfd02 <_end+0xfffdacfe>
    471c:	deadbeef          	jal	t4,fffdfd06 <_end+0xfffdad02>
    4720:	deadbeef          	jal	t4,fffdfd0a <_end+0xfffdad06>
    4724:	deadbeef          	jal	t4,fffdfd0e <_end+0xfffdad0a>
    4728:	deadbeef          	jal	t4,fffdfd12 <_end+0xfffdad0e>
    472c:	deadbeef          	jal	t4,fffdfd16 <_end+0xfffdad12>
    4730:	deadbeef          	jal	t4,fffdfd1a <_end+0xfffdad16>
    4734:	deadbeef          	jal	t4,fffdfd1e <_end+0xfffdad1a>
    4738:	deadbeef          	jal	t4,fffdfd22 <_end+0xfffdad1e>
    473c:	deadbeef          	jal	t4,fffdfd26 <_end+0xfffdad22>
    4740:	deadbeef          	jal	t4,fffdfd2a <_end+0xfffdad26>
    4744:	deadbeef          	jal	t4,fffdfd2e <_end+0xfffdad2a>
    4748:	deadbeef          	jal	t4,fffdfd32 <_end+0xfffdad2e>
    474c:	deadbeef          	jal	t4,fffdfd36 <_end+0xfffdad32>
    4750:	deadbeef          	jal	t4,fffdfd3a <_end+0xfffdad36>
    4754:	deadbeef          	jal	t4,fffdfd3e <_end+0xfffdad3a>
    4758:	deadbeef          	jal	t4,fffdfd42 <_end+0xfffdad3e>
    475c:	deadbeef          	jal	t4,fffdfd46 <_end+0xfffdad42>
    4760:	deadbeef          	jal	t4,fffdfd4a <_end+0xfffdad46>
    4764:	deadbeef          	jal	t4,fffdfd4e <_end+0xfffdad4a>
    4768:	deadbeef          	jal	t4,fffdfd52 <_end+0xfffdad4e>
    476c:	deadbeef          	jal	t4,fffdfd56 <_end+0xfffdad52>
    4770:	deadbeef          	jal	t4,fffdfd5a <_end+0xfffdad56>
    4774:	deadbeef          	jal	t4,fffdfd5e <_end+0xfffdad5a>
    4778:	deadbeef          	jal	t4,fffdfd62 <_end+0xfffdad5e>
    477c:	deadbeef          	jal	t4,fffdfd66 <_end+0xfffdad62>
    4780:	deadbeef          	jal	t4,fffdfd6a <_end+0xfffdad66>
    4784:	deadbeef          	jal	t4,fffdfd6e <_end+0xfffdad6a>
    4788:	deadbeef          	jal	t4,fffdfd72 <_end+0xfffdad6e>
    478c:	deadbeef          	jal	t4,fffdfd76 <_end+0xfffdad72>
    4790:	deadbeef          	jal	t4,fffdfd7a <_end+0xfffdad76>
    4794:	deadbeef          	jal	t4,fffdfd7e <_end+0xfffdad7a>
    4798:	deadbeef          	jal	t4,fffdfd82 <_end+0xfffdad7e>
    479c:	deadbeef          	jal	t4,fffdfd86 <_end+0xfffdad82>
    47a0:	deadbeef          	jal	t4,fffdfd8a <_end+0xfffdad86>
    47a4:	deadbeef          	jal	t4,fffdfd8e <_end+0xfffdad8a>
    47a8:	deadbeef          	jal	t4,fffdfd92 <_end+0xfffdad8e>
    47ac:	deadbeef          	jal	t4,fffdfd96 <_end+0xfffdad92>
    47b0:	deadbeef          	jal	t4,fffdfd9a <_end+0xfffdad96>
    47b4:	deadbeef          	jal	t4,fffdfd9e <_end+0xfffdad9a>
    47b8:	deadbeef          	jal	t4,fffdfda2 <_end+0xfffdad9e>
    47bc:	deadbeef          	jal	t4,fffdfda6 <_end+0xfffdada2>
    47c0:	deadbeef          	jal	t4,fffdfdaa <_end+0xfffdada6>
    47c4:	deadbeef          	jal	t4,fffdfdae <_end+0xfffdadaa>
    47c8:	deadbeef          	jal	t4,fffdfdb2 <_end+0xfffdadae>
    47cc:	deadbeef          	jal	t4,fffdfdb6 <_end+0xfffdadb2>
    47d0:	deadbeef          	jal	t4,fffdfdba <_end+0xfffdadb6>
    47d4:	deadbeef          	jal	t4,fffdfdbe <_end+0xfffdadba>
    47d8:	deadbeef          	jal	t4,fffdfdc2 <_end+0xfffdadbe>
    47dc:	deadbeef          	jal	t4,fffdfdc6 <_end+0xfffdadc2>
    47e0:	deadbeef          	jal	t4,fffdfdca <_end+0xfffdadc6>
    47e4:	deadbeef          	jal	t4,fffdfdce <_end+0xfffdadca>
    47e8:	deadbeef          	jal	t4,fffdfdd2 <_end+0xfffdadce>
    47ec:	deadbeef          	jal	t4,fffdfdd6 <_end+0xfffdadd2>
    47f0:	deadbeef          	jal	t4,fffdfdda <_end+0xfffdadd6>
    47f4:	deadbeef          	jal	t4,fffdfdde <_end+0xfffdadda>
    47f8:	deadbeef          	jal	t4,fffdfde2 <_end+0xfffdadde>
    47fc:	deadbeef          	jal	t4,fffdfde6 <_end+0xfffdade2>
    4800:	deadbeef          	jal	t4,fffdfdea <_end+0xfffdade6>
    4804:	deadbeef          	jal	t4,fffdfdee <_end+0xfffdadea>
    4808:	deadbeef          	jal	t4,fffdfdf2 <_end+0xfffdadee>
    480c:	deadbeef          	jal	t4,fffdfdf6 <_end+0xfffdadf2>
    4810:	deadbeef          	jal	t4,fffdfdfa <_end+0xfffdadf6>
    4814:	deadbeef          	jal	t4,fffdfdfe <_end+0xfffdadfa>
    4818:	deadbeef          	jal	t4,fffdfe02 <_end+0xfffdadfe>
    481c:	deadbeef          	jal	t4,fffdfe06 <_end+0xfffdae02>
    4820:	deadbeef          	jal	t4,fffdfe0a <_end+0xfffdae06>
    4824:	deadbeef          	jal	t4,fffdfe0e <_end+0xfffdae0a>
    4828:	deadbeef          	jal	t4,fffdfe12 <_end+0xfffdae0e>
    482c:	deadbeef          	jal	t4,fffdfe16 <_end+0xfffdae12>
    4830:	deadbeef          	jal	t4,fffdfe1a <_end+0xfffdae16>
    4834:	deadbeef          	jal	t4,fffdfe1e <_end+0xfffdae1a>
    4838:	deadbeef          	jal	t4,fffdfe22 <_end+0xfffdae1e>
    483c:	deadbeef          	jal	t4,fffdfe26 <_end+0xfffdae22>
    4840:	deadbeef          	jal	t4,fffdfe2a <_end+0xfffdae26>
    4844:	deadbeef          	jal	t4,fffdfe2e <_end+0xfffdae2a>
    4848:	deadbeef          	jal	t4,fffdfe32 <_end+0xfffdae2e>
    484c:	deadbeef          	jal	t4,fffdfe36 <_end+0xfffdae32>
    4850:	deadbeef          	jal	t4,fffdfe3a <_end+0xfffdae36>
    4854:	deadbeef          	jal	t4,fffdfe3e <_end+0xfffdae3a>
    4858:	deadbeef          	jal	t4,fffdfe42 <_end+0xfffdae3e>
    485c:	deadbeef          	jal	t4,fffdfe46 <_end+0xfffdae42>
    4860:	deadbeef          	jal	t4,fffdfe4a <_end+0xfffdae46>
    4864:	deadbeef          	jal	t4,fffdfe4e <_end+0xfffdae4a>

00004868 <signature_x3_1>:
    4868:	deadbeef          	jal	t4,fffdfe52 <_end+0xfffdae4e>
    486c:	deadbeef          	jal	t4,fffdfe56 <_end+0xfffdae52>
    4870:	deadbeef          	jal	t4,fffdfe5a <_end+0xfffdae56>
    4874:	deadbeef          	jal	t4,fffdfe5e <_end+0xfffdae5a>
    4878:	deadbeef          	jal	t4,fffdfe62 <_end+0xfffdae5e>
    487c:	deadbeef          	jal	t4,fffdfe66 <_end+0xfffdae62>
    4880:	deadbeef          	jal	t4,fffdfe6a <_end+0xfffdae66>
    4884:	deadbeef          	jal	t4,fffdfe6e <_end+0xfffdae6a>
    4888:	deadbeef          	jal	t4,fffdfe72 <_end+0xfffdae6e>
    488c:	deadbeef          	jal	t4,fffdfe76 <_end+0xfffdae72>
    4890:	deadbeef          	jal	t4,fffdfe7a <_end+0xfffdae76>
    4894:	deadbeef          	jal	t4,fffdfe7e <_end+0xfffdae7a>
    4898:	deadbeef          	jal	t4,fffdfe82 <_end+0xfffdae7e>
    489c:	deadbeef          	jal	t4,fffdfe86 <_end+0xfffdae82>
    48a0:	deadbeef          	jal	t4,fffdfe8a <_end+0xfffdae86>
    48a4:	deadbeef          	jal	t4,fffdfe8e <_end+0xfffdae8a>
    48a8:	deadbeef          	jal	t4,fffdfe92 <_end+0xfffdae8e>
    48ac:	deadbeef          	jal	t4,fffdfe96 <_end+0xfffdae92>
    48b0:	deadbeef          	jal	t4,fffdfe9a <_end+0xfffdae96>
    48b4:	deadbeef          	jal	t4,fffdfe9e <_end+0xfffdae9a>
    48b8:	deadbeef          	jal	t4,fffdfea2 <_end+0xfffdae9e>
    48bc:	deadbeef          	jal	t4,fffdfea6 <_end+0xfffdaea2>
    48c0:	deadbeef          	jal	t4,fffdfeaa <_end+0xfffdaea6>
    48c4:	deadbeef          	jal	t4,fffdfeae <_end+0xfffdaeaa>
    48c8:	deadbeef          	jal	t4,fffdfeb2 <_end+0xfffdaeae>
    48cc:	deadbeef          	jal	t4,fffdfeb6 <_end+0xfffdaeb2>
    48d0:	deadbeef          	jal	t4,fffdfeba <_end+0xfffdaeb6>
    48d4:	deadbeef          	jal	t4,fffdfebe <_end+0xfffdaeba>
    48d8:	deadbeef          	jal	t4,fffdfec2 <_end+0xfffdaebe>
    48dc:	deadbeef          	jal	t4,fffdfec6 <_end+0xfffdaec2>
    48e0:	deadbeef          	jal	t4,fffdfeca <_end+0xfffdaec6>
    48e4:	deadbeef          	jal	t4,fffdfece <_end+0xfffdaeca>
	...

Disassembly of section .tohost:

00005000 <tohost>:
    5000:	0000                	unimp
	...

Disassembly of section .riscv.attributes:

00000000 <.riscv.attributes>:
   0:	1941                	addi	s2,s2,-16
   2:	0000                	unimp
   4:	7200                	flw	fs0,32(a2)
   6:	7369                	lui	t1,0xffffa
   8:	01007663          	bgeu	zero,a6,14 <offset-0x6c>
   c:	0000000f          	fence	unknown,unknown
  10:	7205                	lui	tp,0xfffe1
  12:	3376                	fld	ft6,376(sp)
  14:	6932                	flw	fs2,12(sp)
  16:	7032                	flw	ft0,44(sp)
  18:	0030                	addi	a2,sp,8

Disassembly of section .debug_line:

00000000 <.debug_line>:
   0:	0dd6                	slli	s11,s11,0x15
   2:	0000                	unimp
   4:	00640003          	lb	zero,6(s0)
   8:	0000                	unimp
   a:	0101                	addi	sp,sp,0
   c:	000d0efb          	0xd0efb
  10:	0101                	addi	sp,sp,0
  12:	0101                	addi	sp,sp,0
  14:	0000                	unimp
  16:	0100                	addi	s0,sp,128
  18:	0000                	unimp
  1a:	2f01                	jal	72a <offset+0x6aa>
  1c:	6f68                	flw	fa0,92(a4)
  1e:	656d                	lui	a0,0x1b
  20:	6769742f          	0x6769742f
  24:	7265                	lui	tp,0xffff9
  26:	7439                	lui	s0,0xfffee
  28:	2f75                	jal	7e4 <offset+0x764>
  2a:	6f74                	flw	fa3,92(a4)
  2c:	2f736c6f          	jal	s8,36b22 <_end+0x31b1e>
  30:	6972                	flw	fs2,28(sp)
  32:	2d766373          	csrrsi	t1,0x2d7,12
  36:	7261                	lui	tp,0xffff8
  38:	742d6863          	bltu	s10,sp,788 <offset+0x708>
  3c:	7365                	lui	t1,0xffff9
  3e:	2f74                	fld	fa3,216(a4)
  40:	6972                	flw	fs2,28(sp)
  42:	2d766373          	csrrsi	t1,0x2d7,12
  46:	6574                	flw	fa3,76(a0)
  48:	732d7473          	csrrci	s0,0x732,26
  4c:	6975                	lui	s2,0x1d
  4e:	6574                	flw	fa3,76(a0)
  50:	3376722f          	0x3376722f
  54:	6932                	flw	fs2,12(sp)
  56:	6d5f 492f 732f      	0x732f492f6d5f
  5c:	6372                	flw	ft6,28(sp)
  5e:	0000                	unimp
  60:	6f78                	flw	fa4,92(a4)
  62:	6972                	flw	fs2,28(sp)
  64:	302d                	jal	fffff88e <_end+0xffffa88a>
  66:	2e31                	jal	382 <offset+0x302>
  68:	00010053          	fadd.s	ft0,ft2,ft0,rne
  6c:	0000                	unimp
  6e:	0500                	addi	s0,sp,640
  70:	0002                	c.slli64	zero
  72:	0010                	0x10
  74:	0300                	addi	s0,sp,384
  76:	0119                	addi	sp,sp,6
  78:	f8090603          	lb	a2,-128(s2) # 1cf80 <_end+0x17f7c>
  7c:	0100                	addi	s0,sp,128
  7e:	08090503          	lb	a0,128(s2)
  82:	0100                	addi	s0,sp,128
  84:	10090503          	lb	a0,256(s2)
  88:	0100                	addi	s0,sp,128
  8a:	0c090503          	lb	a0,192(s2)
  8e:	0100                	addi	s0,sp,128
  90:	0c090503          	lb	a0,192(s2)
  94:	0100                	addi	s0,sp,128
  96:	0c090503          	lb	a0,192(s2)
  9a:	0100                	addi	s0,sp,128
  9c:	0c090503          	lb	a0,192(s2)
  a0:	0100                	addi	s0,sp,128
  a2:	0c090503          	lb	a0,192(s2)
  a6:	0100                	addi	s0,sp,128
  a8:	10090503          	lb	a0,256(s2)
  ac:	0100                	addi	s0,sp,128
  ae:	0c090503          	lb	a0,192(s2)
  b2:	0100                	addi	s0,sp,128
  b4:	0c090503          	lb	a0,192(s2)
  b8:	0100                	addi	s0,sp,128
  ba:	0c090503          	lb	a0,192(s2)
  be:	0100                	addi	s0,sp,128
  c0:	0c090503          	lb	a0,192(s2)
  c4:	0100                	addi	s0,sp,128
  c6:	10090503          	lb	a0,256(s2)
  ca:	0100                	addi	s0,sp,128
  cc:	10090503          	lb	a0,256(s2)
  d0:	0100                	addi	s0,sp,128
  d2:	10090503          	lb	a0,256(s2)
  d6:	0100                	addi	s0,sp,128
  d8:	10090503          	lb	a0,256(s2)
  dc:	0100                	addi	s0,sp,128
  de:	10090503          	lb	a0,256(s2)
  e2:	0100                	addi	s0,sp,128
  e4:	0c090503          	lb	a0,192(s2)
  e8:	0100                	addi	s0,sp,128
  ea:	10090503          	lb	a0,256(s2)
  ee:	0100                	addi	s0,sp,128
  f0:	0c090503          	lb	a0,192(s2)
  f4:	0100                	addi	s0,sp,128
  f6:	0c090503          	lb	a0,192(s2)
  fa:	0100                	addi	s0,sp,128
  fc:	10090503          	lb	a0,256(s2)
 100:	0100                	addi	s0,sp,128
 102:	0c090103          	lb	sp,192(s2)
 106:	0100                	addi	s0,sp,128
 108:	08090503          	lb	a0,128(s2)
 10c:	0100                	addi	s0,sp,128
 10e:	10090503          	lb	a0,256(s2)
 112:	0100                	addi	s0,sp,128
 114:	0c090503          	lb	a0,192(s2)
 118:	0100                	addi	s0,sp,128
 11a:	0c090503          	lb	a0,192(s2)
 11e:	0100                	addi	s0,sp,128
 120:	10090503          	lb	a0,256(s2)
 124:	0100                	addi	s0,sp,128
 126:	0c090503          	lb	a0,192(s2)
 12a:	0100                	addi	s0,sp,128
 12c:	10090503          	lb	a0,256(s2)
 130:	0100                	addi	s0,sp,128
 132:	0c090503          	lb	a0,192(s2)
 136:	0100                	addi	s0,sp,128
 138:	0c090503          	lb	a0,192(s2)
 13c:	0100                	addi	s0,sp,128
 13e:	0c090503          	lb	a0,192(s2)
 142:	0100                	addi	s0,sp,128
 144:	0c090503          	lb	a0,192(s2)
 148:	0100                	addi	s0,sp,128
 14a:	0c090503          	lb	a0,192(s2)
 14e:	0100                	addi	s0,sp,128
 150:	0c090503          	lb	a0,192(s2)
 154:	0100                	addi	s0,sp,128
 156:	0c090503          	lb	a0,192(s2)
 15a:	0100                	addi	s0,sp,128
 15c:	0c090503          	lb	a0,192(s2)
 160:	0100                	addi	s0,sp,128
 162:	0c090503          	lb	a0,192(s2)
 166:	0100                	addi	s0,sp,128
 168:	10090503          	lb	a0,256(s2)
 16c:	0100                	addi	s0,sp,128
 16e:	0c090503          	lb	a0,192(s2)
 172:	0100                	addi	s0,sp,128
 174:	0c090503          	lb	a0,192(s2)
 178:	0100                	addi	s0,sp,128
 17a:	0c090503          	lb	a0,192(s2)
 17e:	0100                	addi	s0,sp,128
 180:	0c090503          	lb	a0,192(s2)
 184:	0100                	addi	s0,sp,128
 186:	0c090503          	lb	a0,192(s2)
 18a:	0100                	addi	s0,sp,128
 18c:	0c090503          	lb	a0,192(s2)
 190:	0100                	addi	s0,sp,128
 192:	0c090503          	lb	a0,192(s2)
 196:	0100                	addi	s0,sp,128
 198:	0c090503          	lb	a0,192(s2)
 19c:	0100                	addi	s0,sp,128
 19e:	0c090503          	lb	a0,192(s2)
 1a2:	0100                	addi	s0,sp,128
 1a4:	0c090503          	lb	a0,192(s2)
 1a8:	0100                	addi	s0,sp,128
 1aa:	0c090503          	lb	a0,192(s2)
 1ae:	0100                	addi	s0,sp,128
 1b0:	0c090503          	lb	a0,192(s2)
 1b4:	0100                	addi	s0,sp,128
 1b6:	0c090503          	lb	a0,192(s2)
 1ba:	0100                	addi	s0,sp,128
 1bc:	0c090503          	lb	a0,192(s2)
 1c0:	0100                	addi	s0,sp,128
 1c2:	0c090503          	lb	a0,192(s2)
 1c6:	0100                	addi	s0,sp,128
 1c8:	0c090503          	lb	a0,192(s2)
 1cc:	0100                	addi	s0,sp,128
 1ce:	0c090503          	lb	a0,192(s2)
 1d2:	0100                	addi	s0,sp,128
 1d4:	0c090503          	lb	a0,192(s2)
 1d8:	0100                	addi	s0,sp,128
 1da:	0c090503          	lb	a0,192(s2)
 1de:	0100                	addi	s0,sp,128
 1e0:	0c090503          	lb	a0,192(s2)
 1e4:	0100                	addi	s0,sp,128
 1e6:	0c090503          	lb	a0,192(s2)
 1ea:	0100                	addi	s0,sp,128
 1ec:	0c090503          	lb	a0,192(s2)
 1f0:	0100                	addi	s0,sp,128
 1f2:	0c090503          	lb	a0,192(s2)
 1f6:	0100                	addi	s0,sp,128
 1f8:	0c090503          	lb	a0,192(s2)
 1fc:	0100                	addi	s0,sp,128
 1fe:	0c090503          	lb	a0,192(s2)
 202:	0100                	addi	s0,sp,128
 204:	0c090503          	lb	a0,192(s2)
 208:	0100                	addi	s0,sp,128
 20a:	0c090503          	lb	a0,192(s2)
 20e:	0100                	addi	s0,sp,128
 210:	10090503          	lb	a0,256(s2)
 214:	0100                	addi	s0,sp,128
 216:	10090503          	lb	a0,256(s2)
 21a:	0100                	addi	s0,sp,128
 21c:	10090503          	lb	a0,256(s2)
 220:	0100                	addi	s0,sp,128
 222:	10090503          	lb	a0,256(s2)
 226:	0100                	addi	s0,sp,128
 228:	10090503          	lb	a0,256(s2)
 22c:	0100                	addi	s0,sp,128
 22e:	10090503          	lb	a0,256(s2)
 232:	0100                	addi	s0,sp,128
 234:	10090503          	lb	a0,256(s2)
 238:	0100                	addi	s0,sp,128
 23a:	10090503          	lb	a0,256(s2)
 23e:	0100                	addi	s0,sp,128
 240:	10090503          	lb	a0,256(s2)
 244:	0100                	addi	s0,sp,128
 246:	10090503          	lb	a0,256(s2)
 24a:	0100                	addi	s0,sp,128
 24c:	10090503          	lb	a0,256(s2)
 250:	0100                	addi	s0,sp,128
 252:	10090503          	lb	a0,256(s2)
 256:	0100                	addi	s0,sp,128
 258:	10090503          	lb	a0,256(s2)
 25c:	0100                	addi	s0,sp,128
 25e:	10090503          	lb	a0,256(s2)
 262:	0100                	addi	s0,sp,128
 264:	10090503          	lb	a0,256(s2)
 268:	0100                	addi	s0,sp,128
 26a:	10090503          	lb	a0,256(s2)
 26e:	0100                	addi	s0,sp,128
 270:	10090503          	lb	a0,256(s2)
 274:	0100                	addi	s0,sp,128
 276:	10090503          	lb	a0,256(s2)
 27a:	0100                	addi	s0,sp,128
 27c:	0c090503          	lb	a0,192(s2)
 280:	0100                	addi	s0,sp,128
 282:	0c090503          	lb	a0,192(s2)
 286:	0100                	addi	s0,sp,128
 288:	0c090503          	lb	a0,192(s2)
 28c:	0100                	addi	s0,sp,128
 28e:	0c090503          	lb	a0,192(s2)
 292:	0100                	addi	s0,sp,128
 294:	0c090503          	lb	a0,192(s2)
 298:	0100                	addi	s0,sp,128
 29a:	0c090503          	lb	a0,192(s2)
 29e:	0100                	addi	s0,sp,128
 2a0:	0c090503          	lb	a0,192(s2)
 2a4:	0100                	addi	s0,sp,128
 2a6:	0c090503          	lb	a0,192(s2)
 2aa:	0100                	addi	s0,sp,128
 2ac:	0c090503          	lb	a0,192(s2)
 2b0:	0100                	addi	s0,sp,128
 2b2:	0c090503          	lb	a0,192(s2)
 2b6:	0100                	addi	s0,sp,128
 2b8:	0c090503          	lb	a0,192(s2)
 2bc:	0100                	addi	s0,sp,128
 2be:	0c090503          	lb	a0,192(s2)
 2c2:	0100                	addi	s0,sp,128
 2c4:	0c090503          	lb	a0,192(s2)
 2c8:	0100                	addi	s0,sp,128
 2ca:	0c090503          	lb	a0,192(s2)
 2ce:	0100                	addi	s0,sp,128
 2d0:	0c090503          	lb	a0,192(s2)
 2d4:	0100                	addi	s0,sp,128
 2d6:	0c090503          	lb	a0,192(s2)
 2da:	0100                	addi	s0,sp,128
 2dc:	0c090503          	lb	a0,192(s2)
 2e0:	0100                	addi	s0,sp,128
 2e2:	0c090503          	lb	a0,192(s2)
 2e6:	0100                	addi	s0,sp,128
 2e8:	0c090503          	lb	a0,192(s2)
 2ec:	0100                	addi	s0,sp,128
 2ee:	0c090503          	lb	a0,192(s2)
 2f2:	0100                	addi	s0,sp,128
 2f4:	0c090503          	lb	a0,192(s2)
 2f8:	0100                	addi	s0,sp,128
 2fa:	0c090503          	lb	a0,192(s2)
 2fe:	0100                	addi	s0,sp,128
 300:	10090503          	lb	a0,256(s2)
 304:	0100                	addi	s0,sp,128
 306:	10090503          	lb	a0,256(s2)
 30a:	0100                	addi	s0,sp,128
 30c:	10090503          	lb	a0,256(s2)
 310:	0100                	addi	s0,sp,128
 312:	10090503          	lb	a0,256(s2)
 316:	0100                	addi	s0,sp,128
 318:	10090503          	lb	a0,256(s2)
 31c:	0100                	addi	s0,sp,128
 31e:	10090503          	lb	a0,256(s2)
 322:	0100                	addi	s0,sp,128
 324:	10090503          	lb	a0,256(s2)
 328:	0100                	addi	s0,sp,128
 32a:	10090503          	lb	a0,256(s2)
 32e:	0100                	addi	s0,sp,128
 330:	10090503          	lb	a0,256(s2)
 334:	0100                	addi	s0,sp,128
 336:	10090503          	lb	a0,256(s2)
 33a:	0100                	addi	s0,sp,128
 33c:	10090503          	lb	a0,256(s2)
 340:	0100                	addi	s0,sp,128
 342:	10090503          	lb	a0,256(s2)
 346:	0100                	addi	s0,sp,128
 348:	10090503          	lb	a0,256(s2)
 34c:	0100                	addi	s0,sp,128
 34e:	10090503          	lb	a0,256(s2)
 352:	0100                	addi	s0,sp,128
 354:	10090503          	lb	a0,256(s2)
 358:	0100                	addi	s0,sp,128
 35a:	10090503          	lb	a0,256(s2)
 35e:	0100                	addi	s0,sp,128
 360:	10090503          	lb	a0,256(s2)
 364:	0100                	addi	s0,sp,128
 366:	10090503          	lb	a0,256(s2)
 36a:	0100                	addi	s0,sp,128
 36c:	10090503          	lb	a0,256(s2)
 370:	0100                	addi	s0,sp,128
 372:	10090503          	lb	a0,256(s2)
 376:	0100                	addi	s0,sp,128
 378:	10090503          	lb	a0,256(s2)
 37c:	0100                	addi	s0,sp,128
 37e:	10090503          	lb	a0,256(s2)
 382:	0100                	addi	s0,sp,128
 384:	10090503          	lb	a0,256(s2)
 388:	0100                	addi	s0,sp,128
 38a:	10090503          	lb	a0,256(s2)
 38e:	0100                	addi	s0,sp,128
 390:	10090503          	lb	a0,256(s2)
 394:	0100                	addi	s0,sp,128
 396:	10090503          	lb	a0,256(s2)
 39a:	0100                	addi	s0,sp,128
 39c:	10090503          	lb	a0,256(s2)
 3a0:	0100                	addi	s0,sp,128
 3a2:	10090503          	lb	a0,256(s2)
 3a6:	0100                	addi	s0,sp,128
 3a8:	10090503          	lb	a0,256(s2)
 3ac:	0100                	addi	s0,sp,128
 3ae:	10090503          	lb	a0,256(s2)
 3b2:	0100                	addi	s0,sp,128
 3b4:	10090503          	lb	a0,256(s2)
 3b8:	0100                	addi	s0,sp,128
 3ba:	10090503          	lb	a0,256(s2)
 3be:	0100                	addi	s0,sp,128
 3c0:	10090503          	lb	a0,256(s2)
 3c4:	0100                	addi	s0,sp,128
 3c6:	10090503          	lb	a0,256(s2)
 3ca:	0100                	addi	s0,sp,128
 3cc:	10090503          	lb	a0,256(s2)
 3d0:	0100                	addi	s0,sp,128
 3d2:	10090503          	lb	a0,256(s2)
 3d6:	0100                	addi	s0,sp,128
 3d8:	10090503          	lb	a0,256(s2)
 3dc:	0100                	addi	s0,sp,128
 3de:	10090503          	lb	a0,256(s2)
 3e2:	0100                	addi	s0,sp,128
 3e4:	10090503          	lb	a0,256(s2)
 3e8:	0100                	addi	s0,sp,128
 3ea:	10090503          	lb	a0,256(s2)
 3ee:	0100                	addi	s0,sp,128
 3f0:	10090503          	lb	a0,256(s2)
 3f4:	0100                	addi	s0,sp,128
 3f6:	10090503          	lb	a0,256(s2)
 3fa:	0100                	addi	s0,sp,128
 3fc:	10090503          	lb	a0,256(s2)
 400:	0100                	addi	s0,sp,128
 402:	10090503          	lb	a0,256(s2)
 406:	0100                	addi	s0,sp,128
 408:	0c090503          	lb	a0,192(s2)
 40c:	0100                	addi	s0,sp,128
 40e:	0c090503          	lb	a0,192(s2)
 412:	0100                	addi	s0,sp,128
 414:	0c090503          	lb	a0,192(s2)
 418:	0100                	addi	s0,sp,128
 41a:	0c090503          	lb	a0,192(s2)
 41e:	0100                	addi	s0,sp,128
 420:	0c090503          	lb	a0,192(s2)
 424:	0100                	addi	s0,sp,128
 426:	0c090503          	lb	a0,192(s2)
 42a:	0100                	addi	s0,sp,128
 42c:	0c090503          	lb	a0,192(s2)
 430:	0100                	addi	s0,sp,128
 432:	0c090503          	lb	a0,192(s2)
 436:	0100                	addi	s0,sp,128
 438:	0c090503          	lb	a0,192(s2)
 43c:	0100                	addi	s0,sp,128
 43e:	0c090503          	lb	a0,192(s2)
 442:	0100                	addi	s0,sp,128
 444:	0c090503          	lb	a0,192(s2)
 448:	0100                	addi	s0,sp,128
 44a:	0c090503          	lb	a0,192(s2)
 44e:	0100                	addi	s0,sp,128
 450:	0c090503          	lb	a0,192(s2)
 454:	0100                	addi	s0,sp,128
 456:	0c090503          	lb	a0,192(s2)
 45a:	0100                	addi	s0,sp,128
 45c:	0c090503          	lb	a0,192(s2)
 460:	0100                	addi	s0,sp,128
 462:	0c090503          	lb	a0,192(s2)
 466:	0100                	addi	s0,sp,128
 468:	0c090503          	lb	a0,192(s2)
 46c:	0100                	addi	s0,sp,128
 46e:	0c090503          	lb	a0,192(s2)
 472:	0100                	addi	s0,sp,128
 474:	0c090503          	lb	a0,192(s2)
 478:	0100                	addi	s0,sp,128
 47a:	0c090503          	lb	a0,192(s2)
 47e:	0100                	addi	s0,sp,128
 480:	0c090503          	lb	a0,192(s2)
 484:	0100                	addi	s0,sp,128
 486:	0c090503          	lb	a0,192(s2)
 48a:	0100                	addi	s0,sp,128
 48c:	10090503          	lb	a0,256(s2)
 490:	0100                	addi	s0,sp,128
 492:	10090503          	lb	a0,256(s2)
 496:	0100                	addi	s0,sp,128
 498:	10090503          	lb	a0,256(s2)
 49c:	0100                	addi	s0,sp,128
 49e:	10090503          	lb	a0,256(s2)
 4a2:	0100                	addi	s0,sp,128
 4a4:	10090503          	lb	a0,256(s2)
 4a8:	0100                	addi	s0,sp,128
 4aa:	10090503          	lb	a0,256(s2)
 4ae:	0100                	addi	s0,sp,128
 4b0:	10090503          	lb	a0,256(s2)
 4b4:	0100                	addi	s0,sp,128
 4b6:	10090503          	lb	a0,256(s2)
 4ba:	0100                	addi	s0,sp,128
 4bc:	10090503          	lb	a0,256(s2)
 4c0:	0100                	addi	s0,sp,128
 4c2:	10090503          	lb	a0,256(s2)
 4c6:	0100                	addi	s0,sp,128
 4c8:	10090503          	lb	a0,256(s2)
 4cc:	0100                	addi	s0,sp,128
 4ce:	10090503          	lb	a0,256(s2)
 4d2:	0100                	addi	s0,sp,128
 4d4:	10090503          	lb	a0,256(s2)
 4d8:	0100                	addi	s0,sp,128
 4da:	10090503          	lb	a0,256(s2)
 4de:	0100                	addi	s0,sp,128
 4e0:	10090503          	lb	a0,256(s2)
 4e4:	0100                	addi	s0,sp,128
 4e6:	10090503          	lb	a0,256(s2)
 4ea:	0100                	addi	s0,sp,128
 4ec:	10090503          	lb	a0,256(s2)
 4f0:	0100                	addi	s0,sp,128
 4f2:	10090503          	lb	a0,256(s2)
 4f6:	0100                	addi	s0,sp,128
 4f8:	10090503          	lb	a0,256(s2)
 4fc:	0100                	addi	s0,sp,128
 4fe:	10090503          	lb	a0,256(s2)
 502:	0100                	addi	s0,sp,128
 504:	10090503          	lb	a0,256(s2)
 508:	0100                	addi	s0,sp,128
 50a:	10090503          	lb	a0,256(s2)
 50e:	0100                	addi	s0,sp,128
 510:	10090503          	lb	a0,256(s2)
 514:	0100                	addi	s0,sp,128
 516:	10090503          	lb	a0,256(s2)
 51a:	0100                	addi	s0,sp,128
 51c:	10090503          	lb	a0,256(s2)
 520:	0100                	addi	s0,sp,128
 522:	10090503          	lb	a0,256(s2)
 526:	0100                	addi	s0,sp,128
 528:	10090503          	lb	a0,256(s2)
 52c:	0100                	addi	s0,sp,128
 52e:	10090503          	lb	a0,256(s2)
 532:	0100                	addi	s0,sp,128
 534:	10090503          	lb	a0,256(s2)
 538:	0100                	addi	s0,sp,128
 53a:	10090503          	lb	a0,256(s2)
 53e:	0100                	addi	s0,sp,128
 540:	10090503          	lb	a0,256(s2)
 544:	0100                	addi	s0,sp,128
 546:	10090503          	lb	a0,256(s2)
 54a:	0100                	addi	s0,sp,128
 54c:	10090503          	lb	a0,256(s2)
 550:	0100                	addi	s0,sp,128
 552:	10090503          	lb	a0,256(s2)
 556:	0100                	addi	s0,sp,128
 558:	10090503          	lb	a0,256(s2)
 55c:	0100                	addi	s0,sp,128
 55e:	10090503          	lb	a0,256(s2)
 562:	0100                	addi	s0,sp,128
 564:	10090503          	lb	a0,256(s2)
 568:	0100                	addi	s0,sp,128
 56a:	10090503          	lb	a0,256(s2)
 56e:	0100                	addi	s0,sp,128
 570:	10090503          	lb	a0,256(s2)
 574:	0100                	addi	s0,sp,128
 576:	10090503          	lb	a0,256(s2)
 57a:	0100                	addi	s0,sp,128
 57c:	10090503          	lb	a0,256(s2)
 580:	0100                	addi	s0,sp,128
 582:	10090503          	lb	a0,256(s2)
 586:	0100                	addi	s0,sp,128
 588:	10090503          	lb	a0,256(s2)
 58c:	0100                	addi	s0,sp,128
 58e:	10090503          	lb	a0,256(s2)
 592:	0100                	addi	s0,sp,128
 594:	10090503          	lb	a0,256(s2)
 598:	0100                	addi	s0,sp,128
 59a:	10090503          	lb	a0,256(s2)
 59e:	0100                	addi	s0,sp,128
 5a0:	10090503          	lb	a0,256(s2)
 5a4:	0100                	addi	s0,sp,128
 5a6:	10090503          	lb	a0,256(s2)
 5aa:	0100                	addi	s0,sp,128
 5ac:	10090503          	lb	a0,256(s2)
 5b0:	0100                	addi	s0,sp,128
 5b2:	10090503          	lb	a0,256(s2)
 5b6:	0100                	addi	s0,sp,128
 5b8:	10090503          	lb	a0,256(s2)
 5bc:	0100                	addi	s0,sp,128
 5be:	10090503          	lb	a0,256(s2)
 5c2:	0100                	addi	s0,sp,128
 5c4:	10090503          	lb	a0,256(s2)
 5c8:	0100                	addi	s0,sp,128
 5ca:	10090503          	lb	a0,256(s2)
 5ce:	0100                	addi	s0,sp,128
 5d0:	10090503          	lb	a0,256(s2)
 5d4:	0100                	addi	s0,sp,128
 5d6:	10090503          	lb	a0,256(s2)
 5da:	0100                	addi	s0,sp,128
 5dc:	10090503          	lb	a0,256(s2)
 5e0:	0100                	addi	s0,sp,128
 5e2:	10090503          	lb	a0,256(s2)
 5e6:	0100                	addi	s0,sp,128
 5e8:	10090503          	lb	a0,256(s2)
 5ec:	0100                	addi	s0,sp,128
 5ee:	10090503          	lb	a0,256(s2)
 5f2:	0100                	addi	s0,sp,128
 5f4:	10090503          	lb	a0,256(s2)
 5f8:	0100                	addi	s0,sp,128
 5fa:	10090503          	lb	a0,256(s2)
 5fe:	0100                	addi	s0,sp,128
 600:	10090503          	lb	a0,256(s2)
 604:	0100                	addi	s0,sp,128
 606:	10090503          	lb	a0,256(s2)
 60a:	0100                	addi	s0,sp,128
 60c:	10090503          	lb	a0,256(s2)
 610:	0100                	addi	s0,sp,128
 612:	10090503          	lb	a0,256(s2)
 616:	0100                	addi	s0,sp,128
 618:	10090503          	lb	a0,256(s2)
 61c:	0100                	addi	s0,sp,128
 61e:	10090503          	lb	a0,256(s2)
 622:	0100                	addi	s0,sp,128
 624:	10090503          	lb	a0,256(s2)
 628:	0100                	addi	s0,sp,128
 62a:	10090503          	lb	a0,256(s2)
 62e:	0100                	addi	s0,sp,128
 630:	10090503          	lb	a0,256(s2)
 634:	0100                	addi	s0,sp,128
 636:	10090503          	lb	a0,256(s2)
 63a:	0100                	addi	s0,sp,128
 63c:	10090503          	lb	a0,256(s2)
 640:	0100                	addi	s0,sp,128
 642:	10090503          	lb	a0,256(s2)
 646:	0100                	addi	s0,sp,128
 648:	10090503          	lb	a0,256(s2)
 64c:	0100                	addi	s0,sp,128
 64e:	10090503          	lb	a0,256(s2)
 652:	0100                	addi	s0,sp,128
 654:	10090503          	lb	a0,256(s2)
 658:	0100                	addi	s0,sp,128
 65a:	10090503          	lb	a0,256(s2)
 65e:	0100                	addi	s0,sp,128
 660:	10090503          	lb	a0,256(s2)
 664:	0100                	addi	s0,sp,128
 666:	10090503          	lb	a0,256(s2)
 66a:	0100                	addi	s0,sp,128
 66c:	10090503          	lb	a0,256(s2)
 670:	0100                	addi	s0,sp,128
 672:	10090503          	lb	a0,256(s2)
 676:	0100                	addi	s0,sp,128
 678:	10090503          	lb	a0,256(s2)
 67c:	0100                	addi	s0,sp,128
 67e:	10090503          	lb	a0,256(s2)
 682:	0100                	addi	s0,sp,128
 684:	10090503          	lb	a0,256(s2)
 688:	0100                	addi	s0,sp,128
 68a:	10090503          	lb	a0,256(s2)
 68e:	0100                	addi	s0,sp,128
 690:	10090503          	lb	a0,256(s2)
 694:	0100                	addi	s0,sp,128
 696:	10090503          	lb	a0,256(s2)
 69a:	0100                	addi	s0,sp,128
 69c:	0c090503          	lb	a0,192(s2)
 6a0:	0100                	addi	s0,sp,128
 6a2:	0c090503          	lb	a0,192(s2)
 6a6:	0100                	addi	s0,sp,128
 6a8:	0c090503          	lb	a0,192(s2)
 6ac:	0100                	addi	s0,sp,128
 6ae:	0c090503          	lb	a0,192(s2)
 6b2:	0100                	addi	s0,sp,128
 6b4:	0c090503          	lb	a0,192(s2)
 6b8:	0100                	addi	s0,sp,128
 6ba:	0c090503          	lb	a0,192(s2)
 6be:	0100                	addi	s0,sp,128
 6c0:	0c090503          	lb	a0,192(s2)
 6c4:	0100                	addi	s0,sp,128
 6c6:	0c090503          	lb	a0,192(s2)
 6ca:	0100                	addi	s0,sp,128
 6cc:	0c090503          	lb	a0,192(s2)
 6d0:	0100                	addi	s0,sp,128
 6d2:	0c090503          	lb	a0,192(s2)
 6d6:	0100                	addi	s0,sp,128
 6d8:	0c090503          	lb	a0,192(s2)
 6dc:	0100                	addi	s0,sp,128
 6de:	0c090503          	lb	a0,192(s2)
 6e2:	0100                	addi	s0,sp,128
 6e4:	0c090503          	lb	a0,192(s2)
 6e8:	0100                	addi	s0,sp,128
 6ea:	0c090503          	lb	a0,192(s2)
 6ee:	0100                	addi	s0,sp,128
 6f0:	0c090503          	lb	a0,192(s2)
 6f4:	0100                	addi	s0,sp,128
 6f6:	0c090503          	lb	a0,192(s2)
 6fa:	0100                	addi	s0,sp,128
 6fc:	0c090503          	lb	a0,192(s2)
 700:	0100                	addi	s0,sp,128
 702:	0c090503          	lb	a0,192(s2)
 706:	0100                	addi	s0,sp,128
 708:	0c090503          	lb	a0,192(s2)
 70c:	0100                	addi	s0,sp,128
 70e:	0c090503          	lb	a0,192(s2)
 712:	0100                	addi	s0,sp,128
 714:	0c090503          	lb	a0,192(s2)
 718:	0100                	addi	s0,sp,128
 71a:	0c090503          	lb	a0,192(s2)
 71e:	0100                	addi	s0,sp,128
 720:	10090503          	lb	a0,256(s2)
 724:	0100                	addi	s0,sp,128
 726:	10090503          	lb	a0,256(s2)
 72a:	0100                	addi	s0,sp,128
 72c:	10090503          	lb	a0,256(s2)
 730:	0100                	addi	s0,sp,128
 732:	10090503          	lb	a0,256(s2)
 736:	0100                	addi	s0,sp,128
 738:	10090503          	lb	a0,256(s2)
 73c:	0100                	addi	s0,sp,128
 73e:	10090503          	lb	a0,256(s2)
 742:	0100                	addi	s0,sp,128
 744:	10090503          	lb	a0,256(s2)
 748:	0100                	addi	s0,sp,128
 74a:	10090503          	lb	a0,256(s2)
 74e:	0100                	addi	s0,sp,128
 750:	10090503          	lb	a0,256(s2)
 754:	0100                	addi	s0,sp,128
 756:	10090503          	lb	a0,256(s2)
 75a:	0100                	addi	s0,sp,128
 75c:	10090503          	lb	a0,256(s2)
 760:	0100                	addi	s0,sp,128
 762:	10090503          	lb	a0,256(s2)
 766:	0100                	addi	s0,sp,128
 768:	10090503          	lb	a0,256(s2)
 76c:	0100                	addi	s0,sp,128
 76e:	10090503          	lb	a0,256(s2)
 772:	0100                	addi	s0,sp,128
 774:	10090503          	lb	a0,256(s2)
 778:	0100                	addi	s0,sp,128
 77a:	10090503          	lb	a0,256(s2)
 77e:	0100                	addi	s0,sp,128
 780:	10090503          	lb	a0,256(s2)
 784:	0100                	addi	s0,sp,128
 786:	10090503          	lb	a0,256(s2)
 78a:	0100                	addi	s0,sp,128
 78c:	10090503          	lb	a0,256(s2)
 790:	0100                	addi	s0,sp,128
 792:	10090503          	lb	a0,256(s2)
 796:	0100                	addi	s0,sp,128
 798:	10090503          	lb	a0,256(s2)
 79c:	0100                	addi	s0,sp,128
 79e:	10090503          	lb	a0,256(s2)
 7a2:	0100                	addi	s0,sp,128
 7a4:	0c090503          	lb	a0,192(s2)
 7a8:	0100                	addi	s0,sp,128
 7aa:	0c090503          	lb	a0,192(s2)
 7ae:	0100                	addi	s0,sp,128
 7b0:	0c090503          	lb	a0,192(s2)
 7b4:	0100                	addi	s0,sp,128
 7b6:	0c090503          	lb	a0,192(s2)
 7ba:	0100                	addi	s0,sp,128
 7bc:	0c090503          	lb	a0,192(s2)
 7c0:	0100                	addi	s0,sp,128
 7c2:	0c090503          	lb	a0,192(s2)
 7c6:	0100                	addi	s0,sp,128
 7c8:	0c090503          	lb	a0,192(s2)
 7cc:	0100                	addi	s0,sp,128
 7ce:	0c090503          	lb	a0,192(s2)
 7d2:	0100                	addi	s0,sp,128
 7d4:	10090503          	lb	a0,256(s2)
 7d8:	0100                	addi	s0,sp,128
 7da:	10090503          	lb	a0,256(s2)
 7de:	0100                	addi	s0,sp,128
 7e0:	10090503          	lb	a0,256(s2)
 7e4:	0100                	addi	s0,sp,128
 7e6:	10090503          	lb	a0,256(s2)
 7ea:	0100                	addi	s0,sp,128
 7ec:	10090503          	lb	a0,256(s2)
 7f0:	0100                	addi	s0,sp,128
 7f2:	10090503          	lb	a0,256(s2)
 7f6:	0100                	addi	s0,sp,128
 7f8:	10090503          	lb	a0,256(s2)
 7fc:	0100                	addi	s0,sp,128
 7fe:	10090503          	lb	a0,256(s2)
 802:	0100                	addi	s0,sp,128
 804:	10090503          	lb	a0,256(s2)
 808:	0100                	addi	s0,sp,128
 80a:	10090503          	lb	a0,256(s2)
 80e:	0100                	addi	s0,sp,128
 810:	10090503          	lb	a0,256(s2)
 814:	0100                	addi	s0,sp,128
 816:	10090503          	lb	a0,256(s2)
 81a:	0100                	addi	s0,sp,128
 81c:	10090503          	lb	a0,256(s2)
 820:	0100                	addi	s0,sp,128
 822:	10090503          	lb	a0,256(s2)
 826:	0100                	addi	s0,sp,128
 828:	10090503          	lb	a0,256(s2)
 82c:	0100                	addi	s0,sp,128
 82e:	10090503          	lb	a0,256(s2)
 832:	0100                	addi	s0,sp,128
 834:	10090503          	lb	a0,256(s2)
 838:	0100                	addi	s0,sp,128
 83a:	10090503          	lb	a0,256(s2)
 83e:	0100                	addi	s0,sp,128
 840:	10090503          	lb	a0,256(s2)
 844:	0100                	addi	s0,sp,128
 846:	10090503          	lb	a0,256(s2)
 84a:	0100                	addi	s0,sp,128
 84c:	10090503          	lb	a0,256(s2)
 850:	0100                	addi	s0,sp,128
 852:	10090503          	lb	a0,256(s2)
 856:	0100                	addi	s0,sp,128
 858:	10090503          	lb	a0,256(s2)
 85c:	0100                	addi	s0,sp,128
 85e:	10090503          	lb	a0,256(s2)
 862:	0100                	addi	s0,sp,128
 864:	10090503          	lb	a0,256(s2)
 868:	0100                	addi	s0,sp,128
 86a:	10090503          	lb	a0,256(s2)
 86e:	0100                	addi	s0,sp,128
 870:	10090503          	lb	a0,256(s2)
 874:	0100                	addi	s0,sp,128
 876:	10090503          	lb	a0,256(s2)
 87a:	0100                	addi	s0,sp,128
 87c:	10090503          	lb	a0,256(s2)
 880:	0100                	addi	s0,sp,128
 882:	10090503          	lb	a0,256(s2)
 886:	0100                	addi	s0,sp,128
 888:	10090503          	lb	a0,256(s2)
 88c:	0100                	addi	s0,sp,128
 88e:	10090503          	lb	a0,256(s2)
 892:	0100                	addi	s0,sp,128
 894:	10090503          	lb	a0,256(s2)
 898:	0100                	addi	s0,sp,128
 89a:	10090503          	lb	a0,256(s2)
 89e:	0100                	addi	s0,sp,128
 8a0:	10090503          	lb	a0,256(s2)
 8a4:	0100                	addi	s0,sp,128
 8a6:	10090503          	lb	a0,256(s2)
 8aa:	0100                	addi	s0,sp,128
 8ac:	10090503          	lb	a0,256(s2)
 8b0:	0100                	addi	s0,sp,128
 8b2:	10090503          	lb	a0,256(s2)
 8b6:	0100                	addi	s0,sp,128
 8b8:	10090503          	lb	a0,256(s2)
 8bc:	0100                	addi	s0,sp,128
 8be:	10090503          	lb	a0,256(s2)
 8c2:	0100                	addi	s0,sp,128
 8c4:	10090503          	lb	a0,256(s2)
 8c8:	0100                	addi	s0,sp,128
 8ca:	10090503          	lb	a0,256(s2)
 8ce:	0100                	addi	s0,sp,128
 8d0:	10090503          	lb	a0,256(s2)
 8d4:	0100                	addi	s0,sp,128
 8d6:	10090503          	lb	a0,256(s2)
 8da:	0100                	addi	s0,sp,128
 8dc:	10090503          	lb	a0,256(s2)
 8e0:	0100                	addi	s0,sp,128
 8e2:	10090503          	lb	a0,256(s2)
 8e6:	0100                	addi	s0,sp,128
 8e8:	10090503          	lb	a0,256(s2)
 8ec:	0100                	addi	s0,sp,128
 8ee:	10090503          	lb	a0,256(s2)
 8f2:	0100                	addi	s0,sp,128
 8f4:	10090503          	lb	a0,256(s2)
 8f8:	0100                	addi	s0,sp,128
 8fa:	10090503          	lb	a0,256(s2)
 8fe:	0100                	addi	s0,sp,128
 900:	10090503          	lb	a0,256(s2)
 904:	0100                	addi	s0,sp,128
 906:	10090503          	lb	a0,256(s2)
 90a:	0100                	addi	s0,sp,128
 90c:	10090503          	lb	a0,256(s2)
 910:	0100                	addi	s0,sp,128
 912:	10090503          	lb	a0,256(s2)
 916:	0100                	addi	s0,sp,128
 918:	10090503          	lb	a0,256(s2)
 91c:	0100                	addi	s0,sp,128
 91e:	10090503          	lb	a0,256(s2)
 922:	0100                	addi	s0,sp,128
 924:	10090503          	lb	a0,256(s2)
 928:	0100                	addi	s0,sp,128
 92a:	10090503          	lb	a0,256(s2)
 92e:	0100                	addi	s0,sp,128
 930:	10090503          	lb	a0,256(s2)
 934:	0100                	addi	s0,sp,128
 936:	10090503          	lb	a0,256(s2)
 93a:	0100                	addi	s0,sp,128
 93c:	10090503          	lb	a0,256(s2)
 940:	0100                	addi	s0,sp,128
 942:	10090503          	lb	a0,256(s2)
 946:	0100                	addi	s0,sp,128
 948:	10090503          	lb	a0,256(s2)
 94c:	0100                	addi	s0,sp,128
 94e:	10090503          	lb	a0,256(s2)
 952:	0100                	addi	s0,sp,128
 954:	10090503          	lb	a0,256(s2)
 958:	0100                	addi	s0,sp,128
 95a:	10090503          	lb	a0,256(s2)
 95e:	0100                	addi	s0,sp,128
 960:	10090503          	lb	a0,256(s2)
 964:	0100                	addi	s0,sp,128
 966:	10090503          	lb	a0,256(s2)
 96a:	0100                	addi	s0,sp,128
 96c:	10090503          	lb	a0,256(s2)
 970:	0100                	addi	s0,sp,128
 972:	10090503          	lb	a0,256(s2)
 976:	0100                	addi	s0,sp,128
 978:	10090503          	lb	a0,256(s2)
 97c:	0100                	addi	s0,sp,128
 97e:	10090503          	lb	a0,256(s2)
 982:	0100                	addi	s0,sp,128
 984:	10090503          	lb	a0,256(s2)
 988:	0100                	addi	s0,sp,128
 98a:	10090503          	lb	a0,256(s2)
 98e:	0100                	addi	s0,sp,128
 990:	10090503          	lb	a0,256(s2)
 994:	0100                	addi	s0,sp,128
 996:	10090503          	lb	a0,256(s2)
 99a:	0100                	addi	s0,sp,128
 99c:	0c090503          	lb	a0,192(s2)
 9a0:	0100                	addi	s0,sp,128
 9a2:	0c090503          	lb	a0,192(s2)
 9a6:	0100                	addi	s0,sp,128
 9a8:	0c090503          	lb	a0,192(s2)
 9ac:	0100                	addi	s0,sp,128
 9ae:	0c090503          	lb	a0,192(s2)
 9b2:	0100                	addi	s0,sp,128
 9b4:	0c090503          	lb	a0,192(s2)
 9b8:	0100                	addi	s0,sp,128
 9ba:	0c090503          	lb	a0,192(s2)
 9be:	0100                	addi	s0,sp,128
 9c0:	0c090503          	lb	a0,192(s2)
 9c4:	0100                	addi	s0,sp,128
 9c6:	0c090503          	lb	a0,192(s2)
 9ca:	0100                	addi	s0,sp,128
 9cc:	0c090503          	lb	a0,192(s2)
 9d0:	0100                	addi	s0,sp,128
 9d2:	0c090503          	lb	a0,192(s2)
 9d6:	0100                	addi	s0,sp,128
 9d8:	0c090503          	lb	a0,192(s2)
 9dc:	0100                	addi	s0,sp,128
 9de:	0c090503          	lb	a0,192(s2)
 9e2:	0100                	addi	s0,sp,128
 9e4:	0c090503          	lb	a0,192(s2)
 9e8:	0100                	addi	s0,sp,128
 9ea:	0c090503          	lb	a0,192(s2)
 9ee:	0100                	addi	s0,sp,128
 9f0:	0c090503          	lb	a0,192(s2)
 9f4:	0100                	addi	s0,sp,128
 9f6:	0c090503          	lb	a0,192(s2)
 9fa:	0100                	addi	s0,sp,128
 9fc:	0c090503          	lb	a0,192(s2)
 a00:	0100                	addi	s0,sp,128
 a02:	0c090503          	lb	a0,192(s2)
 a06:	0100                	addi	s0,sp,128
 a08:	0c090503          	lb	a0,192(s2)
 a0c:	0100                	addi	s0,sp,128
 a0e:	0c090503          	lb	a0,192(s2)
 a12:	0100                	addi	s0,sp,128
 a14:	0c090503          	lb	a0,192(s2)
 a18:	0100                	addi	s0,sp,128
 a1a:	0c090503          	lb	a0,192(s2)
 a1e:	0100                	addi	s0,sp,128
 a20:	0c090503          	lb	a0,192(s2)
 a24:	0100                	addi	s0,sp,128
 a26:	0c090503          	lb	a0,192(s2)
 a2a:	0100                	addi	s0,sp,128
 a2c:	0c090503          	lb	a0,192(s2)
 a30:	0100                	addi	s0,sp,128
 a32:	0c090503          	lb	a0,192(s2)
 a36:	0100                	addi	s0,sp,128
 a38:	0c090503          	lb	a0,192(s2)
 a3c:	0100                	addi	s0,sp,128
 a3e:	0c090503          	lb	a0,192(s2)
 a42:	0100                	addi	s0,sp,128
 a44:	0c090503          	lb	a0,192(s2)
 a48:	0100                	addi	s0,sp,128
 a4a:	0c090503          	lb	a0,192(s2)
 a4e:	0100                	addi	s0,sp,128
 a50:	0c090503          	lb	a0,192(s2)
 a54:	0100                	addi	s0,sp,128
 a56:	0c090503          	lb	a0,192(s2)
 a5a:	0100                	addi	s0,sp,128
 a5c:	0c090503          	lb	a0,192(s2)
 a60:	0100                	addi	s0,sp,128
 a62:	0c090503          	lb	a0,192(s2)
 a66:	0100                	addi	s0,sp,128
 a68:	0c090503          	lb	a0,192(s2)
 a6c:	0100                	addi	s0,sp,128
 a6e:	10090503          	lb	a0,256(s2)
 a72:	0100                	addi	s0,sp,128
 a74:	10090503          	lb	a0,256(s2)
 a78:	0100                	addi	s0,sp,128
 a7a:	10090503          	lb	a0,256(s2)
 a7e:	0100                	addi	s0,sp,128
 a80:	10090503          	lb	a0,256(s2)
 a84:	0100                	addi	s0,sp,128
 a86:	10090503          	lb	a0,256(s2)
 a8a:	0100                	addi	s0,sp,128
 a8c:	10090503          	lb	a0,256(s2)
 a90:	0100                	addi	s0,sp,128
 a92:	10090503          	lb	a0,256(s2)
 a96:	0100                	addi	s0,sp,128
 a98:	10090503          	lb	a0,256(s2)
 a9c:	0100                	addi	s0,sp,128
 a9e:	10090503          	lb	a0,256(s2)
 aa2:	0100                	addi	s0,sp,128
 aa4:	10090503          	lb	a0,256(s2)
 aa8:	0100                	addi	s0,sp,128
 aaa:	10090503          	lb	a0,256(s2)
 aae:	0100                	addi	s0,sp,128
 ab0:	10090503          	lb	a0,256(s2)
 ab4:	0100                	addi	s0,sp,128
 ab6:	10090503          	lb	a0,256(s2)
 aba:	0100                	addi	s0,sp,128
 abc:	10090503          	lb	a0,256(s2)
 ac0:	0100                	addi	s0,sp,128
 ac2:	10090503          	lb	a0,256(s2)
 ac6:	0100                	addi	s0,sp,128
 ac8:	10090503          	lb	a0,256(s2)
 acc:	0100                	addi	s0,sp,128
 ace:	10090503          	lb	a0,256(s2)
 ad2:	0100                	addi	s0,sp,128
 ad4:	10090503          	lb	a0,256(s2)
 ad8:	0100                	addi	s0,sp,128
 ada:	10090503          	lb	a0,256(s2)
 ade:	0100                	addi	s0,sp,128
 ae0:	10090503          	lb	a0,256(s2)
 ae4:	0100                	addi	s0,sp,128
 ae6:	10090503          	lb	a0,256(s2)
 aea:	0100                	addi	s0,sp,128
 aec:	10090503          	lb	a0,256(s2)
 af0:	0100                	addi	s0,sp,128
 af2:	10090503          	lb	a0,256(s2)
 af6:	0100                	addi	s0,sp,128
 af8:	10090503          	lb	a0,256(s2)
 afc:	0100                	addi	s0,sp,128
 afe:	10090503          	lb	a0,256(s2)
 b02:	0100                	addi	s0,sp,128
 b04:	10090503          	lb	a0,256(s2)
 b08:	0100                	addi	s0,sp,128
 b0a:	10090503          	lb	a0,256(s2)
 b0e:	0100                	addi	s0,sp,128
 b10:	10090503          	lb	a0,256(s2)
 b14:	0100                	addi	s0,sp,128
 b16:	10090503          	lb	a0,256(s2)
 b1a:	0100                	addi	s0,sp,128
 b1c:	10090503          	lb	a0,256(s2)
 b20:	0100                	addi	s0,sp,128
 b22:	10090503          	lb	a0,256(s2)
 b26:	0100                	addi	s0,sp,128
 b28:	10090503          	lb	a0,256(s2)
 b2c:	0100                	addi	s0,sp,128
 b2e:	10090503          	lb	a0,256(s2)
 b32:	0100                	addi	s0,sp,128
 b34:	10090503          	lb	a0,256(s2)
 b38:	0100                	addi	s0,sp,128
 b3a:	10090503          	lb	a0,256(s2)
 b3e:	0100                	addi	s0,sp,128
 b40:	10090503          	lb	a0,256(s2)
 b44:	0100                	addi	s0,sp,128
 b46:	10090503          	lb	a0,256(s2)
 b4a:	0100                	addi	s0,sp,128
 b4c:	10090503          	lb	a0,256(s2)
 b50:	0100                	addi	s0,sp,128
 b52:	10090503          	lb	a0,256(s2)
 b56:	0100                	addi	s0,sp,128
 b58:	10090503          	lb	a0,256(s2)
 b5c:	0100                	addi	s0,sp,128
 b5e:	10090503          	lb	a0,256(s2)
 b62:	0100                	addi	s0,sp,128
 b64:	10090503          	lb	a0,256(s2)
 b68:	0100                	addi	s0,sp,128
 b6a:	10090503          	lb	a0,256(s2)
 b6e:	0100                	addi	s0,sp,128
 b70:	10090503          	lb	a0,256(s2)
 b74:	0100                	addi	s0,sp,128
 b76:	10090503          	lb	a0,256(s2)
 b7a:	0100                	addi	s0,sp,128
 b7c:	10090503          	lb	a0,256(s2)
 b80:	0100                	addi	s0,sp,128
 b82:	10090503          	lb	a0,256(s2)
 b86:	0100                	addi	s0,sp,128
 b88:	10090503          	lb	a0,256(s2)
 b8c:	0100                	addi	s0,sp,128
 b8e:	10090503          	lb	a0,256(s2)
 b92:	0100                	addi	s0,sp,128
 b94:	10090503          	lb	a0,256(s2)
 b98:	0100                	addi	s0,sp,128
 b9a:	10090503          	lb	a0,256(s2)
 b9e:	0100                	addi	s0,sp,128
 ba0:	10090503          	lb	a0,256(s2)
 ba4:	0100                	addi	s0,sp,128
 ba6:	10090503          	lb	a0,256(s2)
 baa:	0100                	addi	s0,sp,128
 bac:	10090503          	lb	a0,256(s2)
 bb0:	0100                	addi	s0,sp,128
 bb2:	10090503          	lb	a0,256(s2)
 bb6:	0100                	addi	s0,sp,128
 bb8:	10090503          	lb	a0,256(s2)
 bbc:	0100                	addi	s0,sp,128
 bbe:	10090503          	lb	a0,256(s2)
 bc2:	0100                	addi	s0,sp,128
 bc4:	10090503          	lb	a0,256(s2)
 bc8:	0100                	addi	s0,sp,128
 bca:	10090503          	lb	a0,256(s2)
 bce:	0100                	addi	s0,sp,128
 bd0:	10090503          	lb	a0,256(s2)
 bd4:	0100                	addi	s0,sp,128
 bd6:	10090503          	lb	a0,256(s2)
 bda:	0100                	addi	s0,sp,128
 bdc:	10090503          	lb	a0,256(s2)
 be0:	0100                	addi	s0,sp,128
 be2:	10090503          	lb	a0,256(s2)
 be6:	0100                	addi	s0,sp,128
 be8:	10090503          	lb	a0,256(s2)
 bec:	0100                	addi	s0,sp,128
 bee:	10090503          	lb	a0,256(s2)
 bf2:	0100                	addi	s0,sp,128
 bf4:	10090503          	lb	a0,256(s2)
 bf8:	0100                	addi	s0,sp,128
 bfa:	10090503          	lb	a0,256(s2)
 bfe:	0100                	addi	s0,sp,128
 c00:	10090503          	lb	a0,256(s2)
 c04:	0100                	addi	s0,sp,128
 c06:	10090503          	lb	a0,256(s2)
 c0a:	0100                	addi	s0,sp,128
 c0c:	10090503          	lb	a0,256(s2)
 c10:	0100                	addi	s0,sp,128
 c12:	10090503          	lb	a0,256(s2)
 c16:	0100                	addi	s0,sp,128
 c18:	10090503          	lb	a0,256(s2)
 c1c:	0100                	addi	s0,sp,128
 c1e:	10090503          	lb	a0,256(s2)
 c22:	0100                	addi	s0,sp,128
 c24:	10090503          	lb	a0,256(s2)
 c28:	0100                	addi	s0,sp,128
 c2a:	10090503          	lb	a0,256(s2)
 c2e:	0100                	addi	s0,sp,128
 c30:	10090503          	lb	a0,256(s2)
 c34:	0100                	addi	s0,sp,128
 c36:	10090503          	lb	a0,256(s2)
 c3a:	0100                	addi	s0,sp,128
 c3c:	10090503          	lb	a0,256(s2)
 c40:	0100                	addi	s0,sp,128
 c42:	10090503          	lb	a0,256(s2)
 c46:	0100                	addi	s0,sp,128
 c48:	10090503          	lb	a0,256(s2)
 c4c:	0100                	addi	s0,sp,128
 c4e:	10090503          	lb	a0,256(s2)
 c52:	0100                	addi	s0,sp,128
 c54:	10090503          	lb	a0,256(s2)
 c58:	0100                	addi	s0,sp,128
 c5a:	10090503          	lb	a0,256(s2)
 c5e:	0100                	addi	s0,sp,128
 c60:	10090503          	lb	a0,256(s2)
 c64:	0100                	addi	s0,sp,128
 c66:	10090503          	lb	a0,256(s2)
 c6a:	0100                	addi	s0,sp,128
 c6c:	10090503          	lb	a0,256(s2)
 c70:	0100                	addi	s0,sp,128
 c72:	10090503          	lb	a0,256(s2)
 c76:	0100                	addi	s0,sp,128
 c78:	10090503          	lb	a0,256(s2)
 c7c:	0100                	addi	s0,sp,128
 c7e:	10090503          	lb	a0,256(s2)
 c82:	0100                	addi	s0,sp,128
 c84:	10090503          	lb	a0,256(s2)
 c88:	0100                	addi	s0,sp,128
 c8a:	10090503          	lb	a0,256(s2)
 c8e:	0100                	addi	s0,sp,128
 c90:	10090503          	lb	a0,256(s2)
 c94:	0100                	addi	s0,sp,128
 c96:	10090503          	lb	a0,256(s2)
 c9a:	0100                	addi	s0,sp,128
 c9c:	10090503          	lb	a0,256(s2)
 ca0:	0100                	addi	s0,sp,128
 ca2:	10090503          	lb	a0,256(s2)
 ca6:	0100                	addi	s0,sp,128
 ca8:	10090503          	lb	a0,256(s2)
 cac:	0100                	addi	s0,sp,128
 cae:	10090503          	lb	a0,256(s2)
 cb2:	0100                	addi	s0,sp,128
 cb4:	10090503          	lb	a0,256(s2)
 cb8:	0100                	addi	s0,sp,128
 cba:	10090503          	lb	a0,256(s2)
 cbe:	0100                	addi	s0,sp,128
 cc0:	10090503          	lb	a0,256(s2)
 cc4:	0100                	addi	s0,sp,128
 cc6:	10090503          	lb	a0,256(s2)
 cca:	0100                	addi	s0,sp,128
 ccc:	10090503          	lb	a0,256(s2)
 cd0:	0100                	addi	s0,sp,128
 cd2:	10090503          	lb	a0,256(s2)
 cd6:	0100                	addi	s0,sp,128
 cd8:	10090503          	lb	a0,256(s2)
 cdc:	0100                	addi	s0,sp,128
 cde:	10090503          	lb	a0,256(s2)
 ce2:	0100                	addi	s0,sp,128
 ce4:	10090503          	lb	a0,256(s2)
 ce8:	0100                	addi	s0,sp,128
 cea:	10090503          	lb	a0,256(s2)
 cee:	0100                	addi	s0,sp,128
 cf0:	10090503          	lb	a0,256(s2)
 cf4:	0100                	addi	s0,sp,128
 cf6:	10090503          	lb	a0,256(s2)
 cfa:	0100                	addi	s0,sp,128
 cfc:	10090503          	lb	a0,256(s2)
 d00:	0100                	addi	s0,sp,128
 d02:	0c090503          	lb	a0,192(s2)
 d06:	0100                	addi	s0,sp,128
 d08:	0c090103          	lb	sp,192(s2)
 d0c:	0100                	addi	s0,sp,128
 d0e:	08090503          	lb	a0,128(s2)
 d12:	0100                	addi	s0,sp,128
 d14:	0c090503          	lb	a0,192(s2)
 d18:	0100                	addi	s0,sp,128
 d1a:	0c090503          	lb	a0,192(s2)
 d1e:	0100                	addi	s0,sp,128
 d20:	0c090503          	lb	a0,192(s2)
 d24:	0100                	addi	s0,sp,128
 d26:	0c090503          	lb	a0,192(s2)
 d2a:	0100                	addi	s0,sp,128
 d2c:	0c090503          	lb	a0,192(s2)
 d30:	0100                	addi	s0,sp,128
 d32:	0c090503          	lb	a0,192(s2)
 d36:	0100                	addi	s0,sp,128
 d38:	0c090503          	lb	a0,192(s2)
 d3c:	0100                	addi	s0,sp,128
 d3e:	0c090503          	lb	a0,192(s2)
 d42:	0100                	addi	s0,sp,128
 d44:	0c090503          	lb	a0,192(s2)
 d48:	0100                	addi	s0,sp,128
 d4a:	0c090503          	lb	a0,192(s2)
 d4e:	0100                	addi	s0,sp,128
 d50:	0c090503          	lb	a0,192(s2)
 d54:	0100                	addi	s0,sp,128
 d56:	0c090503          	lb	a0,192(s2)
 d5a:	0100                	addi	s0,sp,128
 d5c:	0c090503          	lb	a0,192(s2)
 d60:	0100                	addi	s0,sp,128
 d62:	0c090503          	lb	a0,192(s2)
 d66:	0100                	addi	s0,sp,128
 d68:	0c090503          	lb	a0,192(s2)
 d6c:	0100                	addi	s0,sp,128
 d6e:	0c090503          	lb	a0,192(s2)
 d72:	0100                	addi	s0,sp,128
 d74:	0c090503          	lb	a0,192(s2)
 d78:	0100                	addi	s0,sp,128
 d7a:	0c090503          	lb	a0,192(s2)
 d7e:	0100                	addi	s0,sp,128
 d80:	0c090503          	lb	a0,192(s2)
 d84:	0100                	addi	s0,sp,128
 d86:	0c090503          	lb	a0,192(s2)
 d8a:	0100                	addi	s0,sp,128
 d8c:	10090503          	lb	a0,256(s2)
 d90:	0100                	addi	s0,sp,128
 d92:	10090503          	lb	a0,256(s2)
 d96:	0100                	addi	s0,sp,128
 d98:	10090503          	lb	a0,256(s2)
 d9c:	0100                	addi	s0,sp,128
 d9e:	10090503          	lb	a0,256(s2)
 da2:	0100                	addi	s0,sp,128
 da4:	10090503          	lb	a0,256(s2)
 da8:	0100                	addi	s0,sp,128
 daa:	10090503          	lb	a0,256(s2)
 dae:	0100                	addi	s0,sp,128
 db0:	10090503          	lb	a0,256(s2)
 db4:	0100                	addi	s0,sp,128
 db6:	10090503          	lb	a0,256(s2)
 dba:	0100                	addi	s0,sp,128
 dbc:	10090503          	lb	a0,256(s2)
 dc0:	0100                	addi	s0,sp,128
 dc2:	10090503          	lb	a0,256(s2)
 dc6:	0100                	addi	s0,sp,128
 dc8:	10090503          	lb	a0,256(s2)
 dcc:	0100                	addi	s0,sp,128
 dce:	1c090503          	lb	a0,448(s2)
 dd2:	0100                	addi	s0,sp,128
 dd4:	1409                	addi	s0,s0,-30
 dd6:	0000                	unimp
 dd8:	0101                	addi	sp,sp,0

Disassembly of section .debug_info:

00000000 <.debug_info>:
   0:	0022                	c.slli	zero,0x8
   2:	0000                	unimp
   4:	0002                	c.slli64	zero
   6:	0000                	unimp
   8:	0000                	unimp
   a:	0104                	addi	s1,sp,128
   c:	0000                	unimp
   e:	0000                	unimp
  10:	1000                	addi	s0,sp,32
  12:	0000                	unimp
  14:	31b4                	fld	fa3,96(a1)
  16:	0000                	unimp
  18:	0000                	unimp
  1a:	0000                	unimp
  1c:	004e                	c.slli	zero,0x13
  1e:	0000                	unimp
  20:	009f 0000 8001      	0x80010000009f

Disassembly of section .debug_abbrev:

00000000 <.debug_abbrev>:
   0:	1101                	addi	sp,sp,-32
   2:	1000                	addi	s0,sp,32
   4:	1106                	slli	sp,sp,0x21
   6:	1201                	addi	tp,tp,-32
   8:	0301                	addi	t1,t1,0
   a:	1b0e                	slli	s6,s6,0x23
   c:	250e                	fld	fa0,192(sp)
   e:	130e                	slli	t1,t1,0x23
  10:	0005                	c.nop	1
	...

Disassembly of section .debug_aranges:

00000000 <.debug_aranges>:
   0:	001c                	0x1c
   2:	0000                	unimp
   4:	0002                	c.slli64	zero
   6:	0000                	unimp
   8:	0000                	unimp
   a:	0004                	0x4
   c:	0000                	unimp
   e:	0000                	unimp
  10:	1000                	addi	s0,sp,32
  12:	0000                	unimp
  14:	21b4                	fld	fa3,64(a1)
	...

Disassembly of section .debug_str:

00000000 <.debug_str>:
   0:	6d6f682f          	0x6d6f682f
   4:	2f65                	jal	7bc <offset+0x73c>
   6:	6974                	flw	fa3,84(a0)
   8:	39726567          	0x39726567
   c:	7574                	flw	fa3,108(a0)
   e:	6f6f742f          	0x6f6f742f
  12:	736c                	flw	fa1,100(a4)
  14:	7369722f          	0x7369722f
  18:	612d7663          	bgeu	s10,s2,624 <offset+0x5a4>
  1c:	6372                	flw	ft6,28(sp)
  1e:	2d68                	fld	fa0,216(a0)
  20:	6574                	flw	fa3,76(a0)
  22:	722f7473          	csrrci	s0,0x722,30
  26:	7369                	lui	t1,0xffffa
  28:	742d7663          	bgeu	s10,sp,774 <offset+0x6f4>
  2c:	7365                	lui	t1,0xffff9
  2e:	2d74                	fld	fa3,216(a0)
  30:	74697573          	csrrci	a0,0x746,18
  34:	2f65                	jal	7ec <offset+0x76c>
  36:	7672                	flw	fa2,60(sp)
  38:	5f693233          	0x5f693233
  3c:	2f6d                	jal	7f6 <offset+0x776>
  3e:	2f49                	jal	7d0 <offset+0x750>
  40:	2f637273          	csrrci	tp,0x2f6,6
  44:	6f78                	flw	fa4,92(a4)
  46:	6972                	flw	fs2,28(sp)
  48:	302d                	jal	fffff872 <_end+0xffffa86e>
  4a:	2e31                	jal	366 <offset+0x2e6>
  4c:	682f0053          	0x682f0053
  50:	2f656d6f          	jal	s10,56346 <_end+0x51342>
  54:	6974                	flw	fa3,84(a0)
  56:	39726567          	0x39726567
  5a:	7574                	flw	fa3,108(a0)
  5c:	6f72702f          	0x6f72702f
  60:	2f6a                	fld	ft10,152(sp)
  62:	6179                	addi	sp,sp,464
  64:	6374                	flw	fa3,68(a4)
  66:	7570                	flw	fa2,108(a0)
  68:	7369722f          	0x7369722f
  6c:	2d666f63          	bltu	a2,s6,34a <offset+0x2ca>
  70:	6174                	flw	fa3,68(a0)
  72:	6772                	flw	fa4,28(sp)
  74:	7465                	lui	s0,0xffff9
  76:	7369722f          	0x7369722f
  7a:	5f666f63          	bltu	a2,s6,678 <offset+0x5f8>
  7e:	6b726f77          	0x6b726f77
  82:	3376722f          	0x3376722f
  86:	6932                	flw	fs2,12(sp)
  88:	6d5f 492f 732f      	0x732f492f6d5f
  8e:	6372                	flw	ft6,28(sp)
  90:	726f782f          	0x726f782f
  94:	2d69                	jal	72e <offset+0x6ae>
  96:	3130                	fld	fa2,96(a0)
  98:	532e                	lw	t1,232(sp)
  9a:	7475642f          	0x7475642f
  9e:	4700                	lw	s0,8(a4)
  a0:	554e                	lw	a0,240(sp)
  a2:	4120                	lw	s0,64(a0)
  a4:	2e322053          	0x2e322053
  a8:	          	snez	s0,zero
