
my.elf:     file format elf32-littleriscv


Disassembly of section .text:

00001000 <rvtest_entry_point>:
    1000:	feedc0b7          	lui	ra,0xfeedc
    1004:	ead08093          	addi	ra,ra,-339 # feedbead <_end+0xfeed6ea9>
    1008:	ff76e137          	lui	sp,0xff76e
    100c:	f5610113          	addi	sp,sp,-170 # ff76df56 <_end+0xff768f52>
    1010:	7fbb71b7          	lui	gp,0x7fbb7
    1014:	fab18193          	addi	gp,gp,-85 # 7fbb6fab <_end+0x7fbb1fa7>
    1018:	bfddb237          	lui	tp,0xbfddb
    101c:	7d520213          	addi	tp,tp,2005 # bfddb7d5 <_end+0xbfdd67d1>
    1020:	00000297          	auipc	t0,0x0
    1024:	0d828293          	addi	t0,t0,216 # 10f8 <rvtest_code_begin>
    1028:	00003317          	auipc	t1,0x3
    102c:	fd830313          	addi	t1,t1,-40 # 4000 <rvtest_data_begin>
    1030:	b7fbb3b7          	lui	t2,0xb7fbb
    1034:	6fa38393          	addi	t2,t2,1786 # b7fbb6fa <_end+0xb7fb66f6>
    1038:	5bfde437          	lui	s0,0x5bfde
    103c:	b7d40413          	addi	s0,s0,-1155 # 5bfddb7d <_end+0x5bfd8b79>
    1040:	adfef4b7          	lui	s1,0xadfef
    1044:	dbe48493          	addi	s1,s1,-578 # adfeedbe <_end+0xadfe9dba>
    1048:	56ff7537          	lui	a0,0x56ff7
    104c:	6df50513          	addi	a0,a0,1759 # 56ff76df <_end+0x56ff26db>
    1050:	ab7fc5b7          	lui	a1,0xab7fc
    1054:	b6f58593          	addi	a1,a1,-1169 # ab7fbb6f <_end+0xab7f6b6b>
    1058:	d5bfe637          	lui	a2,0xd5bfe
    105c:	db760613          	addi	a2,a2,-585 # d5bfddb7 <_end+0xd5bf8db3>
    1060:	eadff6b7          	lui	a3,0xeadff
    1064:	edb68693          	addi	a3,a3,-293 # eadfeedb <_end+0xeadf9ed7>
    1068:	f56ff737          	lui	a4,0xf56ff
    106c:	76d70713          	addi	a4,a4,1901 # f56ff76d <_end+0xf56fa769>
    1070:	fab807b7          	lui	a5,0xfab80
    1074:	bb678793          	addi	a5,a5,-1098 # fab7fbb6 <_end+0xfab7abb2>
    1078:	7d5c0837          	lui	a6,0x7d5c0
    107c:	ddb80813          	addi	a6,a6,-549 # 7d5bfddb <_end+0x7d5badd7>
    1080:	beae08b7          	lui	a7,0xbeae0
    1084:	eed88893          	addi	a7,a7,-275 # beadfeed <_end+0xbeadaee9>
    1088:	df570937          	lui	s2,0xdf570
    108c:	f7690913          	addi	s2,s2,-138 # df56ff76 <_end+0xdf56af72>
    1090:	6fab89b7          	lui	s3,0x6fab8
    1094:	fbb98993          	addi	s3,s3,-69 # 6fab7fbb <_end+0x6fab2fb7>
    1098:	b7d5ca37          	lui	s4,0xb7d5c
    109c:	fdda0a13          	addi	s4,s4,-35 # b7d5bfdd <_end+0xb7d56fd9>
    10a0:	dbeaeab7          	lui	s5,0xdbeae
    10a4:	feea8a93          	addi	s5,s5,-18 # dbeadfee <_end+0xdbea8fea>
    10a8:	6df57b37          	lui	s6,0x6df57
    10ac:	ff7b0b13          	addi	s6,s6,-9 # 6df56ff7 <_end+0x6df51ff3>
    10b0:	b6fabbb7          	lui	s7,0xb6fab
    10b4:	7fbb8b93          	addi	s7,s7,2043 # b6fab7fb <_end+0xb6fa67f7>
    10b8:	db7d6c37          	lui	s8,0xdb7d6
    10bc:	bfdc0c13          	addi	s8,s8,-1027 # db7d5bfd <_end+0xdb7d0bf9>
    10c0:	edbebcb7          	lui	s9,0xedbeb
    10c4:	dfec8c93          	addi	s9,s9,-514 # edbeadfe <_end+0xedbe5dfa>
    10c8:	76df5d37          	lui	s10,0x76df5
    10cc:	6ffd0d13          	addi	s10,s10,1791 # 76df56ff <_end+0x76df06fb>
    10d0:	bb6fbdb7          	lui	s11,0xbb6fb
    10d4:	b7fd8d93          	addi	s11,s11,-1153 # bb6fab7f <_end+0xbb6f5b7b>
    10d8:	ddb7de37          	lui	t3,0xddb7d
    10dc:	5bfe0e13          	addi	t3,t3,1471 # ddb7d5bf <_end+0xddb785bb>
    10e0:	eedbfeb7          	lui	t4,0xeedbf
    10e4:	adfe8e93          	addi	t4,t4,-1313 # eedbeadf <_end+0xeedb9adb>
    10e8:	f76dff37          	lui	t5,0xf76df
    10ec:	56ff0f13          	addi	t5,t5,1391 # f76df56f <_end+0xf76da56b>
    10f0:	fbb70fb7          	lui	t6,0xfbb70
    10f4:	ab7f8f93          	addi	t6,t6,-1353 # fbb6fab7 <_end+0xfbb6aab3>

000010f8 <rvtest_code_begin>:
    10f8:	00003917          	auipc	s2,0x3
    10fc:	f1890913          	addi	s2,s2,-232 # 4010 <begin_signature>

00001100 <inst_0>:
    1100:	ffe00b13          	li	s6,-2
    1104:	800b7513          	andi	a0,s6,-2048
    1108:	00a92023          	sw	a0,0(s2)

0000110c <inst_1>:
    110c:	fffffcb7          	lui	s9,0xfffff
    1110:	fffc8c93          	addi	s9,s9,-1 # ffffefff <_end+0xffff9ffb>
    1114:	000cfc93          	andi	s9,s9,0
    1118:	01992223          	sw	s9,4(s2)

0000111c <inst_2>:
    111c:	fe000837          	lui	a6,0xfe000
    1120:	fff80813          	addi	a6,a6,-1 # fdffffff <_end+0xfdffaffb>
    1124:	7ff87893          	andi	a7,a6,2047
    1128:	01192423          	sw	a7,8(s2)

0000112c <inst_3>:
    112c:	fffe0137          	lui	sp,0xfffe0
    1130:	fff10113          	addi	sp,sp,-1 # fffdffff <_end+0xfffdaffb>
    1134:	00117413          	andi	s0,sp,1
    1138:	00892623          	sw	s0,12(s2)

0000113c <inst_4>:
    113c:	80000e37          	lui	t3,0x80000
    1140:	004e7f13          	andi	t5,t3,4
    1144:	01e92823          	sw	t5,16(s2)

00001148 <inst_5>:
    1148:	00000213          	li	tp,0
    114c:	80027993          	andi	s3,tp,-2048
    1150:	01392a23          	sw	s3,20(s2)

00001154 <inst_6>:
    1154:	80000537          	lui	a0,0x80000
    1158:	fff50513          	addi	a0,a0,-1 # 7fffffff <_end+0x7fffaffb>
    115c:	00657113          	andi	sp,a0,6
    1160:	00292c23          	sw	sp,24(s2)

00001164 <inst_7>:
    1164:	00100393          	li	t2,1
    1168:	5543f693          	andi	a3,t2,1364
    116c:	00d92e23          	sw	a3,28(s2)

00001170 <inst_8>:
    1170:	08000d93          	li	s11,128
    1174:	080df493          	andi	s1,s11,128
    1178:	02992023          	sw	s1,32(s2)

0000117c <inst_9>:
    117c:	800008b7          	lui	a7,0x80000
    1180:	fff88893          	addi	a7,a7,-1 # 7fffffff <_end+0x7fffaffb>
    1184:	fd48f193          	andi	gp,a7,-44
    1188:	02392223          	sw	gp,36(s2)

0000118c <inst_10>:
    118c:	00000013          	nop
    1190:	00207d13          	andi	s10,zero,2
    1194:	03a92423          	sw	s10,40(s2)

00001198 <inst_11>:
    1198:	66666bb7          	lui	s7,0x66666
    119c:	666b8b93          	addi	s7,s7,1638 # 66666666 <_end+0x66661662>
    11a0:	008bfa93          	andi	s5,s7,8
    11a4:	03592623          	sw	s5,44(s2)

000011a8 <inst_12>:
    11a8:	00000313          	li	t1,0
    11ac:	01037713          	andi	a4,t1,16
    11b0:	02e92823          	sw	a4,48(s2)

000011b4 <inst_13>:
    11b4:	10000293          	li	t0,256
    11b8:	0202fb13          	andi	s6,t0,32
    11bc:	03692a23          	sw	s6,52(s2)

000011c0 <inst_14>:
    11c0:	ffb00413          	li	s0,-5
    11c4:	04047e93          	andi	t4,s0,64
    11c8:	03d92c23          	sw	t4,56(s2)

000011cc <inst_15>:
    11cc:	00100613          	li	a2,1
    11d0:	10067b93          	andi	s7,a2,256
    11d4:	03792e23          	sw	s7,60(s2)

000011d8 <inst_16>:
    11d8:	aaaab7b7          	lui	a5,0xaaaab
    11dc:	aab78793          	addi	a5,a5,-1365 # aaaaaaab <_end+0xaaaa5aa7>
    11e0:	2007f313          	andi	t1,a5,512
    11e4:	04692023          	sw	t1,64(s2)

000011e8 <inst_17>:
    11e8:	00000e93          	li	t4,0
    11ec:	400ef593          	andi	a1,t4,1024
    11f0:	04b92223          	sw	a1,68(s2)

000011f4 <inst_18>:
    11f4:	66666a37          	lui	s4,0x66666
    11f8:	667a0a13          	addi	s4,s4,1639 # 66666667 <_end+0x66661663>
    11fc:	ffea7093          	andi	ra,s4,-2
    1200:	04192423          	sw	ra,72(s2)
    1204:	00003117          	auipc	sp,0x3
    1208:	e5810113          	addi	sp,sp,-424 # 405c <signature_x2_0>

0000120c <inst_19>:
    120c:	fff00fb7          	lui	t6,0xfff00
    1210:	ffff8f93          	addi	t6,t6,-1 # ffefffff <_end+0xffefaffb>
    1214:	ffdff293          	andi	t0,t6,-3
    1218:	00512023          	sw	t0,0(sp)

0000121c <inst_20>:
    121c:	20000193          	li	gp,512
    1220:	ffb1fa13          	andi	s4,gp,-5
    1224:	01412223          	sw	s4,4(sp)

00001228 <inst_21>:
    1228:	000044b7          	lui	s1,0x4
    122c:	ff74f393          	andi	t2,s1,-9
    1230:	00712423          	sw	t2,8(sp)

00001234 <inst_22>:
    1234:	002006b7          	lui	a3,0x200
    1238:	fef6f813          	andi	a6,a3,-17
    123c:	01012623          	sw	a6,12(sp)

00001240 <inst_23>:
    1240:	ffd00913          	li	s2,-3
    1244:	fdf97c13          	andi	s8,s2,-33
    1248:	01812823          	sw	s8,16(sp)

0000124c <inst_24>:
    124c:	ffa00d13          	li	s10,-6
    1250:	fbfd7213          	andi	tp,s10,-65
    1254:	00412a23          	sw	tp,20(sp)

00001258 <inst_25>:
    1258:	04000f13          	li	t5,64
    125c:	f7ff7e13          	andi	t3,t5,-129
    1260:	01c12c23          	sw	t3,24(sp)

00001264 <inst_26>:
    1264:	ffff59b7          	lui	s3,0xffff5
    1268:	afc98993          	addi	s3,s3,-1284 # ffff4afc <_end+0xfffefaf8>
    126c:	eff9f013          	andi	zero,s3,-257
    1270:	00012e23          	sw	zero,28(sp)

00001274 <inst_27>:
    1274:	ffff8ab7          	lui	s5,0xffff8
    1278:	fffa8a93          	addi	s5,s5,-1 # ffff7fff <_end+0xffff2ffb>
    127c:	dffaf913          	andi	s2,s5,-513
    1280:	03212023          	sw	s2,32(sp)

00001284 <inst_28>:
    1284:	04000093          	li	ra,64
    1288:	bff0f613          	andi	a2,ra,-1025
    128c:	02c12223          	sw	a2,36(sp)

00001290 <inst_29>:
    1290:	ffffcc37          	lui	s8,0xffffc
    1294:	fffc0c13          	addi	s8,s8,-1 # ffffbfff <_end+0xffff6ffb>
    1298:	555c7d93          	andi	s11,s8,1365
    129c:	03b12423          	sw	s11,40(sp)

000012a0 <inst_30>:
    12a0:	400005b7          	lui	a1,0x40000
    12a4:	aaa5ff93          	andi	t6,a1,-1366
    12a8:	03f12623          	sw	t6,44(sp)

000012ac <inst_31>:
    12ac:	00200713          	li	a4,2
    12b0:	00877793          	andi	a5,a4,8
    12b4:	02f12823          	sw	a5,48(sp)

000012b8 <inst_32>:
    12b8:	00400513          	li	a0,4
    12bc:	66757593          	andi	a1,a0,1639
    12c0:	02b12a23          	sw	a1,52(sp)

000012c4 <inst_33>:
    12c4:	00800513          	li	a0,8
    12c8:	33457593          	andi	a1,a0,820
    12cc:	02b12c23          	sw	a1,56(sp)

000012d0 <inst_34>:
    12d0:	01000513          	li	a0,16
    12d4:	02e57593          	andi	a1,a0,46
    12d8:	02b12e23          	sw	a1,60(sp)

000012dc <inst_35>:
    12dc:	02000513          	li	a0,32
    12e0:	01057593          	andi	a1,a0,16
    12e4:	04b12023          	sw	a1,64(sp)

000012e8 <inst_36>:
    12e8:	40000513          	li	a0,1024
    12ec:	fd457593          	andi	a1,a0,-44
    12f0:	04b12223          	sw	a1,68(sp)

000012f4 <inst_37>:
    12f4:	00001537          	lui	a0,0x1
    12f8:	80050513          	addi	a0,a0,-2048 # 800 <offset+0x784>
    12fc:	fbf57593          	andi	a1,a0,-65
    1300:	04b12423          	sw	a1,72(sp)

00001304 <inst_38>:
    1304:	00001537          	lui	a0,0x1
    1308:	04057593          	andi	a1,a0,64
    130c:	04b12623          	sw	a1,76(sp)

00001310 <inst_39>:
    1310:	00002537          	lui	a0,0x2
    1314:	fd357593          	andi	a1,a0,-45
    1318:	04b12823          	sw	a1,80(sp)

0000131c <inst_40>:
    131c:	00008537          	lui	a0,0x8
    1320:	aaa57593          	andi	a1,a0,-1366
    1324:	04b12a23          	sw	a1,84(sp)

00001328 <inst_41>:
    1328:	00010537          	lui	a0,0x10
    132c:	33357593          	andi	a1,a0,819
    1330:	04b12c23          	sw	a1,88(sp)

00001334 <inst_42>:
    1334:	00020537          	lui	a0,0x20
    1338:	33257593          	andi	a1,a0,818
    133c:	04b12e23          	sw	a1,92(sp)

00001340 <inst_43>:
    1340:	00040537          	lui	a0,0x40
    1344:	55657593          	andi	a1,a0,1366
    1348:	06b12023          	sw	a1,96(sp)

0000134c <inst_44>:
    134c:	00080537          	lui	a0,0x80
    1350:	00457593          	andi	a1,a0,4
    1354:	06b12223          	sw	a1,100(sp)

00001358 <inst_45>:
    1358:	00100537          	lui	a0,0x100
    135c:	00557593          	andi	a1,a0,5
    1360:	06b12423          	sw	a1,104(sp)

00001364 <inst_46>:
    1364:	00400537          	lui	a0,0x400
    1368:	fff57593          	andi	a1,a0,-1
    136c:	06b12623          	sw	a1,108(sp)

00001370 <inst_47>:
    1370:	00800537          	lui	a0,0x800
    1374:	ffa57593          	andi	a1,a0,-6
    1378:	06b12823          	sw	a1,112(sp)

0000137c <inst_48>:
    137c:	02000537          	lui	a0,0x2000
    1380:	fd457593          	andi	a1,a0,-44
    1384:	06b12a23          	sw	a1,116(sp)

00001388 <inst_49>:
    1388:	04000537          	lui	a0,0x4000
    138c:	f7f57593          	andi	a1,a0,-129
    1390:	06b12c23          	sw	a1,120(sp)

00001394 <inst_50>:
    1394:	08000537          	lui	a0,0x8000
    1398:	00057593          	andi	a1,a0,0
    139c:	06b12e23          	sw	a1,124(sp)

000013a0 <inst_51>:
    13a0:	10000537          	lui	a0,0x10000
    13a4:	00057593          	andi	a1,a0,0
    13a8:	08b12023          	sw	a1,128(sp)

000013ac <inst_52>:
    13ac:	20000537          	lui	a0,0x20000
    13b0:	00457593          	andi	a1,a0,4
    13b4:	08b12223          	sw	a1,132(sp)

000013b8 <inst_53>:
    13b8:	ff700513          	li	a0,-9
    13bc:	ffd57593          	andi	a1,a0,-3
    13c0:	08b12423          	sw	a1,136(sp)

000013c4 <inst_54>:
    13c4:	fef00513          	li	a0,-17
    13c8:	55657593          	andi	a1,a0,1366
    13cc:	08b12623          	sw	a1,140(sp)

000013d0 <inst_55>:
    13d0:	fdf00513          	li	a0,-33
    13d4:	00457593          	andi	a1,a0,4
    13d8:	08b12823          	sw	a1,144(sp)

000013dc <inst_56>:
    13dc:	fbf00513          	li	a0,-65
    13e0:	00957593          	andi	a1,a0,9
    13e4:	08b12a23          	sw	a1,148(sp)

000013e8 <inst_57>:
    13e8:	f7f00513          	li	a0,-129
    13ec:	ffd57593          	andi	a1,a0,-3
    13f0:	08b12c23          	sw	a1,152(sp)

000013f4 <inst_58>:
    13f4:	eff00513          	li	a0,-257
    13f8:	33457593          	andi	a1,a0,820
    13fc:	08b12e23          	sw	a1,156(sp)

00001400 <inst_59>:
    1400:	dff00513          	li	a0,-513
    1404:	00057593          	andi	a1,a0,0
    1408:	0ab12023          	sw	a1,160(sp)

0000140c <inst_60>:
    140c:	bff00513          	li	a0,-1025
    1410:	04057593          	andi	a1,a0,64
    1414:	0ab12223          	sw	a1,164(sp)

00001418 <inst_61>:
    1418:	fffff537          	lui	a0,0xfffff
    141c:	7ff50513          	addi	a0,a0,2047 # fffff7ff <_end+0xffffa7fb>
    1420:	00957593          	andi	a1,a0,9
    1424:	0ab12423          	sw	a1,168(sp)

00001428 <inst_62>:
    1428:	ffffe537          	lui	a0,0xffffe
    142c:	fff50513          	addi	a0,a0,-1 # ffffdfff <_end+0xffff8ffb>
    1430:	66757593          	andi	a1,a0,1639
    1434:	0ab12623          	sw	a1,172(sp)

00001438 <inst_63>:
    1438:	ffff0537          	lui	a0,0xffff0
    143c:	fff50513          	addi	a0,a0,-1 # fffeffff <_end+0xfffeaffb>
    1440:	7ff57593          	andi	a1,a0,2047
    1444:	0ab12823          	sw	a1,176(sp)

00001448 <inst_64>:
    1448:	fffc0537          	lui	a0,0xfffc0
    144c:	fff50513          	addi	a0,a0,-1 # fffbffff <_end+0xfffbaffb>
    1450:	fd357593          	andi	a1,a0,-45
    1454:	0ab12a23          	sw	a1,180(sp)

00001458 <inst_65>:
    1458:	fff80537          	lui	a0,0xfff80
    145c:	fff50513          	addi	a0,a0,-1 # fff7ffff <_end+0xfff7affb>
    1460:	20057593          	andi	a1,a0,512
    1464:	0ab12c23          	sw	a1,184(sp)

00001468 <inst_66>:
    1468:	ffe00537          	lui	a0,0xffe00
    146c:	fff50513          	addi	a0,a0,-1 # ffdfffff <_end+0xffdfaffb>
    1470:	fd457593          	andi	a1,a0,-44
    1474:	0ab12e23          	sw	a1,188(sp)

00001478 <inst_67>:
    1478:	ffc00537          	lui	a0,0xffc00
    147c:	fff50513          	addi	a0,a0,-1 # ffbfffff <_end+0xffbfaffb>
    1480:	00557593          	andi	a1,a0,5
    1484:	0cb12023          	sw	a1,192(sp)

00001488 <inst_68>:
    1488:	ff800537          	lui	a0,0xff800
    148c:	fff50513          	addi	a0,a0,-1 # ff7fffff <_end+0xff7faffb>
    1490:	00757593          	andi	a1,a0,7
    1494:	0cb12223          	sw	a1,196(sp)

00001498 <inst_69>:
    1498:	ff000537          	lui	a0,0xff000
    149c:	fff50513          	addi	a0,a0,-1 # feffffff <_end+0xfeffaffb>
    14a0:	00657593          	andi	a1,a0,6
    14a4:	0cb12423          	sw	a1,200(sp)

000014a8 <inst_70>:
    14a8:	fc000537          	lui	a0,0xfc000
    14ac:	fff50513          	addi	a0,a0,-1 # fbffffff <_end+0xfbffaffb>
    14b0:	00857593          	andi	a1,a0,8
    14b4:	0cb12623          	sw	a1,204(sp)

000014b8 <inst_71>:
    14b8:	f8000537          	lui	a0,0xf8000
    14bc:	fff50513          	addi	a0,a0,-1 # f7ffffff <_end+0xf7ffaffb>
    14c0:	02e57593          	andi	a1,a0,46
    14c4:	0cb12823          	sw	a1,208(sp)

000014c8 <inst_72>:
    14c8:	f0000537          	lui	a0,0xf0000
    14cc:	fff50513          	addi	a0,a0,-1 # efffffff <_end+0xefffaffb>
    14d0:	00157593          	andi	a1,a0,1
    14d4:	0cb12a23          	sw	a1,212(sp)

000014d8 <inst_73>:
    14d8:	e0000537          	lui	a0,0xe0000
    14dc:	fff50513          	addi	a0,a0,-1 # dfffffff <_end+0xdfffaffb>
    14e0:	fd457593          	andi	a1,a0,-44
    14e4:	0cb12c23          	sw	a1,216(sp)

000014e8 <inst_74>:
    14e8:	c0000537          	lui	a0,0xc0000
    14ec:	fff50513          	addi	a0,a0,-1 # bfffffff <_end+0xbfffaffb>
    14f0:	55657593          	andi	a1,a0,1366
    14f4:	0cb12e23          	sw	a1,220(sp)

000014f8 <inst_75>:
    14f8:	55555537          	lui	a0,0x55555
    14fc:	55550513          	addi	a0,a0,1365 # 55555555 <_end+0x55550551>
    1500:	ffb57593          	andi	a1,a0,-5
    1504:	0eb12023          	sw	a1,224(sp)

00001508 <inst_76>:
    1508:	aaaab537          	lui	a0,0xaaaab
    150c:	aaa50513          	addi	a0,a0,-1366 # aaaaaaaa <_end+0xaaaa5aa6>
    1510:	08057593          	andi	a1,a0,128
    1514:	0eb12223          	sw	a1,228(sp)

00001518 <inst_77>:
    1518:	00300513          	li	a0,3
    151c:	00357593          	andi	a1,a0,3
    1520:	0eb12423          	sw	a1,232(sp)

00001524 <inst_78>:
    1524:	00300513          	li	a0,3
    1528:	55557593          	andi	a1,a0,1365
    152c:	0eb12623          	sw	a1,236(sp)

00001530 <inst_79>:
    1530:	00300513          	li	a0,3
    1534:	aaa57593          	andi	a1,a0,-1366
    1538:	0eb12823          	sw	a1,240(sp)

0000153c <inst_80>:
    153c:	00300513          	li	a0,3
    1540:	00557593          	andi	a1,a0,5
    1544:	0eb12a23          	sw	a1,244(sp)

00001548 <inst_81>:
    1548:	00300513          	li	a0,3
    154c:	33357593          	andi	a1,a0,819
    1550:	0eb12c23          	sw	a1,248(sp)

00001554 <inst_82>:
    1554:	00300513          	li	a0,3
    1558:	66657593          	andi	a1,a0,1638
    155c:	0eb12e23          	sw	a1,252(sp)

00001560 <inst_83>:
    1560:	00300513          	li	a0,3
    1564:	fd357593          	andi	a1,a0,-45
    1568:	10b12023          	sw	a1,256(sp)

0000156c <inst_84>:
    156c:	00300513          	li	a0,3
    1570:	02d57593          	andi	a1,a0,45
    1574:	10b12223          	sw	a1,260(sp)

00001578 <inst_85>:
    1578:	00300513          	li	a0,3
    157c:	00257593          	andi	a1,a0,2
    1580:	10b12423          	sw	a1,264(sp)

00001584 <inst_86>:
    1584:	00300513          	li	a0,3
    1588:	55457593          	andi	a1,a0,1364
    158c:	10b12623          	sw	a1,268(sp)

00001590 <inst_87>:
    1590:	00300513          	li	a0,3
    1594:	00057593          	andi	a1,a0,0
    1598:	10b12823          	sw	a1,272(sp)

0000159c <inst_88>:
    159c:	00300513          	li	a0,3
    15a0:	00457593          	andi	a1,a0,4
    15a4:	10b12a23          	sw	a1,276(sp)

000015a8 <inst_89>:
    15a8:	00300513          	li	a0,3
    15ac:	33257593          	andi	a1,a0,818
    15b0:	10b12c23          	sw	a1,280(sp)

000015b4 <inst_90>:
    15b4:	00300513          	li	a0,3
    15b8:	66557593          	andi	a1,a0,1637
    15bc:	10b12e23          	sw	a1,284(sp)

000015c0 <inst_91>:
    15c0:	00300513          	li	a0,3
    15c4:	02c57593          	andi	a1,a0,44
    15c8:	12b12023          	sw	a1,288(sp)

000015cc <inst_92>:
    15cc:	00300513          	li	a0,3
    15d0:	55657593          	andi	a1,a0,1366
    15d4:	12b12223          	sw	a1,292(sp)

000015d8 <inst_93>:
    15d8:	00300513          	li	a0,3
    15dc:	aab57593          	andi	a1,a0,-1365
    15e0:	12b12423          	sw	a1,296(sp)

000015e4 <inst_94>:
    15e4:	00300513          	li	a0,3
    15e8:	00657593          	andi	a1,a0,6
    15ec:	12b12623          	sw	a1,300(sp)

000015f0 <inst_95>:
    15f0:	00300513          	li	a0,3
    15f4:	33457593          	andi	a1,a0,820
    15f8:	12b12823          	sw	a1,304(sp)

000015fc <inst_96>:
    15fc:	00300513          	li	a0,3
    1600:	66757593          	andi	a1,a0,1639
    1604:	12b12a23          	sw	a1,308(sp)

00001608 <inst_97>:
    1608:	00300513          	li	a0,3
    160c:	fd457593          	andi	a1,a0,-44
    1610:	12b12c23          	sw	a1,312(sp)

00001614 <inst_98>:
    1614:	00300513          	li	a0,3
    1618:	02e57593          	andi	a1,a0,46
    161c:	12b12e23          	sw	a1,316(sp)

00001620 <inst_99>:
    1620:	55555537          	lui	a0,0x55555
    1624:	55550513          	addi	a0,a0,1365 # 55555555 <_end+0x55550551>
    1628:	00357593          	andi	a1,a0,3
    162c:	14b12023          	sw	a1,320(sp)

00001630 <inst_100>:
    1630:	55555537          	lui	a0,0x55555
    1634:	55550513          	addi	a0,a0,1365 # 55555555 <_end+0x55550551>
    1638:	55557593          	andi	a1,a0,1365
    163c:	14b12223          	sw	a1,324(sp)

00001640 <inst_101>:
    1640:	55555537          	lui	a0,0x55555
    1644:	55550513          	addi	a0,a0,1365 # 55555555 <_end+0x55550551>
    1648:	aaa57593          	andi	a1,a0,-1366
    164c:	14b12423          	sw	a1,328(sp)

00001650 <inst_102>:
    1650:	55555537          	lui	a0,0x55555
    1654:	55550513          	addi	a0,a0,1365 # 55555555 <_end+0x55550551>
    1658:	00557593          	andi	a1,a0,5
    165c:	14b12623          	sw	a1,332(sp)

00001660 <inst_103>:
    1660:	55555537          	lui	a0,0x55555
    1664:	55550513          	addi	a0,a0,1365 # 55555555 <_end+0x55550551>
    1668:	33357593          	andi	a1,a0,819
    166c:	14b12823          	sw	a1,336(sp)

00001670 <inst_104>:
    1670:	55555537          	lui	a0,0x55555
    1674:	55550513          	addi	a0,a0,1365 # 55555555 <_end+0x55550551>
    1678:	66657593          	andi	a1,a0,1638
    167c:	14b12a23          	sw	a1,340(sp)

00001680 <inst_105>:
    1680:	55555537          	lui	a0,0x55555
    1684:	55550513          	addi	a0,a0,1365 # 55555555 <_end+0x55550551>
    1688:	fd357593          	andi	a1,a0,-45
    168c:	14b12c23          	sw	a1,344(sp)

00001690 <inst_106>:
    1690:	55555537          	lui	a0,0x55555
    1694:	55550513          	addi	a0,a0,1365 # 55555555 <_end+0x55550551>
    1698:	02d57593          	andi	a1,a0,45
    169c:	14b12e23          	sw	a1,348(sp)

000016a0 <inst_107>:
    16a0:	55555537          	lui	a0,0x55555
    16a4:	55550513          	addi	a0,a0,1365 # 55555555 <_end+0x55550551>
    16a8:	00257593          	andi	a1,a0,2
    16ac:	16b12023          	sw	a1,352(sp)

000016b0 <inst_108>:
    16b0:	55555537          	lui	a0,0x55555
    16b4:	55550513          	addi	a0,a0,1365 # 55555555 <_end+0x55550551>
    16b8:	55457593          	andi	a1,a0,1364
    16bc:	16b12223          	sw	a1,356(sp)

000016c0 <inst_109>:
    16c0:	55555537          	lui	a0,0x55555
    16c4:	55550513          	addi	a0,a0,1365 # 55555555 <_end+0x55550551>
    16c8:	00057593          	andi	a1,a0,0
    16cc:	16b12423          	sw	a1,360(sp)

000016d0 <inst_110>:
    16d0:	55555537          	lui	a0,0x55555
    16d4:	55550513          	addi	a0,a0,1365 # 55555555 <_end+0x55550551>
    16d8:	00457593          	andi	a1,a0,4
    16dc:	16b12623          	sw	a1,364(sp)

000016e0 <inst_111>:
    16e0:	55555537          	lui	a0,0x55555
    16e4:	55550513          	addi	a0,a0,1365 # 55555555 <_end+0x55550551>
    16e8:	33257593          	andi	a1,a0,818
    16ec:	16b12823          	sw	a1,368(sp)

000016f0 <inst_112>:
    16f0:	55555537          	lui	a0,0x55555
    16f4:	55550513          	addi	a0,a0,1365 # 55555555 <_end+0x55550551>
    16f8:	66557593          	andi	a1,a0,1637
    16fc:	16b12a23          	sw	a1,372(sp)

00001700 <inst_113>:
    1700:	55555537          	lui	a0,0x55555
    1704:	55550513          	addi	a0,a0,1365 # 55555555 <_end+0x55550551>
    1708:	02c57593          	andi	a1,a0,44
    170c:	16b12c23          	sw	a1,376(sp)

00001710 <inst_114>:
    1710:	55555537          	lui	a0,0x55555
    1714:	55550513          	addi	a0,a0,1365 # 55555555 <_end+0x55550551>
    1718:	55657593          	andi	a1,a0,1366
    171c:	16b12e23          	sw	a1,380(sp)

00001720 <inst_115>:
    1720:	55555537          	lui	a0,0x55555
    1724:	55550513          	addi	a0,a0,1365 # 55555555 <_end+0x55550551>
    1728:	aab57593          	andi	a1,a0,-1365
    172c:	18b12023          	sw	a1,384(sp)

00001730 <inst_116>:
    1730:	55555537          	lui	a0,0x55555
    1734:	55550513          	addi	a0,a0,1365 # 55555555 <_end+0x55550551>
    1738:	00657593          	andi	a1,a0,6
    173c:	18b12223          	sw	a1,388(sp)

00001740 <inst_117>:
    1740:	55555537          	lui	a0,0x55555
    1744:	55550513          	addi	a0,a0,1365 # 55555555 <_end+0x55550551>
    1748:	33457593          	andi	a1,a0,820
    174c:	18b12423          	sw	a1,392(sp)

00001750 <inst_118>:
    1750:	55555537          	lui	a0,0x55555
    1754:	55550513          	addi	a0,a0,1365 # 55555555 <_end+0x55550551>
    1758:	66757593          	andi	a1,a0,1639
    175c:	18b12623          	sw	a1,396(sp)

00001760 <inst_119>:
    1760:	55555537          	lui	a0,0x55555
    1764:	55550513          	addi	a0,a0,1365 # 55555555 <_end+0x55550551>
    1768:	fd457593          	andi	a1,a0,-44
    176c:	18b12823          	sw	a1,400(sp)

00001770 <inst_120>:
    1770:	55555537          	lui	a0,0x55555
    1774:	55550513          	addi	a0,a0,1365 # 55555555 <_end+0x55550551>
    1778:	02e57593          	andi	a1,a0,46
    177c:	18b12a23          	sw	a1,404(sp)

00001780 <inst_121>:
    1780:	aaaab537          	lui	a0,0xaaaab
    1784:	aaa50513          	addi	a0,a0,-1366 # aaaaaaaa <_end+0xaaaa5aa6>
    1788:	00357593          	andi	a1,a0,3
    178c:	18b12c23          	sw	a1,408(sp)

00001790 <inst_122>:
    1790:	aaaab537          	lui	a0,0xaaaab
    1794:	aaa50513          	addi	a0,a0,-1366 # aaaaaaaa <_end+0xaaaa5aa6>
    1798:	55557593          	andi	a1,a0,1365
    179c:	18b12e23          	sw	a1,412(sp)

000017a0 <inst_123>:
    17a0:	aaaab537          	lui	a0,0xaaaab
    17a4:	aaa50513          	addi	a0,a0,-1366 # aaaaaaaa <_end+0xaaaa5aa6>
    17a8:	aaa57593          	andi	a1,a0,-1366
    17ac:	1ab12023          	sw	a1,416(sp)

000017b0 <inst_124>:
    17b0:	aaaab537          	lui	a0,0xaaaab
    17b4:	aaa50513          	addi	a0,a0,-1366 # aaaaaaaa <_end+0xaaaa5aa6>
    17b8:	00557593          	andi	a1,a0,5
    17bc:	1ab12223          	sw	a1,420(sp)

000017c0 <inst_125>:
    17c0:	aaaab537          	lui	a0,0xaaaab
    17c4:	aaa50513          	addi	a0,a0,-1366 # aaaaaaaa <_end+0xaaaa5aa6>
    17c8:	33357593          	andi	a1,a0,819
    17cc:	1ab12423          	sw	a1,424(sp)

000017d0 <inst_126>:
    17d0:	aaaab537          	lui	a0,0xaaaab
    17d4:	aaa50513          	addi	a0,a0,-1366 # aaaaaaaa <_end+0xaaaa5aa6>
    17d8:	66657593          	andi	a1,a0,1638
    17dc:	1ab12623          	sw	a1,428(sp)

000017e0 <inst_127>:
    17e0:	aaaab537          	lui	a0,0xaaaab
    17e4:	aaa50513          	addi	a0,a0,-1366 # aaaaaaaa <_end+0xaaaa5aa6>
    17e8:	fd357593          	andi	a1,a0,-45
    17ec:	1ab12823          	sw	a1,432(sp)

000017f0 <inst_128>:
    17f0:	aaaab537          	lui	a0,0xaaaab
    17f4:	aaa50513          	addi	a0,a0,-1366 # aaaaaaaa <_end+0xaaaa5aa6>
    17f8:	02d57593          	andi	a1,a0,45
    17fc:	1ab12a23          	sw	a1,436(sp)

00001800 <inst_129>:
    1800:	aaaab537          	lui	a0,0xaaaab
    1804:	aaa50513          	addi	a0,a0,-1366 # aaaaaaaa <_end+0xaaaa5aa6>
    1808:	00257593          	andi	a1,a0,2
    180c:	1ab12c23          	sw	a1,440(sp)

00001810 <inst_130>:
    1810:	aaaab537          	lui	a0,0xaaaab
    1814:	aaa50513          	addi	a0,a0,-1366 # aaaaaaaa <_end+0xaaaa5aa6>
    1818:	55457593          	andi	a1,a0,1364
    181c:	1ab12e23          	sw	a1,444(sp)

00001820 <inst_131>:
    1820:	aaaab537          	lui	a0,0xaaaab
    1824:	aaa50513          	addi	a0,a0,-1366 # aaaaaaaa <_end+0xaaaa5aa6>
    1828:	00057593          	andi	a1,a0,0
    182c:	1cb12023          	sw	a1,448(sp)

00001830 <inst_132>:
    1830:	aaaab537          	lui	a0,0xaaaab
    1834:	aaa50513          	addi	a0,a0,-1366 # aaaaaaaa <_end+0xaaaa5aa6>
    1838:	00457593          	andi	a1,a0,4
    183c:	1cb12223          	sw	a1,452(sp)

00001840 <inst_133>:
    1840:	aaaab537          	lui	a0,0xaaaab
    1844:	aaa50513          	addi	a0,a0,-1366 # aaaaaaaa <_end+0xaaaa5aa6>
    1848:	33257593          	andi	a1,a0,818
    184c:	1cb12423          	sw	a1,456(sp)

00001850 <inst_134>:
    1850:	aaaab537          	lui	a0,0xaaaab
    1854:	aaa50513          	addi	a0,a0,-1366 # aaaaaaaa <_end+0xaaaa5aa6>
    1858:	66557593          	andi	a1,a0,1637
    185c:	1cb12623          	sw	a1,460(sp)

00001860 <inst_135>:
    1860:	aaaab537          	lui	a0,0xaaaab
    1864:	aaa50513          	addi	a0,a0,-1366 # aaaaaaaa <_end+0xaaaa5aa6>
    1868:	02c57593          	andi	a1,a0,44
    186c:	1cb12823          	sw	a1,464(sp)

00001870 <inst_136>:
    1870:	aaaab537          	lui	a0,0xaaaab
    1874:	aaa50513          	addi	a0,a0,-1366 # aaaaaaaa <_end+0xaaaa5aa6>
    1878:	55657593          	andi	a1,a0,1366
    187c:	1cb12a23          	sw	a1,468(sp)

00001880 <inst_137>:
    1880:	aaaab537          	lui	a0,0xaaaab
    1884:	aaa50513          	addi	a0,a0,-1366 # aaaaaaaa <_end+0xaaaa5aa6>
    1888:	aab57593          	andi	a1,a0,-1365
    188c:	1cb12c23          	sw	a1,472(sp)

00001890 <inst_138>:
    1890:	aaaab537          	lui	a0,0xaaaab
    1894:	aaa50513          	addi	a0,a0,-1366 # aaaaaaaa <_end+0xaaaa5aa6>
    1898:	00657593          	andi	a1,a0,6
    189c:	1cb12e23          	sw	a1,476(sp)

000018a0 <inst_139>:
    18a0:	aaaab537          	lui	a0,0xaaaab
    18a4:	aaa50513          	addi	a0,a0,-1366 # aaaaaaaa <_end+0xaaaa5aa6>
    18a8:	33457593          	andi	a1,a0,820
    18ac:	1eb12023          	sw	a1,480(sp)

000018b0 <inst_140>:
    18b0:	aaaab537          	lui	a0,0xaaaab
    18b4:	aaa50513          	addi	a0,a0,-1366 # aaaaaaaa <_end+0xaaaa5aa6>
    18b8:	66757593          	andi	a1,a0,1639
    18bc:	1eb12223          	sw	a1,484(sp)

000018c0 <inst_141>:
    18c0:	aaaab537          	lui	a0,0xaaaab
    18c4:	aaa50513          	addi	a0,a0,-1366 # aaaaaaaa <_end+0xaaaa5aa6>
    18c8:	fd457593          	andi	a1,a0,-44
    18cc:	1eb12423          	sw	a1,488(sp)

000018d0 <inst_142>:
    18d0:	aaaab537          	lui	a0,0xaaaab
    18d4:	aaa50513          	addi	a0,a0,-1366 # aaaaaaaa <_end+0xaaaa5aa6>
    18d8:	02e57593          	andi	a1,a0,46
    18dc:	1eb12623          	sw	a1,492(sp)

000018e0 <inst_143>:
    18e0:	00500513          	li	a0,5
    18e4:	00357593          	andi	a1,a0,3
    18e8:	1eb12823          	sw	a1,496(sp)

000018ec <inst_144>:
    18ec:	00500513          	li	a0,5
    18f0:	55557593          	andi	a1,a0,1365
    18f4:	1eb12a23          	sw	a1,500(sp)

000018f8 <inst_145>:
    18f8:	00500513          	li	a0,5
    18fc:	aaa57593          	andi	a1,a0,-1366
    1900:	1eb12c23          	sw	a1,504(sp)

00001904 <inst_146>:
    1904:	00500513          	li	a0,5
    1908:	00557593          	andi	a1,a0,5
    190c:	1eb12e23          	sw	a1,508(sp)

00001910 <inst_147>:
    1910:	00500513          	li	a0,5
    1914:	33357593          	andi	a1,a0,819
    1918:	20b12023          	sw	a1,512(sp)

0000191c <inst_148>:
    191c:	00500513          	li	a0,5
    1920:	66657593          	andi	a1,a0,1638
    1924:	20b12223          	sw	a1,516(sp)

00001928 <inst_149>:
    1928:	00500513          	li	a0,5
    192c:	fd357593          	andi	a1,a0,-45
    1930:	20b12423          	sw	a1,520(sp)

00001934 <inst_150>:
    1934:	00500513          	li	a0,5
    1938:	02d57593          	andi	a1,a0,45
    193c:	20b12623          	sw	a1,524(sp)

00001940 <inst_151>:
    1940:	00500513          	li	a0,5
    1944:	00257593          	andi	a1,a0,2
    1948:	20b12823          	sw	a1,528(sp)

0000194c <inst_152>:
    194c:	00500513          	li	a0,5
    1950:	55457593          	andi	a1,a0,1364
    1954:	20b12a23          	sw	a1,532(sp)

00001958 <inst_153>:
    1958:	00500513          	li	a0,5
    195c:	00057593          	andi	a1,a0,0
    1960:	20b12c23          	sw	a1,536(sp)

00001964 <inst_154>:
    1964:	00500513          	li	a0,5
    1968:	00457593          	andi	a1,a0,4
    196c:	20b12e23          	sw	a1,540(sp)

00001970 <inst_155>:
    1970:	00500513          	li	a0,5
    1974:	33257593          	andi	a1,a0,818
    1978:	22b12023          	sw	a1,544(sp)

0000197c <inst_156>:
    197c:	00500513          	li	a0,5
    1980:	66557593          	andi	a1,a0,1637
    1984:	22b12223          	sw	a1,548(sp)

00001988 <inst_157>:
    1988:	00500513          	li	a0,5
    198c:	02c57593          	andi	a1,a0,44
    1990:	22b12423          	sw	a1,552(sp)

00001994 <inst_158>:
    1994:	00500513          	li	a0,5
    1998:	55657593          	andi	a1,a0,1366
    199c:	22b12623          	sw	a1,556(sp)

000019a0 <inst_159>:
    19a0:	00500513          	li	a0,5
    19a4:	aab57593          	andi	a1,a0,-1365
    19a8:	22b12823          	sw	a1,560(sp)

000019ac <inst_160>:
    19ac:	00500513          	li	a0,5
    19b0:	00657593          	andi	a1,a0,6
    19b4:	22b12a23          	sw	a1,564(sp)

000019b8 <inst_161>:
    19b8:	00500513          	li	a0,5
    19bc:	33457593          	andi	a1,a0,820
    19c0:	22b12c23          	sw	a1,568(sp)

000019c4 <inst_162>:
    19c4:	00500513          	li	a0,5
    19c8:	66757593          	andi	a1,a0,1639
    19cc:	22b12e23          	sw	a1,572(sp)

000019d0 <inst_163>:
    19d0:	00500513          	li	a0,5
    19d4:	fd457593          	andi	a1,a0,-44
    19d8:	24b12023          	sw	a1,576(sp)

000019dc <inst_164>:
    19dc:	00500513          	li	a0,5
    19e0:	02e57593          	andi	a1,a0,46
    19e4:	24b12223          	sw	a1,580(sp)

000019e8 <inst_165>:
    19e8:	33333537          	lui	a0,0x33333
    19ec:	33350513          	addi	a0,a0,819 # 33333333 <_end+0x3332e32f>
    19f0:	00357593          	andi	a1,a0,3
    19f4:	24b12423          	sw	a1,584(sp)

000019f8 <inst_166>:
    19f8:	33333537          	lui	a0,0x33333
    19fc:	33350513          	addi	a0,a0,819 # 33333333 <_end+0x3332e32f>
    1a00:	55557593          	andi	a1,a0,1365
    1a04:	24b12623          	sw	a1,588(sp)

00001a08 <inst_167>:
    1a08:	33333537          	lui	a0,0x33333
    1a0c:	33350513          	addi	a0,a0,819 # 33333333 <_end+0x3332e32f>
    1a10:	aaa57593          	andi	a1,a0,-1366
    1a14:	24b12823          	sw	a1,592(sp)

00001a18 <inst_168>:
    1a18:	33333537          	lui	a0,0x33333
    1a1c:	33350513          	addi	a0,a0,819 # 33333333 <_end+0x3332e32f>
    1a20:	00557593          	andi	a1,a0,5
    1a24:	24b12a23          	sw	a1,596(sp)

00001a28 <inst_169>:
    1a28:	33333537          	lui	a0,0x33333
    1a2c:	33350513          	addi	a0,a0,819 # 33333333 <_end+0x3332e32f>
    1a30:	33357593          	andi	a1,a0,819
    1a34:	24b12c23          	sw	a1,600(sp)

00001a38 <inst_170>:
    1a38:	33333537          	lui	a0,0x33333
    1a3c:	33350513          	addi	a0,a0,819 # 33333333 <_end+0x3332e32f>
    1a40:	66657593          	andi	a1,a0,1638
    1a44:	24b12e23          	sw	a1,604(sp)

00001a48 <inst_171>:
    1a48:	33333537          	lui	a0,0x33333
    1a4c:	33350513          	addi	a0,a0,819 # 33333333 <_end+0x3332e32f>
    1a50:	fd357593          	andi	a1,a0,-45
    1a54:	26b12023          	sw	a1,608(sp)

00001a58 <inst_172>:
    1a58:	33333537          	lui	a0,0x33333
    1a5c:	33350513          	addi	a0,a0,819 # 33333333 <_end+0x3332e32f>
    1a60:	02d57593          	andi	a1,a0,45
    1a64:	26b12223          	sw	a1,612(sp)

00001a68 <inst_173>:
    1a68:	33333537          	lui	a0,0x33333
    1a6c:	33350513          	addi	a0,a0,819 # 33333333 <_end+0x3332e32f>
    1a70:	00257593          	andi	a1,a0,2
    1a74:	26b12423          	sw	a1,616(sp)

00001a78 <inst_174>:
    1a78:	33333537          	lui	a0,0x33333
    1a7c:	33350513          	addi	a0,a0,819 # 33333333 <_end+0x3332e32f>
    1a80:	55457593          	andi	a1,a0,1364
    1a84:	26b12623          	sw	a1,620(sp)

00001a88 <inst_175>:
    1a88:	33333537          	lui	a0,0x33333
    1a8c:	33350513          	addi	a0,a0,819 # 33333333 <_end+0x3332e32f>
    1a90:	00057593          	andi	a1,a0,0
    1a94:	26b12823          	sw	a1,624(sp)

00001a98 <inst_176>:
    1a98:	33333537          	lui	a0,0x33333
    1a9c:	33350513          	addi	a0,a0,819 # 33333333 <_end+0x3332e32f>
    1aa0:	00457593          	andi	a1,a0,4
    1aa4:	26b12a23          	sw	a1,628(sp)

00001aa8 <inst_177>:
    1aa8:	33333537          	lui	a0,0x33333
    1aac:	33350513          	addi	a0,a0,819 # 33333333 <_end+0x3332e32f>
    1ab0:	33257593          	andi	a1,a0,818
    1ab4:	26b12c23          	sw	a1,632(sp)

00001ab8 <inst_178>:
    1ab8:	33333537          	lui	a0,0x33333
    1abc:	33350513          	addi	a0,a0,819 # 33333333 <_end+0x3332e32f>
    1ac0:	66557593          	andi	a1,a0,1637
    1ac4:	26b12e23          	sw	a1,636(sp)

00001ac8 <inst_179>:
    1ac8:	33333537          	lui	a0,0x33333
    1acc:	33350513          	addi	a0,a0,819 # 33333333 <_end+0x3332e32f>
    1ad0:	02c57593          	andi	a1,a0,44
    1ad4:	28b12023          	sw	a1,640(sp)

00001ad8 <inst_180>:
    1ad8:	33333537          	lui	a0,0x33333
    1adc:	33350513          	addi	a0,a0,819 # 33333333 <_end+0x3332e32f>
    1ae0:	55657593          	andi	a1,a0,1366
    1ae4:	28b12223          	sw	a1,644(sp)

00001ae8 <inst_181>:
    1ae8:	33333537          	lui	a0,0x33333
    1aec:	33350513          	addi	a0,a0,819 # 33333333 <_end+0x3332e32f>
    1af0:	aab57593          	andi	a1,a0,-1365
    1af4:	28b12423          	sw	a1,648(sp)

00001af8 <inst_182>:
    1af8:	33333537          	lui	a0,0x33333
    1afc:	33350513          	addi	a0,a0,819 # 33333333 <_end+0x3332e32f>
    1b00:	00657593          	andi	a1,a0,6
    1b04:	28b12623          	sw	a1,652(sp)

00001b08 <inst_183>:
    1b08:	33333537          	lui	a0,0x33333
    1b0c:	33350513          	addi	a0,a0,819 # 33333333 <_end+0x3332e32f>
    1b10:	33457593          	andi	a1,a0,820
    1b14:	28b12823          	sw	a1,656(sp)

00001b18 <inst_184>:
    1b18:	33333537          	lui	a0,0x33333
    1b1c:	33350513          	addi	a0,a0,819 # 33333333 <_end+0x3332e32f>
    1b20:	66757593          	andi	a1,a0,1639
    1b24:	28b12a23          	sw	a1,660(sp)

00001b28 <inst_185>:
    1b28:	33333537          	lui	a0,0x33333
    1b2c:	33350513          	addi	a0,a0,819 # 33333333 <_end+0x3332e32f>
    1b30:	fd457593          	andi	a1,a0,-44
    1b34:	28b12c23          	sw	a1,664(sp)

00001b38 <inst_186>:
    1b38:	33333537          	lui	a0,0x33333
    1b3c:	33350513          	addi	a0,a0,819 # 33333333 <_end+0x3332e32f>
    1b40:	02e57593          	andi	a1,a0,46
    1b44:	28b12e23          	sw	a1,668(sp)

00001b48 <inst_187>:
    1b48:	66666537          	lui	a0,0x66666
    1b4c:	66650513          	addi	a0,a0,1638 # 66666666 <_end+0x66661662>
    1b50:	00357593          	andi	a1,a0,3
    1b54:	2ab12023          	sw	a1,672(sp)

00001b58 <inst_188>:
    1b58:	66666537          	lui	a0,0x66666
    1b5c:	66650513          	addi	a0,a0,1638 # 66666666 <_end+0x66661662>
    1b60:	55557593          	andi	a1,a0,1365
    1b64:	2ab12223          	sw	a1,676(sp)

00001b68 <inst_189>:
    1b68:	66666537          	lui	a0,0x66666
    1b6c:	66650513          	addi	a0,a0,1638 # 66666666 <_end+0x66661662>
    1b70:	aaa57593          	andi	a1,a0,-1366
    1b74:	2ab12423          	sw	a1,680(sp)

00001b78 <inst_190>:
    1b78:	66666537          	lui	a0,0x66666
    1b7c:	66650513          	addi	a0,a0,1638 # 66666666 <_end+0x66661662>
    1b80:	00557593          	andi	a1,a0,5
    1b84:	2ab12623          	sw	a1,684(sp)

00001b88 <inst_191>:
    1b88:	66666537          	lui	a0,0x66666
    1b8c:	66650513          	addi	a0,a0,1638 # 66666666 <_end+0x66661662>
    1b90:	33357593          	andi	a1,a0,819
    1b94:	2ab12823          	sw	a1,688(sp)

00001b98 <inst_192>:
    1b98:	66666537          	lui	a0,0x66666
    1b9c:	66650513          	addi	a0,a0,1638 # 66666666 <_end+0x66661662>
    1ba0:	66657593          	andi	a1,a0,1638
    1ba4:	2ab12a23          	sw	a1,692(sp)

00001ba8 <inst_193>:
    1ba8:	66666537          	lui	a0,0x66666
    1bac:	66650513          	addi	a0,a0,1638 # 66666666 <_end+0x66661662>
    1bb0:	fd357593          	andi	a1,a0,-45
    1bb4:	2ab12c23          	sw	a1,696(sp)

00001bb8 <inst_194>:
    1bb8:	66666537          	lui	a0,0x66666
    1bbc:	66650513          	addi	a0,a0,1638 # 66666666 <_end+0x66661662>
    1bc0:	02d57593          	andi	a1,a0,45
    1bc4:	2ab12e23          	sw	a1,700(sp)

00001bc8 <inst_195>:
    1bc8:	66666537          	lui	a0,0x66666
    1bcc:	66650513          	addi	a0,a0,1638 # 66666666 <_end+0x66661662>
    1bd0:	00257593          	andi	a1,a0,2
    1bd4:	2cb12023          	sw	a1,704(sp)

00001bd8 <inst_196>:
    1bd8:	66666537          	lui	a0,0x66666
    1bdc:	66650513          	addi	a0,a0,1638 # 66666666 <_end+0x66661662>
    1be0:	55457593          	andi	a1,a0,1364
    1be4:	2cb12223          	sw	a1,708(sp)

00001be8 <inst_197>:
    1be8:	66666537          	lui	a0,0x66666
    1bec:	66650513          	addi	a0,a0,1638 # 66666666 <_end+0x66661662>
    1bf0:	00057593          	andi	a1,a0,0
    1bf4:	2cb12423          	sw	a1,712(sp)

00001bf8 <inst_198>:
    1bf8:	66666537          	lui	a0,0x66666
    1bfc:	66650513          	addi	a0,a0,1638 # 66666666 <_end+0x66661662>
    1c00:	00457593          	andi	a1,a0,4
    1c04:	2cb12623          	sw	a1,716(sp)

00001c08 <inst_199>:
    1c08:	66666537          	lui	a0,0x66666
    1c0c:	66650513          	addi	a0,a0,1638 # 66666666 <_end+0x66661662>
    1c10:	33257593          	andi	a1,a0,818
    1c14:	2cb12823          	sw	a1,720(sp)

00001c18 <inst_200>:
    1c18:	66666537          	lui	a0,0x66666
    1c1c:	66650513          	addi	a0,a0,1638 # 66666666 <_end+0x66661662>
    1c20:	66557593          	andi	a1,a0,1637
    1c24:	2cb12a23          	sw	a1,724(sp)

00001c28 <inst_201>:
    1c28:	66666537          	lui	a0,0x66666
    1c2c:	66650513          	addi	a0,a0,1638 # 66666666 <_end+0x66661662>
    1c30:	02c57593          	andi	a1,a0,44
    1c34:	2cb12c23          	sw	a1,728(sp)

00001c38 <inst_202>:
    1c38:	66666537          	lui	a0,0x66666
    1c3c:	66650513          	addi	a0,a0,1638 # 66666666 <_end+0x66661662>
    1c40:	55657593          	andi	a1,a0,1366
    1c44:	2cb12e23          	sw	a1,732(sp)

00001c48 <inst_203>:
    1c48:	66666537          	lui	a0,0x66666
    1c4c:	66650513          	addi	a0,a0,1638 # 66666666 <_end+0x66661662>
    1c50:	aab57593          	andi	a1,a0,-1365
    1c54:	2eb12023          	sw	a1,736(sp)

00001c58 <inst_204>:
    1c58:	66666537          	lui	a0,0x66666
    1c5c:	66650513          	addi	a0,a0,1638 # 66666666 <_end+0x66661662>
    1c60:	00657593          	andi	a1,a0,6
    1c64:	2eb12223          	sw	a1,740(sp)

00001c68 <inst_205>:
    1c68:	66666537          	lui	a0,0x66666
    1c6c:	66650513          	addi	a0,a0,1638 # 66666666 <_end+0x66661662>
    1c70:	33457593          	andi	a1,a0,820
    1c74:	2eb12423          	sw	a1,744(sp)

00001c78 <inst_206>:
    1c78:	66666537          	lui	a0,0x66666
    1c7c:	66650513          	addi	a0,a0,1638 # 66666666 <_end+0x66661662>
    1c80:	66757593          	andi	a1,a0,1639
    1c84:	2eb12623          	sw	a1,748(sp)

00001c88 <inst_207>:
    1c88:	66666537          	lui	a0,0x66666
    1c8c:	66650513          	addi	a0,a0,1638 # 66666666 <_end+0x66661662>
    1c90:	fd457593          	andi	a1,a0,-44
    1c94:	2eb12823          	sw	a1,752(sp)

00001c98 <inst_208>:
    1c98:	66666537          	lui	a0,0x66666
    1c9c:	66650513          	addi	a0,a0,1638 # 66666666 <_end+0x66661662>
    1ca0:	02e57593          	andi	a1,a0,46
    1ca4:	2eb12a23          	sw	a1,756(sp)

00001ca8 <inst_209>:
    1ca8:	ffff5537          	lui	a0,0xffff5
    1cac:	afc50513          	addi	a0,a0,-1284 # ffff4afc <_end+0xfffefaf8>
    1cb0:	00357593          	andi	a1,a0,3
    1cb4:	2eb12c23          	sw	a1,760(sp)

00001cb8 <inst_210>:
    1cb8:	ffff5537          	lui	a0,0xffff5
    1cbc:	afc50513          	addi	a0,a0,-1284 # ffff4afc <_end+0xfffefaf8>
    1cc0:	55557593          	andi	a1,a0,1365
    1cc4:	2eb12e23          	sw	a1,764(sp)

00001cc8 <inst_211>:
    1cc8:	ffff5537          	lui	a0,0xffff5
    1ccc:	afc50513          	addi	a0,a0,-1284 # ffff4afc <_end+0xfffefaf8>
    1cd0:	aaa57593          	andi	a1,a0,-1366
    1cd4:	30b12023          	sw	a1,768(sp)

00001cd8 <inst_212>:
    1cd8:	ffff5537          	lui	a0,0xffff5
    1cdc:	afc50513          	addi	a0,a0,-1284 # ffff4afc <_end+0xfffefaf8>
    1ce0:	00557593          	andi	a1,a0,5
    1ce4:	30b12223          	sw	a1,772(sp)

00001ce8 <inst_213>:
    1ce8:	ffff5537          	lui	a0,0xffff5
    1cec:	afc50513          	addi	a0,a0,-1284 # ffff4afc <_end+0xfffefaf8>
    1cf0:	33357593          	andi	a1,a0,819
    1cf4:	30b12423          	sw	a1,776(sp)

00001cf8 <inst_214>:
    1cf8:	ffff5537          	lui	a0,0xffff5
    1cfc:	afc50513          	addi	a0,a0,-1284 # ffff4afc <_end+0xfffefaf8>
    1d00:	66657593          	andi	a1,a0,1638
    1d04:	30b12623          	sw	a1,780(sp)

00001d08 <inst_215>:
    1d08:	ffff5537          	lui	a0,0xffff5
    1d0c:	afc50513          	addi	a0,a0,-1284 # ffff4afc <_end+0xfffefaf8>
    1d10:	fd357593          	andi	a1,a0,-45
    1d14:	30b12823          	sw	a1,784(sp)

00001d18 <inst_216>:
    1d18:	ffff5537          	lui	a0,0xffff5
    1d1c:	afc50513          	addi	a0,a0,-1284 # ffff4afc <_end+0xfffefaf8>
    1d20:	02d57593          	andi	a1,a0,45
    1d24:	30b12a23          	sw	a1,788(sp)

00001d28 <inst_217>:
    1d28:	ffff5537          	lui	a0,0xffff5
    1d2c:	afc50513          	addi	a0,a0,-1284 # ffff4afc <_end+0xfffefaf8>
    1d30:	00257593          	andi	a1,a0,2
    1d34:	30b12c23          	sw	a1,792(sp)

00001d38 <inst_218>:
    1d38:	ffff5537          	lui	a0,0xffff5
    1d3c:	afc50513          	addi	a0,a0,-1284 # ffff4afc <_end+0xfffefaf8>
    1d40:	55457593          	andi	a1,a0,1364
    1d44:	30b12e23          	sw	a1,796(sp)

00001d48 <inst_219>:
    1d48:	ffff5537          	lui	a0,0xffff5
    1d4c:	afc50513          	addi	a0,a0,-1284 # ffff4afc <_end+0xfffefaf8>
    1d50:	00057593          	andi	a1,a0,0
    1d54:	32b12023          	sw	a1,800(sp)

00001d58 <inst_220>:
    1d58:	ffff5537          	lui	a0,0xffff5
    1d5c:	afc50513          	addi	a0,a0,-1284 # ffff4afc <_end+0xfffefaf8>
    1d60:	00457593          	andi	a1,a0,4
    1d64:	32b12223          	sw	a1,804(sp)

00001d68 <inst_221>:
    1d68:	ffff5537          	lui	a0,0xffff5
    1d6c:	afc50513          	addi	a0,a0,-1284 # ffff4afc <_end+0xfffefaf8>
    1d70:	33257593          	andi	a1,a0,818
    1d74:	32b12423          	sw	a1,808(sp)

00001d78 <inst_222>:
    1d78:	ffff5537          	lui	a0,0xffff5
    1d7c:	afc50513          	addi	a0,a0,-1284 # ffff4afc <_end+0xfffefaf8>
    1d80:	66557593          	andi	a1,a0,1637
    1d84:	32b12623          	sw	a1,812(sp)

00001d88 <inst_223>:
    1d88:	ffff5537          	lui	a0,0xffff5
    1d8c:	afc50513          	addi	a0,a0,-1284 # ffff4afc <_end+0xfffefaf8>
    1d90:	02c57593          	andi	a1,a0,44
    1d94:	32b12823          	sw	a1,816(sp)

00001d98 <inst_224>:
    1d98:	ffff5537          	lui	a0,0xffff5
    1d9c:	afc50513          	addi	a0,a0,-1284 # ffff4afc <_end+0xfffefaf8>
    1da0:	55657593          	andi	a1,a0,1366
    1da4:	32b12a23          	sw	a1,820(sp)

00001da8 <inst_225>:
    1da8:	ffff5537          	lui	a0,0xffff5
    1dac:	afc50513          	addi	a0,a0,-1284 # ffff4afc <_end+0xfffefaf8>
    1db0:	aab57593          	andi	a1,a0,-1365
    1db4:	32b12c23          	sw	a1,824(sp)

00001db8 <inst_226>:
    1db8:	ffff5537          	lui	a0,0xffff5
    1dbc:	afc50513          	addi	a0,a0,-1284 # ffff4afc <_end+0xfffefaf8>
    1dc0:	00657593          	andi	a1,a0,6
    1dc4:	32b12e23          	sw	a1,828(sp)

00001dc8 <inst_227>:
    1dc8:	ffff5537          	lui	a0,0xffff5
    1dcc:	afc50513          	addi	a0,a0,-1284 # ffff4afc <_end+0xfffefaf8>
    1dd0:	33457593          	andi	a1,a0,820
    1dd4:	34b12023          	sw	a1,832(sp)

00001dd8 <inst_228>:
    1dd8:	ffff5537          	lui	a0,0xffff5
    1ddc:	afc50513          	addi	a0,a0,-1284 # ffff4afc <_end+0xfffefaf8>
    1de0:	66757593          	andi	a1,a0,1639
    1de4:	34b12223          	sw	a1,836(sp)

00001de8 <inst_229>:
    1de8:	ffff5537          	lui	a0,0xffff5
    1dec:	afc50513          	addi	a0,a0,-1284 # ffff4afc <_end+0xfffefaf8>
    1df0:	fd457593          	andi	a1,a0,-44
    1df4:	34b12423          	sw	a1,840(sp)

00001df8 <inst_230>:
    1df8:	ffff5537          	lui	a0,0xffff5
    1dfc:	afc50513          	addi	a0,a0,-1284 # ffff4afc <_end+0xfffefaf8>
    1e00:	02e57593          	andi	a1,a0,46
    1e04:	34b12623          	sw	a1,844(sp)

00001e08 <inst_231>:
    1e08:	0000b537          	lui	a0,0xb
    1e0c:	50450513          	addi	a0,a0,1284 # b504 <_end+0x6500>
    1e10:	00357593          	andi	a1,a0,3
    1e14:	34b12823          	sw	a1,848(sp)

00001e18 <inst_232>:
    1e18:	0000b537          	lui	a0,0xb
    1e1c:	50450513          	addi	a0,a0,1284 # b504 <_end+0x6500>
    1e20:	55557593          	andi	a1,a0,1365
    1e24:	34b12a23          	sw	a1,852(sp)

00001e28 <inst_233>:
    1e28:	0000b537          	lui	a0,0xb
    1e2c:	50450513          	addi	a0,a0,1284 # b504 <_end+0x6500>
    1e30:	aaa57593          	andi	a1,a0,-1366
    1e34:	34b12c23          	sw	a1,856(sp)

00001e38 <inst_234>:
    1e38:	0000b537          	lui	a0,0xb
    1e3c:	50450513          	addi	a0,a0,1284 # b504 <_end+0x6500>
    1e40:	00557593          	andi	a1,a0,5
    1e44:	34b12e23          	sw	a1,860(sp)

00001e48 <inst_235>:
    1e48:	0000b537          	lui	a0,0xb
    1e4c:	50450513          	addi	a0,a0,1284 # b504 <_end+0x6500>
    1e50:	33357593          	andi	a1,a0,819
    1e54:	36b12023          	sw	a1,864(sp)

00001e58 <inst_236>:
    1e58:	0000b537          	lui	a0,0xb
    1e5c:	50450513          	addi	a0,a0,1284 # b504 <_end+0x6500>
    1e60:	66657593          	andi	a1,a0,1638
    1e64:	36b12223          	sw	a1,868(sp)

00001e68 <inst_237>:
    1e68:	0000b537          	lui	a0,0xb
    1e6c:	50450513          	addi	a0,a0,1284 # b504 <_end+0x6500>
    1e70:	fd357593          	andi	a1,a0,-45
    1e74:	36b12423          	sw	a1,872(sp)

00001e78 <inst_238>:
    1e78:	0000b537          	lui	a0,0xb
    1e7c:	50450513          	addi	a0,a0,1284 # b504 <_end+0x6500>
    1e80:	02d57593          	andi	a1,a0,45
    1e84:	36b12623          	sw	a1,876(sp)

00001e88 <inst_239>:
    1e88:	0000b537          	lui	a0,0xb
    1e8c:	50450513          	addi	a0,a0,1284 # b504 <_end+0x6500>
    1e90:	00257593          	andi	a1,a0,2
    1e94:	36b12823          	sw	a1,880(sp)

00001e98 <inst_240>:
    1e98:	0000b537          	lui	a0,0xb
    1e9c:	50450513          	addi	a0,a0,1284 # b504 <_end+0x6500>
    1ea0:	55457593          	andi	a1,a0,1364
    1ea4:	36b12a23          	sw	a1,884(sp)

00001ea8 <inst_241>:
    1ea8:	0000b537          	lui	a0,0xb
    1eac:	50450513          	addi	a0,a0,1284 # b504 <_end+0x6500>
    1eb0:	00057593          	andi	a1,a0,0
    1eb4:	36b12c23          	sw	a1,888(sp)

00001eb8 <inst_242>:
    1eb8:	0000b537          	lui	a0,0xb
    1ebc:	50450513          	addi	a0,a0,1284 # b504 <_end+0x6500>
    1ec0:	00457593          	andi	a1,a0,4
    1ec4:	36b12e23          	sw	a1,892(sp)

00001ec8 <inst_243>:
    1ec8:	0000b537          	lui	a0,0xb
    1ecc:	50450513          	addi	a0,a0,1284 # b504 <_end+0x6500>
    1ed0:	33257593          	andi	a1,a0,818
    1ed4:	38b12023          	sw	a1,896(sp)

00001ed8 <inst_244>:
    1ed8:	0000b537          	lui	a0,0xb
    1edc:	50450513          	addi	a0,a0,1284 # b504 <_end+0x6500>
    1ee0:	66557593          	andi	a1,a0,1637
    1ee4:	38b12223          	sw	a1,900(sp)

00001ee8 <inst_245>:
    1ee8:	0000b537          	lui	a0,0xb
    1eec:	50450513          	addi	a0,a0,1284 # b504 <_end+0x6500>
    1ef0:	02c57593          	andi	a1,a0,44
    1ef4:	38b12423          	sw	a1,904(sp)

00001ef8 <inst_246>:
    1ef8:	0000b537          	lui	a0,0xb
    1efc:	50450513          	addi	a0,a0,1284 # b504 <_end+0x6500>
    1f00:	55657593          	andi	a1,a0,1366
    1f04:	38b12623          	sw	a1,908(sp)

00001f08 <inst_247>:
    1f08:	0000b537          	lui	a0,0xb
    1f0c:	50450513          	addi	a0,a0,1284 # b504 <_end+0x6500>
    1f10:	aab57593          	andi	a1,a0,-1365
    1f14:	38b12823          	sw	a1,912(sp)

00001f18 <inst_248>:
    1f18:	0000b537          	lui	a0,0xb
    1f1c:	50450513          	addi	a0,a0,1284 # b504 <_end+0x6500>
    1f20:	00657593          	andi	a1,a0,6
    1f24:	38b12a23          	sw	a1,916(sp)

00001f28 <inst_249>:
    1f28:	0000b537          	lui	a0,0xb
    1f2c:	50450513          	addi	a0,a0,1284 # b504 <_end+0x6500>
    1f30:	33457593          	andi	a1,a0,820
    1f34:	38b12c23          	sw	a1,920(sp)

00001f38 <inst_250>:
    1f38:	0000b537          	lui	a0,0xb
    1f3c:	50450513          	addi	a0,a0,1284 # b504 <_end+0x6500>
    1f40:	66757593          	andi	a1,a0,1639
    1f44:	38b12e23          	sw	a1,924(sp)

00001f48 <inst_251>:
    1f48:	0000b537          	lui	a0,0xb
    1f4c:	50450513          	addi	a0,a0,1284 # b504 <_end+0x6500>
    1f50:	fd457593          	andi	a1,a0,-44
    1f54:	3ab12023          	sw	a1,928(sp)

00001f58 <inst_252>:
    1f58:	0000b537          	lui	a0,0xb
    1f5c:	50450513          	addi	a0,a0,1284 # b504 <_end+0x6500>
    1f60:	02e57593          	andi	a1,a0,46
    1f64:	3ab12223          	sw	a1,932(sp)

00001f68 <inst_253>:
    1f68:	00200513          	li	a0,2
    1f6c:	00357593          	andi	a1,a0,3
    1f70:	3ab12423          	sw	a1,936(sp)

00001f74 <inst_254>:
    1f74:	00200513          	li	a0,2
    1f78:	55557593          	andi	a1,a0,1365
    1f7c:	3ab12623          	sw	a1,940(sp)

00001f80 <inst_255>:
    1f80:	00200513          	li	a0,2
    1f84:	aaa57593          	andi	a1,a0,-1366
    1f88:	3ab12823          	sw	a1,944(sp)

00001f8c <inst_256>:
    1f8c:	00200513          	li	a0,2
    1f90:	00557593          	andi	a1,a0,5
    1f94:	3ab12a23          	sw	a1,948(sp)

00001f98 <inst_257>:
    1f98:	00200513          	li	a0,2
    1f9c:	33357593          	andi	a1,a0,819
    1fa0:	3ab12c23          	sw	a1,952(sp)

00001fa4 <inst_258>:
    1fa4:	00200513          	li	a0,2
    1fa8:	66657593          	andi	a1,a0,1638
    1fac:	3ab12e23          	sw	a1,956(sp)

00001fb0 <inst_259>:
    1fb0:	00200513          	li	a0,2
    1fb4:	fd357593          	andi	a1,a0,-45
    1fb8:	3cb12023          	sw	a1,960(sp)

00001fbc <inst_260>:
    1fbc:	00200513          	li	a0,2
    1fc0:	02d57593          	andi	a1,a0,45
    1fc4:	3cb12223          	sw	a1,964(sp)

00001fc8 <inst_261>:
    1fc8:	00200513          	li	a0,2
    1fcc:	00257593          	andi	a1,a0,2
    1fd0:	3cb12423          	sw	a1,968(sp)

00001fd4 <inst_262>:
    1fd4:	00200513          	li	a0,2
    1fd8:	55457593          	andi	a1,a0,1364
    1fdc:	3cb12623          	sw	a1,972(sp)

00001fe0 <inst_263>:
    1fe0:	00200513          	li	a0,2
    1fe4:	00057593          	andi	a1,a0,0
    1fe8:	3cb12823          	sw	a1,976(sp)

00001fec <inst_264>:
    1fec:	00200513          	li	a0,2
    1ff0:	00457593          	andi	a1,a0,4
    1ff4:	3cb12a23          	sw	a1,980(sp)

00001ff8 <inst_265>:
    1ff8:	00200513          	li	a0,2
    1ffc:	33257593          	andi	a1,a0,818
    2000:	3cb12c23          	sw	a1,984(sp)

00002004 <inst_266>:
    2004:	00200513          	li	a0,2
    2008:	66557593          	andi	a1,a0,1637
    200c:	3cb12e23          	sw	a1,988(sp)

00002010 <inst_267>:
    2010:	00200513          	li	a0,2
    2014:	02c57593          	andi	a1,a0,44
    2018:	3eb12023          	sw	a1,992(sp)

0000201c <inst_268>:
    201c:	00200513          	li	a0,2
    2020:	55657593          	andi	a1,a0,1366
    2024:	3eb12223          	sw	a1,996(sp)

00002028 <inst_269>:
    2028:	00200513          	li	a0,2
    202c:	aab57593          	andi	a1,a0,-1365
    2030:	3eb12423          	sw	a1,1000(sp)

00002034 <inst_270>:
    2034:	00200513          	li	a0,2
    2038:	00657593          	andi	a1,a0,6
    203c:	3eb12623          	sw	a1,1004(sp)

00002040 <inst_271>:
    2040:	00200513          	li	a0,2
    2044:	33457593          	andi	a1,a0,820
    2048:	3eb12823          	sw	a1,1008(sp)

0000204c <inst_272>:
    204c:	00200513          	li	a0,2
    2050:	66757593          	andi	a1,a0,1639
    2054:	3eb12a23          	sw	a1,1012(sp)

00002058 <inst_273>:
    2058:	00200513          	li	a0,2
    205c:	fd457593          	andi	a1,a0,-44
    2060:	3eb12c23          	sw	a1,1016(sp)

00002064 <inst_274>:
    2064:	00200513          	li	a0,2
    2068:	02e57593          	andi	a1,a0,46
    206c:	3eb12e23          	sw	a1,1020(sp)

00002070 <inst_275>:
    2070:	55555537          	lui	a0,0x55555
    2074:	55450513          	addi	a0,a0,1364 # 55555554 <_end+0x55550550>
    2078:	00357593          	andi	a1,a0,3
    207c:	40b12023          	sw	a1,1024(sp)

00002080 <inst_276>:
    2080:	55555537          	lui	a0,0x55555
    2084:	55450513          	addi	a0,a0,1364 # 55555554 <_end+0x55550550>
    2088:	55557593          	andi	a1,a0,1365
    208c:	40b12223          	sw	a1,1028(sp)

00002090 <inst_277>:
    2090:	55555537          	lui	a0,0x55555
    2094:	55450513          	addi	a0,a0,1364 # 55555554 <_end+0x55550550>
    2098:	aaa57593          	andi	a1,a0,-1366
    209c:	40b12423          	sw	a1,1032(sp)

000020a0 <inst_278>:
    20a0:	55555537          	lui	a0,0x55555
    20a4:	55450513          	addi	a0,a0,1364 # 55555554 <_end+0x55550550>
    20a8:	00557593          	andi	a1,a0,5
    20ac:	40b12623          	sw	a1,1036(sp)

000020b0 <inst_279>:
    20b0:	55555537          	lui	a0,0x55555
    20b4:	55450513          	addi	a0,a0,1364 # 55555554 <_end+0x55550550>
    20b8:	33357593          	andi	a1,a0,819
    20bc:	40b12823          	sw	a1,1040(sp)

000020c0 <inst_280>:
    20c0:	55555537          	lui	a0,0x55555
    20c4:	55450513          	addi	a0,a0,1364 # 55555554 <_end+0x55550550>
    20c8:	66657593          	andi	a1,a0,1638
    20cc:	40b12a23          	sw	a1,1044(sp)

000020d0 <inst_281>:
    20d0:	55555537          	lui	a0,0x55555
    20d4:	55450513          	addi	a0,a0,1364 # 55555554 <_end+0x55550550>
    20d8:	fd357593          	andi	a1,a0,-45
    20dc:	40b12c23          	sw	a1,1048(sp)

000020e0 <inst_282>:
    20e0:	55555537          	lui	a0,0x55555
    20e4:	55450513          	addi	a0,a0,1364 # 55555554 <_end+0x55550550>
    20e8:	02d57593          	andi	a1,a0,45
    20ec:	40b12e23          	sw	a1,1052(sp)

000020f0 <inst_283>:
    20f0:	55555537          	lui	a0,0x55555
    20f4:	55450513          	addi	a0,a0,1364 # 55555554 <_end+0x55550550>
    20f8:	00257593          	andi	a1,a0,2
    20fc:	42b12023          	sw	a1,1056(sp)

00002100 <inst_284>:
    2100:	55555537          	lui	a0,0x55555
    2104:	55450513          	addi	a0,a0,1364 # 55555554 <_end+0x55550550>
    2108:	55457593          	andi	a1,a0,1364
    210c:	42b12223          	sw	a1,1060(sp)

00002110 <inst_285>:
    2110:	55555537          	lui	a0,0x55555
    2114:	55450513          	addi	a0,a0,1364 # 55555554 <_end+0x55550550>
    2118:	00057593          	andi	a1,a0,0
    211c:	42b12423          	sw	a1,1064(sp)

00002120 <inst_286>:
    2120:	55555537          	lui	a0,0x55555
    2124:	55450513          	addi	a0,a0,1364 # 55555554 <_end+0x55550550>
    2128:	00457593          	andi	a1,a0,4
    212c:	42b12623          	sw	a1,1068(sp)

00002130 <inst_287>:
    2130:	55555537          	lui	a0,0x55555
    2134:	55450513          	addi	a0,a0,1364 # 55555554 <_end+0x55550550>
    2138:	33257593          	andi	a1,a0,818
    213c:	42b12823          	sw	a1,1072(sp)

00002140 <inst_288>:
    2140:	55555537          	lui	a0,0x55555
    2144:	55450513          	addi	a0,a0,1364 # 55555554 <_end+0x55550550>
    2148:	66557593          	andi	a1,a0,1637
    214c:	42b12a23          	sw	a1,1076(sp)

00002150 <inst_289>:
    2150:	55555537          	lui	a0,0x55555
    2154:	55450513          	addi	a0,a0,1364 # 55555554 <_end+0x55550550>
    2158:	02c57593          	andi	a1,a0,44
    215c:	42b12c23          	sw	a1,1080(sp)

00002160 <inst_290>:
    2160:	55555537          	lui	a0,0x55555
    2164:	55450513          	addi	a0,a0,1364 # 55555554 <_end+0x55550550>
    2168:	55657593          	andi	a1,a0,1366
    216c:	42b12e23          	sw	a1,1084(sp)

00002170 <inst_291>:
    2170:	55555537          	lui	a0,0x55555
    2174:	55450513          	addi	a0,a0,1364 # 55555554 <_end+0x55550550>
    2178:	aab57593          	andi	a1,a0,-1365
    217c:	44b12023          	sw	a1,1088(sp)

00002180 <inst_292>:
    2180:	55555537          	lui	a0,0x55555
    2184:	55450513          	addi	a0,a0,1364 # 55555554 <_end+0x55550550>
    2188:	00657593          	andi	a1,a0,6
    218c:	44b12223          	sw	a1,1092(sp)

00002190 <inst_293>:
    2190:	55555537          	lui	a0,0x55555
    2194:	55450513          	addi	a0,a0,1364 # 55555554 <_end+0x55550550>
    2198:	33457593          	andi	a1,a0,820
    219c:	44b12423          	sw	a1,1096(sp)

000021a0 <inst_294>:
    21a0:	55555537          	lui	a0,0x55555
    21a4:	55450513          	addi	a0,a0,1364 # 55555554 <_end+0x55550550>
    21a8:	66757593          	andi	a1,a0,1639
    21ac:	44b12623          	sw	a1,1100(sp)

000021b0 <inst_295>:
    21b0:	55555537          	lui	a0,0x55555
    21b4:	55450513          	addi	a0,a0,1364 # 55555554 <_end+0x55550550>
    21b8:	fd457593          	andi	a1,a0,-44
    21bc:	44b12823          	sw	a1,1104(sp)

000021c0 <inst_296>:
    21c0:	55555537          	lui	a0,0x55555
    21c4:	55450513          	addi	a0,a0,1364 # 55555554 <_end+0x55550550>
    21c8:	02e57593          	andi	a1,a0,46
    21cc:	44b12a23          	sw	a1,1108(sp)

000021d0 <inst_297>:
    21d0:	00000513          	li	a0,0
    21d4:	00357593          	andi	a1,a0,3
    21d8:	44b12c23          	sw	a1,1112(sp)

000021dc <inst_298>:
    21dc:	00000513          	li	a0,0
    21e0:	55557593          	andi	a1,a0,1365
    21e4:	44b12e23          	sw	a1,1116(sp)

000021e8 <inst_299>:
    21e8:	00000513          	li	a0,0
    21ec:	aaa57593          	andi	a1,a0,-1366
    21f0:	46b12023          	sw	a1,1120(sp)

000021f4 <inst_300>:
    21f4:	00000513          	li	a0,0
    21f8:	00557593          	andi	a1,a0,5
    21fc:	46b12223          	sw	a1,1124(sp)

00002200 <inst_301>:
    2200:	00000513          	li	a0,0
    2204:	33357593          	andi	a1,a0,819
    2208:	46b12423          	sw	a1,1128(sp)

0000220c <inst_302>:
    220c:	00000513          	li	a0,0
    2210:	66657593          	andi	a1,a0,1638
    2214:	46b12623          	sw	a1,1132(sp)

00002218 <inst_303>:
    2218:	00000513          	li	a0,0
    221c:	fd357593          	andi	a1,a0,-45
    2220:	46b12823          	sw	a1,1136(sp)

00002224 <inst_304>:
    2224:	00000513          	li	a0,0
    2228:	02d57593          	andi	a1,a0,45
    222c:	46b12a23          	sw	a1,1140(sp)

00002230 <inst_305>:
    2230:	33333537          	lui	a0,0x33333
    2234:	33450513          	addi	a0,a0,820 # 33333334 <_end+0x3332e330>
    2238:	33257593          	andi	a1,a0,818
    223c:	46b12c23          	sw	a1,1144(sp)

00002240 <inst_306>:
    2240:	33333537          	lui	a0,0x33333
    2244:	33450513          	addi	a0,a0,820 # 33333334 <_end+0x3332e330>
    2248:	66557593          	andi	a1,a0,1637
    224c:	46b12e23          	sw	a1,1148(sp)

00002250 <inst_307>:
    2250:	33333537          	lui	a0,0x33333
    2254:	33450513          	addi	a0,a0,820 # 33333334 <_end+0x3332e330>
    2258:	02c57593          	andi	a1,a0,44
    225c:	48b12023          	sw	a1,1152(sp)

00002260 <inst_308>:
    2260:	33333537          	lui	a0,0x33333
    2264:	33450513          	addi	a0,a0,820 # 33333334 <_end+0x3332e330>
    2268:	55657593          	andi	a1,a0,1366
    226c:	48b12223          	sw	a1,1156(sp)

00002270 <inst_309>:
    2270:	33333537          	lui	a0,0x33333
    2274:	33450513          	addi	a0,a0,820 # 33333334 <_end+0x3332e330>
    2278:	aab57593          	andi	a1,a0,-1365
    227c:	48b12423          	sw	a1,1160(sp)

00002280 <inst_310>:
    2280:	33333537          	lui	a0,0x33333
    2284:	33450513          	addi	a0,a0,820 # 33333334 <_end+0x3332e330>
    2288:	00657593          	andi	a1,a0,6
    228c:	48b12623          	sw	a1,1164(sp)

00002290 <inst_311>:
    2290:	33333537          	lui	a0,0x33333
    2294:	33450513          	addi	a0,a0,820 # 33333334 <_end+0x3332e330>
    2298:	33457593          	andi	a1,a0,820
    229c:	48b12823          	sw	a1,1168(sp)

000022a0 <inst_312>:
    22a0:	33333537          	lui	a0,0x33333
    22a4:	33450513          	addi	a0,a0,820 # 33333334 <_end+0x3332e330>
    22a8:	66757593          	andi	a1,a0,1639
    22ac:	48b12a23          	sw	a1,1172(sp)

000022b0 <inst_313>:
    22b0:	33333537          	lui	a0,0x33333
    22b4:	33450513          	addi	a0,a0,820 # 33333334 <_end+0x3332e330>
    22b8:	fd457593          	andi	a1,a0,-44
    22bc:	48b12c23          	sw	a1,1176(sp)

000022c0 <inst_314>:
    22c0:	33333537          	lui	a0,0x33333
    22c4:	33450513          	addi	a0,a0,820 # 33333334 <_end+0x3332e330>
    22c8:	02e57593          	andi	a1,a0,46
    22cc:	48b12e23          	sw	a1,1180(sp)

000022d0 <inst_315>:
    22d0:	66666537          	lui	a0,0x66666
    22d4:	66750513          	addi	a0,a0,1639 # 66666667 <_end+0x66661663>
    22d8:	00357593          	andi	a1,a0,3
    22dc:	4ab12023          	sw	a1,1184(sp)

000022e0 <inst_316>:
    22e0:	66666537          	lui	a0,0x66666
    22e4:	66750513          	addi	a0,a0,1639 # 66666667 <_end+0x66661663>
    22e8:	55557593          	andi	a1,a0,1365
    22ec:	4ab12223          	sw	a1,1188(sp)

000022f0 <inst_317>:
    22f0:	66666537          	lui	a0,0x66666
    22f4:	66750513          	addi	a0,a0,1639 # 66666667 <_end+0x66661663>
    22f8:	aaa57593          	andi	a1,a0,-1366
    22fc:	4ab12423          	sw	a1,1192(sp)

00002300 <inst_318>:
    2300:	66666537          	lui	a0,0x66666
    2304:	66750513          	addi	a0,a0,1639 # 66666667 <_end+0x66661663>
    2308:	00557593          	andi	a1,a0,5
    230c:	4ab12623          	sw	a1,1196(sp)

00002310 <inst_319>:
    2310:	66666537          	lui	a0,0x66666
    2314:	66750513          	addi	a0,a0,1639 # 66666667 <_end+0x66661663>
    2318:	33357593          	andi	a1,a0,819
    231c:	4ab12823          	sw	a1,1200(sp)

00002320 <inst_320>:
    2320:	66666537          	lui	a0,0x66666
    2324:	66750513          	addi	a0,a0,1639 # 66666667 <_end+0x66661663>
    2328:	66657593          	andi	a1,a0,1638
    232c:	4ab12a23          	sw	a1,1204(sp)

00002330 <inst_321>:
    2330:	66666537          	lui	a0,0x66666
    2334:	66750513          	addi	a0,a0,1639 # 66666667 <_end+0x66661663>
    2338:	fd357593          	andi	a1,a0,-45
    233c:	4ab12c23          	sw	a1,1208(sp)

00002340 <inst_322>:
    2340:	66666537          	lui	a0,0x66666
    2344:	66750513          	addi	a0,a0,1639 # 66666667 <_end+0x66661663>
    2348:	02d57593          	andi	a1,a0,45
    234c:	4ab12e23          	sw	a1,1212(sp)

00002350 <inst_323>:
    2350:	66666537          	lui	a0,0x66666
    2354:	66750513          	addi	a0,a0,1639 # 66666667 <_end+0x66661663>
    2358:	00257593          	andi	a1,a0,2
    235c:	4cb12023          	sw	a1,1216(sp)

00002360 <inst_324>:
    2360:	66666537          	lui	a0,0x66666
    2364:	66750513          	addi	a0,a0,1639 # 66666667 <_end+0x66661663>
    2368:	55457593          	andi	a1,a0,1364
    236c:	4cb12223          	sw	a1,1220(sp)

00002370 <inst_325>:
    2370:	66666537          	lui	a0,0x66666
    2374:	66750513          	addi	a0,a0,1639 # 66666667 <_end+0x66661663>
    2378:	00057593          	andi	a1,a0,0
    237c:	4cb12423          	sw	a1,1224(sp)

00002380 <inst_326>:
    2380:	66666537          	lui	a0,0x66666
    2384:	66750513          	addi	a0,a0,1639 # 66666667 <_end+0x66661663>
    2388:	00457593          	andi	a1,a0,4
    238c:	4cb12623          	sw	a1,1228(sp)

00002390 <inst_327>:
    2390:	66666537          	lui	a0,0x66666
    2394:	66750513          	addi	a0,a0,1639 # 66666667 <_end+0x66661663>
    2398:	33257593          	andi	a1,a0,818
    239c:	4cb12823          	sw	a1,1232(sp)

000023a0 <inst_328>:
    23a0:	66666537          	lui	a0,0x66666
    23a4:	66750513          	addi	a0,a0,1639 # 66666667 <_end+0x66661663>
    23a8:	66557593          	andi	a1,a0,1637
    23ac:	4cb12a23          	sw	a1,1236(sp)

000023b0 <inst_329>:
    23b0:	66666537          	lui	a0,0x66666
    23b4:	66750513          	addi	a0,a0,1639 # 66666667 <_end+0x66661663>
    23b8:	02c57593          	andi	a1,a0,44
    23bc:	4cb12c23          	sw	a1,1240(sp)

000023c0 <inst_330>:
    23c0:	66666537          	lui	a0,0x66666
    23c4:	66750513          	addi	a0,a0,1639 # 66666667 <_end+0x66661663>
    23c8:	55657593          	andi	a1,a0,1366
    23cc:	4cb12e23          	sw	a1,1244(sp)

000023d0 <inst_331>:
    23d0:	66666537          	lui	a0,0x66666
    23d4:	66750513          	addi	a0,a0,1639 # 66666667 <_end+0x66661663>
    23d8:	aab57593          	andi	a1,a0,-1365
    23dc:	4eb12023          	sw	a1,1248(sp)

000023e0 <inst_332>:
    23e0:	66666537          	lui	a0,0x66666
    23e4:	66750513          	addi	a0,a0,1639 # 66666667 <_end+0x66661663>
    23e8:	00657593          	andi	a1,a0,6
    23ec:	4eb12223          	sw	a1,1252(sp)

000023f0 <inst_333>:
    23f0:	66666537          	lui	a0,0x66666
    23f4:	66750513          	addi	a0,a0,1639 # 66666667 <_end+0x66661663>
    23f8:	33457593          	andi	a1,a0,820
    23fc:	4eb12423          	sw	a1,1256(sp)

00002400 <inst_334>:
    2400:	66666537          	lui	a0,0x66666
    2404:	66750513          	addi	a0,a0,1639 # 66666667 <_end+0x66661663>
    2408:	66757593          	andi	a1,a0,1639
    240c:	4eb12623          	sw	a1,1260(sp)

00002410 <inst_335>:
    2410:	66666537          	lui	a0,0x66666
    2414:	66750513          	addi	a0,a0,1639 # 66666667 <_end+0x66661663>
    2418:	fd457593          	andi	a1,a0,-44
    241c:	4eb12823          	sw	a1,1264(sp)

00002420 <inst_336>:
    2420:	66666537          	lui	a0,0x66666
    2424:	66750513          	addi	a0,a0,1639 # 66666667 <_end+0x66661663>
    2428:	02e57593          	andi	a1,a0,46
    242c:	4eb12a23          	sw	a1,1268(sp)

00002430 <inst_337>:
    2430:	ffff5537          	lui	a0,0xffff5
    2434:	afd50513          	addi	a0,a0,-1283 # ffff4afd <_end+0xfffefaf9>
    2438:	00357593          	andi	a1,a0,3
    243c:	4eb12c23          	sw	a1,1272(sp)

00002440 <inst_338>:
    2440:	ffff5537          	lui	a0,0xffff5
    2444:	afd50513          	addi	a0,a0,-1283 # ffff4afd <_end+0xfffefaf9>
    2448:	55557593          	andi	a1,a0,1365
    244c:	4eb12e23          	sw	a1,1276(sp)

00002450 <inst_339>:
    2450:	ffff5537          	lui	a0,0xffff5
    2454:	afd50513          	addi	a0,a0,-1283 # ffff4afd <_end+0xfffefaf9>
    2458:	aaa57593          	andi	a1,a0,-1366
    245c:	50b12023          	sw	a1,1280(sp)

00002460 <inst_340>:
    2460:	ffff5537          	lui	a0,0xffff5
    2464:	afd50513          	addi	a0,a0,-1283 # ffff4afd <_end+0xfffefaf9>
    2468:	00557593          	andi	a1,a0,5
    246c:	50b12223          	sw	a1,1284(sp)

00002470 <inst_341>:
    2470:	ffff5537          	lui	a0,0xffff5
    2474:	afd50513          	addi	a0,a0,-1283 # ffff4afd <_end+0xfffefaf9>
    2478:	33357593          	andi	a1,a0,819
    247c:	50b12423          	sw	a1,1288(sp)

00002480 <inst_342>:
    2480:	ffff5537          	lui	a0,0xffff5
    2484:	afd50513          	addi	a0,a0,-1283 # ffff4afd <_end+0xfffefaf9>
    2488:	66657593          	andi	a1,a0,1638
    248c:	50b12623          	sw	a1,1292(sp)

00002490 <inst_343>:
    2490:	ffff5537          	lui	a0,0xffff5
    2494:	afd50513          	addi	a0,a0,-1283 # ffff4afd <_end+0xfffefaf9>
    2498:	fd357593          	andi	a1,a0,-45
    249c:	50b12823          	sw	a1,1296(sp)

000024a0 <inst_344>:
    24a0:	ffff5537          	lui	a0,0xffff5
    24a4:	afd50513          	addi	a0,a0,-1283 # ffff4afd <_end+0xfffefaf9>
    24a8:	02d57593          	andi	a1,a0,45
    24ac:	50b12a23          	sw	a1,1300(sp)

000024b0 <inst_345>:
    24b0:	ffff5537          	lui	a0,0xffff5
    24b4:	afd50513          	addi	a0,a0,-1283 # ffff4afd <_end+0xfffefaf9>
    24b8:	00257593          	andi	a1,a0,2
    24bc:	50b12c23          	sw	a1,1304(sp)

000024c0 <inst_346>:
    24c0:	ffff5537          	lui	a0,0xffff5
    24c4:	afd50513          	addi	a0,a0,-1283 # ffff4afd <_end+0xfffefaf9>
    24c8:	55457593          	andi	a1,a0,1364
    24cc:	50b12e23          	sw	a1,1308(sp)

000024d0 <inst_347>:
    24d0:	ffff5537          	lui	a0,0xffff5
    24d4:	afd50513          	addi	a0,a0,-1283 # ffff4afd <_end+0xfffefaf9>
    24d8:	00057593          	andi	a1,a0,0
    24dc:	52b12023          	sw	a1,1312(sp)

000024e0 <inst_348>:
    24e0:	ffff5537          	lui	a0,0xffff5
    24e4:	afd50513          	addi	a0,a0,-1283 # ffff4afd <_end+0xfffefaf9>
    24e8:	00457593          	andi	a1,a0,4
    24ec:	52b12223          	sw	a1,1316(sp)

000024f0 <inst_349>:
    24f0:	ffff5537          	lui	a0,0xffff5
    24f4:	afd50513          	addi	a0,a0,-1283 # ffff4afd <_end+0xfffefaf9>
    24f8:	33257593          	andi	a1,a0,818
    24fc:	52b12423          	sw	a1,1320(sp)

00002500 <inst_350>:
    2500:	ffff5537          	lui	a0,0xffff5
    2504:	afd50513          	addi	a0,a0,-1283 # ffff4afd <_end+0xfffefaf9>
    2508:	66557593          	andi	a1,a0,1637
    250c:	52b12623          	sw	a1,1324(sp)

00002510 <inst_351>:
    2510:	ffff5537          	lui	a0,0xffff5
    2514:	afd50513          	addi	a0,a0,-1283 # ffff4afd <_end+0xfffefaf9>
    2518:	02c57593          	andi	a1,a0,44
    251c:	52b12823          	sw	a1,1328(sp)

00002520 <inst_352>:
    2520:	ffff5537          	lui	a0,0xffff5
    2524:	afd50513          	addi	a0,a0,-1283 # ffff4afd <_end+0xfffefaf9>
    2528:	55657593          	andi	a1,a0,1366
    252c:	52b12a23          	sw	a1,1332(sp)

00002530 <inst_353>:
    2530:	ffff5537          	lui	a0,0xffff5
    2534:	afd50513          	addi	a0,a0,-1283 # ffff4afd <_end+0xfffefaf9>
    2538:	aab57593          	andi	a1,a0,-1365
    253c:	52b12c23          	sw	a1,1336(sp)

00002540 <inst_354>:
    2540:	ffff5537          	lui	a0,0xffff5
    2544:	afd50513          	addi	a0,a0,-1283 # ffff4afd <_end+0xfffefaf9>
    2548:	00657593          	andi	a1,a0,6
    254c:	52b12e23          	sw	a1,1340(sp)

00002550 <inst_355>:
    2550:	ffff5537          	lui	a0,0xffff5
    2554:	afd50513          	addi	a0,a0,-1283 # ffff4afd <_end+0xfffefaf9>
    2558:	33457593          	andi	a1,a0,820
    255c:	54b12023          	sw	a1,1344(sp)

00002560 <inst_356>:
    2560:	ffff5537          	lui	a0,0xffff5
    2564:	afd50513          	addi	a0,a0,-1283 # ffff4afd <_end+0xfffefaf9>
    2568:	66757593          	andi	a1,a0,1639
    256c:	54b12223          	sw	a1,1348(sp)

00002570 <inst_357>:
    2570:	ffff5537          	lui	a0,0xffff5
    2574:	afd50513          	addi	a0,a0,-1283 # ffff4afd <_end+0xfffefaf9>
    2578:	fd457593          	andi	a1,a0,-44
    257c:	54b12423          	sw	a1,1352(sp)

00002580 <inst_358>:
    2580:	ffff5537          	lui	a0,0xffff5
    2584:	afd50513          	addi	a0,a0,-1283 # ffff4afd <_end+0xfffefaf9>
    2588:	02e57593          	andi	a1,a0,46
    258c:	54b12623          	sw	a1,1356(sp)

00002590 <inst_359>:
    2590:	0000b537          	lui	a0,0xb
    2594:	50550513          	addi	a0,a0,1285 # b505 <_end+0x6501>
    2598:	00357593          	andi	a1,a0,3
    259c:	54b12823          	sw	a1,1360(sp)

000025a0 <inst_360>:
    25a0:	0000b537          	lui	a0,0xb
    25a4:	50550513          	addi	a0,a0,1285 # b505 <_end+0x6501>
    25a8:	55557593          	andi	a1,a0,1365
    25ac:	54b12a23          	sw	a1,1364(sp)

000025b0 <inst_361>:
    25b0:	0000b537          	lui	a0,0xb
    25b4:	50550513          	addi	a0,a0,1285 # b505 <_end+0x6501>
    25b8:	aaa57593          	andi	a1,a0,-1366
    25bc:	54b12c23          	sw	a1,1368(sp)

000025c0 <inst_362>:
    25c0:	0000b537          	lui	a0,0xb
    25c4:	50550513          	addi	a0,a0,1285 # b505 <_end+0x6501>
    25c8:	00557593          	andi	a1,a0,5
    25cc:	54b12e23          	sw	a1,1372(sp)

000025d0 <inst_363>:
    25d0:	0000b537          	lui	a0,0xb
    25d4:	50550513          	addi	a0,a0,1285 # b505 <_end+0x6501>
    25d8:	33357593          	andi	a1,a0,819
    25dc:	56b12023          	sw	a1,1376(sp)

000025e0 <inst_364>:
    25e0:	0000b537          	lui	a0,0xb
    25e4:	50550513          	addi	a0,a0,1285 # b505 <_end+0x6501>
    25e8:	66657593          	andi	a1,a0,1638
    25ec:	56b12223          	sw	a1,1380(sp)

000025f0 <inst_365>:
    25f0:	0000b537          	lui	a0,0xb
    25f4:	50550513          	addi	a0,a0,1285 # b505 <_end+0x6501>
    25f8:	fd357593          	andi	a1,a0,-45
    25fc:	56b12423          	sw	a1,1384(sp)

00002600 <inst_366>:
    2600:	0000b537          	lui	a0,0xb
    2604:	50550513          	addi	a0,a0,1285 # b505 <_end+0x6501>
    2608:	02d57593          	andi	a1,a0,45
    260c:	56b12623          	sw	a1,1388(sp)

00002610 <inst_367>:
    2610:	0000b537          	lui	a0,0xb
    2614:	50550513          	addi	a0,a0,1285 # b505 <_end+0x6501>
    2618:	00257593          	andi	a1,a0,2
    261c:	56b12823          	sw	a1,1392(sp)

00002620 <inst_368>:
    2620:	0000b537          	lui	a0,0xb
    2624:	50550513          	addi	a0,a0,1285 # b505 <_end+0x6501>
    2628:	55457593          	andi	a1,a0,1364
    262c:	56b12a23          	sw	a1,1396(sp)

00002630 <inst_369>:
    2630:	0000b537          	lui	a0,0xb
    2634:	50550513          	addi	a0,a0,1285 # b505 <_end+0x6501>
    2638:	00057593          	andi	a1,a0,0
    263c:	56b12c23          	sw	a1,1400(sp)

00002640 <inst_370>:
    2640:	0000b537          	lui	a0,0xb
    2644:	50550513          	addi	a0,a0,1285 # b505 <_end+0x6501>
    2648:	00457593          	andi	a1,a0,4
    264c:	56b12e23          	sw	a1,1404(sp)

00002650 <inst_371>:
    2650:	0000b537          	lui	a0,0xb
    2654:	50550513          	addi	a0,a0,1285 # b505 <_end+0x6501>
    2658:	33257593          	andi	a1,a0,818
    265c:	58b12023          	sw	a1,1408(sp)

00002660 <inst_372>:
    2660:	0000b537          	lui	a0,0xb
    2664:	50550513          	addi	a0,a0,1285 # b505 <_end+0x6501>
    2668:	66557593          	andi	a1,a0,1637
    266c:	58b12223          	sw	a1,1412(sp)

00002670 <inst_373>:
    2670:	0000b537          	lui	a0,0xb
    2674:	50550513          	addi	a0,a0,1285 # b505 <_end+0x6501>
    2678:	02c57593          	andi	a1,a0,44
    267c:	58b12423          	sw	a1,1416(sp)

00002680 <inst_374>:
    2680:	0000b537          	lui	a0,0xb
    2684:	50550513          	addi	a0,a0,1285 # b505 <_end+0x6501>
    2688:	55657593          	andi	a1,a0,1366
    268c:	58b12623          	sw	a1,1420(sp)

00002690 <inst_375>:
    2690:	0000b537          	lui	a0,0xb
    2694:	50550513          	addi	a0,a0,1285 # b505 <_end+0x6501>
    2698:	aab57593          	andi	a1,a0,-1365
    269c:	58b12823          	sw	a1,1424(sp)

000026a0 <inst_376>:
    26a0:	0000b537          	lui	a0,0xb
    26a4:	50550513          	addi	a0,a0,1285 # b505 <_end+0x6501>
    26a8:	00657593          	andi	a1,a0,6
    26ac:	58b12a23          	sw	a1,1428(sp)

000026b0 <inst_377>:
    26b0:	0000b537          	lui	a0,0xb
    26b4:	50550513          	addi	a0,a0,1285 # b505 <_end+0x6501>
    26b8:	33457593          	andi	a1,a0,820
    26bc:	58b12c23          	sw	a1,1432(sp)

000026c0 <inst_378>:
    26c0:	0000b537          	lui	a0,0xb
    26c4:	50550513          	addi	a0,a0,1285 # b505 <_end+0x6501>
    26c8:	66757593          	andi	a1,a0,1639
    26cc:	58b12e23          	sw	a1,1436(sp)

000026d0 <inst_379>:
    26d0:	0000b537          	lui	a0,0xb
    26d4:	50550513          	addi	a0,a0,1285 # b505 <_end+0x6501>
    26d8:	fd457593          	andi	a1,a0,-44
    26dc:	5ab12023          	sw	a1,1440(sp)

000026e0 <inst_380>:
    26e0:	0000b537          	lui	a0,0xb
    26e4:	50550513          	addi	a0,a0,1285 # b505 <_end+0x6501>
    26e8:	02e57593          	andi	a1,a0,46
    26ec:	5ab12223          	sw	a1,1444(sp)

000026f0 <inst_381>:
    26f0:	00000513          	li	a0,0
    26f4:	00257593          	andi	a1,a0,2
    26f8:	5ab12423          	sw	a1,1448(sp)

000026fc <inst_382>:
    26fc:	00000513          	li	a0,0
    2700:	55457593          	andi	a1,a0,1364
    2704:	5ab12623          	sw	a1,1452(sp)

00002708 <inst_383>:
    2708:	00000513          	li	a0,0
    270c:	00057593          	andi	a1,a0,0
    2710:	5ab12823          	sw	a1,1456(sp)

00002714 <inst_384>:
    2714:	00000513          	li	a0,0
    2718:	00457593          	andi	a1,a0,4
    271c:	5ab12a23          	sw	a1,1460(sp)

00002720 <inst_385>:
    2720:	00000513          	li	a0,0
    2724:	33257593          	andi	a1,a0,818
    2728:	5ab12c23          	sw	a1,1464(sp)

0000272c <inst_386>:
    272c:	00000513          	li	a0,0
    2730:	66557593          	andi	a1,a0,1637
    2734:	5ab12e23          	sw	a1,1468(sp)

00002738 <inst_387>:
    2738:	00000513          	li	a0,0
    273c:	02c57593          	andi	a1,a0,44
    2740:	5cb12023          	sw	a1,1472(sp)

00002744 <inst_388>:
    2744:	00000513          	li	a0,0
    2748:	55657593          	andi	a1,a0,1366
    274c:	5cb12223          	sw	a1,1476(sp)

00002750 <inst_389>:
    2750:	00000513          	li	a0,0
    2754:	aab57593          	andi	a1,a0,-1365
    2758:	5cb12423          	sw	a1,1480(sp)

0000275c <inst_390>:
    275c:	00000513          	li	a0,0
    2760:	00657593          	andi	a1,a0,6
    2764:	5cb12623          	sw	a1,1484(sp)

00002768 <inst_391>:
    2768:	00000513          	li	a0,0
    276c:	33457593          	andi	a1,a0,820
    2770:	5cb12823          	sw	a1,1488(sp)

00002774 <inst_392>:
    2774:	00000513          	li	a0,0
    2778:	66757593          	andi	a1,a0,1639
    277c:	5cb12a23          	sw	a1,1492(sp)

00002780 <inst_393>:
    2780:	00000513          	li	a0,0
    2784:	fd457593          	andi	a1,a0,-44
    2788:	5cb12c23          	sw	a1,1496(sp)

0000278c <inst_394>:
    278c:	00000513          	li	a0,0
    2790:	02e57593          	andi	a1,a0,46
    2794:	5cb12e23          	sw	a1,1500(sp)

00002798 <inst_395>:
    2798:	00400513          	li	a0,4
    279c:	00357593          	andi	a1,a0,3
    27a0:	5eb12023          	sw	a1,1504(sp)

000027a4 <inst_396>:
    27a4:	00400513          	li	a0,4
    27a8:	55557593          	andi	a1,a0,1365
    27ac:	5eb12223          	sw	a1,1508(sp)

000027b0 <inst_397>:
    27b0:	00400513          	li	a0,4
    27b4:	aaa57593          	andi	a1,a0,-1366
    27b8:	5eb12423          	sw	a1,1512(sp)

000027bc <inst_398>:
    27bc:	00400513          	li	a0,4
    27c0:	00557593          	andi	a1,a0,5
    27c4:	5eb12623          	sw	a1,1516(sp)

000027c8 <inst_399>:
    27c8:	00400513          	li	a0,4
    27cc:	33357593          	andi	a1,a0,819
    27d0:	5eb12823          	sw	a1,1520(sp)

000027d4 <inst_400>:
    27d4:	00400513          	li	a0,4
    27d8:	66657593          	andi	a1,a0,1638
    27dc:	5eb12a23          	sw	a1,1524(sp)

000027e0 <inst_401>:
    27e0:	00400513          	li	a0,4
    27e4:	fd357593          	andi	a1,a0,-45
    27e8:	5eb12c23          	sw	a1,1528(sp)

000027ec <inst_402>:
    27ec:	00400513          	li	a0,4
    27f0:	02d57593          	andi	a1,a0,45
    27f4:	5eb12e23          	sw	a1,1532(sp)

000027f8 <inst_403>:
    27f8:	00400513          	li	a0,4
    27fc:	00257593          	andi	a1,a0,2
    2800:	60b12023          	sw	a1,1536(sp)

00002804 <inst_404>:
    2804:	00400513          	li	a0,4
    2808:	55457593          	andi	a1,a0,1364
    280c:	60b12223          	sw	a1,1540(sp)

00002810 <inst_405>:
    2810:	00400513          	li	a0,4
    2814:	00057593          	andi	a1,a0,0
    2818:	60b12423          	sw	a1,1544(sp)

0000281c <inst_406>:
    281c:	00400513          	li	a0,4
    2820:	00457593          	andi	a1,a0,4
    2824:	60b12623          	sw	a1,1548(sp)

00002828 <inst_407>:
    2828:	00400513          	li	a0,4
    282c:	33257593          	andi	a1,a0,818
    2830:	60b12823          	sw	a1,1552(sp)

00002834 <inst_408>:
    2834:	00400513          	li	a0,4
    2838:	66557593          	andi	a1,a0,1637
    283c:	60b12a23          	sw	a1,1556(sp)

00002840 <inst_409>:
    2840:	00400513          	li	a0,4
    2844:	02c57593          	andi	a1,a0,44
    2848:	60b12c23          	sw	a1,1560(sp)

0000284c <inst_410>:
    284c:	00400513          	li	a0,4
    2850:	55657593          	andi	a1,a0,1366
    2854:	60b12e23          	sw	a1,1564(sp)

00002858 <inst_411>:
    2858:	00400513          	li	a0,4
    285c:	aab57593          	andi	a1,a0,-1365
    2860:	62b12023          	sw	a1,1568(sp)

00002864 <inst_412>:
    2864:	00400513          	li	a0,4
    2868:	00657593          	andi	a1,a0,6
    286c:	62b12223          	sw	a1,1572(sp)

00002870 <inst_413>:
    2870:	00400513          	li	a0,4
    2874:	33457593          	andi	a1,a0,820
    2878:	62b12423          	sw	a1,1576(sp)

0000287c <inst_414>:
    287c:	00400513          	li	a0,4
    2880:	fd457593          	andi	a1,a0,-44
    2884:	62b12623          	sw	a1,1580(sp)

00002888 <inst_415>:
    2888:	00400513          	li	a0,4
    288c:	02e57593          	andi	a1,a0,46
    2890:	62b12823          	sw	a1,1584(sp)

00002894 <inst_416>:
    2894:	33333537          	lui	a0,0x33333
    2898:	33250513          	addi	a0,a0,818 # 33333332 <_end+0x3332e32e>
    289c:	00357593          	andi	a1,a0,3
    28a0:	62b12a23          	sw	a1,1588(sp)

000028a4 <inst_417>:
    28a4:	33333537          	lui	a0,0x33333
    28a8:	33250513          	addi	a0,a0,818 # 33333332 <_end+0x3332e32e>
    28ac:	55557593          	andi	a1,a0,1365
    28b0:	62b12c23          	sw	a1,1592(sp)

000028b4 <inst_418>:
    28b4:	33333537          	lui	a0,0x33333
    28b8:	33250513          	addi	a0,a0,818 # 33333332 <_end+0x3332e32e>
    28bc:	aaa57593          	andi	a1,a0,-1366
    28c0:	62b12e23          	sw	a1,1596(sp)

000028c4 <inst_419>:
    28c4:	33333537          	lui	a0,0x33333
    28c8:	33250513          	addi	a0,a0,818 # 33333332 <_end+0x3332e32e>
    28cc:	00557593          	andi	a1,a0,5
    28d0:	64b12023          	sw	a1,1600(sp)

000028d4 <inst_420>:
    28d4:	33333537          	lui	a0,0x33333
    28d8:	33250513          	addi	a0,a0,818 # 33333332 <_end+0x3332e32e>
    28dc:	33357593          	andi	a1,a0,819
    28e0:	64b12223          	sw	a1,1604(sp)

000028e4 <inst_421>:
    28e4:	33333537          	lui	a0,0x33333
    28e8:	33250513          	addi	a0,a0,818 # 33333332 <_end+0x3332e32e>
    28ec:	66657593          	andi	a1,a0,1638
    28f0:	64b12423          	sw	a1,1608(sp)

000028f4 <inst_422>:
    28f4:	33333537          	lui	a0,0x33333
    28f8:	33250513          	addi	a0,a0,818 # 33333332 <_end+0x3332e32e>
    28fc:	fd357593          	andi	a1,a0,-45
    2900:	64b12623          	sw	a1,1612(sp)

00002904 <inst_423>:
    2904:	33333537          	lui	a0,0x33333
    2908:	33250513          	addi	a0,a0,818 # 33333332 <_end+0x3332e32e>
    290c:	02d57593          	andi	a1,a0,45
    2910:	64b12823          	sw	a1,1616(sp)

00002914 <inst_424>:
    2914:	33333537          	lui	a0,0x33333
    2918:	33250513          	addi	a0,a0,818 # 33333332 <_end+0x3332e32e>
    291c:	00257593          	andi	a1,a0,2
    2920:	64b12a23          	sw	a1,1620(sp)

00002924 <inst_425>:
    2924:	33333537          	lui	a0,0x33333
    2928:	33250513          	addi	a0,a0,818 # 33333332 <_end+0x3332e32e>
    292c:	55457593          	andi	a1,a0,1364
    2930:	64b12c23          	sw	a1,1624(sp)

00002934 <inst_426>:
    2934:	33333537          	lui	a0,0x33333
    2938:	33250513          	addi	a0,a0,818 # 33333332 <_end+0x3332e32e>
    293c:	00057593          	andi	a1,a0,0
    2940:	64b12e23          	sw	a1,1628(sp)

00002944 <inst_427>:
    2944:	33333537          	lui	a0,0x33333
    2948:	33250513          	addi	a0,a0,818 # 33333332 <_end+0x3332e32e>
    294c:	00457593          	andi	a1,a0,4
    2950:	66b12023          	sw	a1,1632(sp)

00002954 <inst_428>:
    2954:	33333537          	lui	a0,0x33333
    2958:	33250513          	addi	a0,a0,818 # 33333332 <_end+0x3332e32e>
    295c:	33257593          	andi	a1,a0,818
    2960:	66b12223          	sw	a1,1636(sp)

00002964 <inst_429>:
    2964:	33333537          	lui	a0,0x33333
    2968:	33250513          	addi	a0,a0,818 # 33333332 <_end+0x3332e32e>
    296c:	66557593          	andi	a1,a0,1637
    2970:	66b12423          	sw	a1,1640(sp)

00002974 <inst_430>:
    2974:	33333537          	lui	a0,0x33333
    2978:	33250513          	addi	a0,a0,818 # 33333332 <_end+0x3332e32e>
    297c:	02c57593          	andi	a1,a0,44
    2980:	66b12623          	sw	a1,1644(sp)

00002984 <inst_431>:
    2984:	33333537          	lui	a0,0x33333
    2988:	33250513          	addi	a0,a0,818 # 33333332 <_end+0x3332e32e>
    298c:	55657593          	andi	a1,a0,1366
    2990:	66b12823          	sw	a1,1648(sp)

00002994 <inst_432>:
    2994:	33333537          	lui	a0,0x33333
    2998:	33250513          	addi	a0,a0,818 # 33333332 <_end+0x3332e32e>
    299c:	aab57593          	andi	a1,a0,-1365
    29a0:	66b12a23          	sw	a1,1652(sp)

000029a4 <inst_433>:
    29a4:	33333537          	lui	a0,0x33333
    29a8:	33250513          	addi	a0,a0,818 # 33333332 <_end+0x3332e32e>
    29ac:	00657593          	andi	a1,a0,6
    29b0:	66b12c23          	sw	a1,1656(sp)

000029b4 <inst_434>:
    29b4:	33333537          	lui	a0,0x33333
    29b8:	33250513          	addi	a0,a0,818 # 33333332 <_end+0x3332e32e>
    29bc:	33457593          	andi	a1,a0,820
    29c0:	66b12e23          	sw	a1,1660(sp)

000029c4 <inst_435>:
    29c4:	33333537          	lui	a0,0x33333
    29c8:	33250513          	addi	a0,a0,818 # 33333332 <_end+0x3332e32e>
    29cc:	66757593          	andi	a1,a0,1639
    29d0:	68b12023          	sw	a1,1664(sp)

000029d4 <inst_436>:
    29d4:	33333537          	lui	a0,0x33333
    29d8:	33250513          	addi	a0,a0,818 # 33333332 <_end+0x3332e32e>
    29dc:	fd457593          	andi	a1,a0,-44
    29e0:	68b12223          	sw	a1,1668(sp)

000029e4 <inst_437>:
    29e4:	33333537          	lui	a0,0x33333
    29e8:	33250513          	addi	a0,a0,818 # 33333332 <_end+0x3332e32e>
    29ec:	02e57593          	andi	a1,a0,46
    29f0:	68b12423          	sw	a1,1672(sp)

000029f4 <inst_438>:
    29f4:	66666537          	lui	a0,0x66666
    29f8:	66550513          	addi	a0,a0,1637 # 66666665 <_end+0x66661661>
    29fc:	00357593          	andi	a1,a0,3
    2a00:	68b12623          	sw	a1,1676(sp)

00002a04 <inst_439>:
    2a04:	66666537          	lui	a0,0x66666
    2a08:	66550513          	addi	a0,a0,1637 # 66666665 <_end+0x66661661>
    2a0c:	55557593          	andi	a1,a0,1365
    2a10:	68b12823          	sw	a1,1680(sp)

00002a14 <inst_440>:
    2a14:	66666537          	lui	a0,0x66666
    2a18:	66550513          	addi	a0,a0,1637 # 66666665 <_end+0x66661661>
    2a1c:	aaa57593          	andi	a1,a0,-1366
    2a20:	68b12a23          	sw	a1,1684(sp)

00002a24 <inst_441>:
    2a24:	66666537          	lui	a0,0x66666
    2a28:	66550513          	addi	a0,a0,1637 # 66666665 <_end+0x66661661>
    2a2c:	00557593          	andi	a1,a0,5
    2a30:	68b12c23          	sw	a1,1688(sp)

00002a34 <inst_442>:
    2a34:	66666537          	lui	a0,0x66666
    2a38:	66550513          	addi	a0,a0,1637 # 66666665 <_end+0x66661661>
    2a3c:	33357593          	andi	a1,a0,819
    2a40:	68b12e23          	sw	a1,1692(sp)

00002a44 <inst_443>:
    2a44:	66666537          	lui	a0,0x66666
    2a48:	66550513          	addi	a0,a0,1637 # 66666665 <_end+0x66661661>
    2a4c:	66657593          	andi	a1,a0,1638
    2a50:	6ab12023          	sw	a1,1696(sp)

00002a54 <inst_444>:
    2a54:	66666537          	lui	a0,0x66666
    2a58:	66550513          	addi	a0,a0,1637 # 66666665 <_end+0x66661661>
    2a5c:	fd357593          	andi	a1,a0,-45
    2a60:	6ab12223          	sw	a1,1700(sp)

00002a64 <inst_445>:
    2a64:	66666537          	lui	a0,0x66666
    2a68:	66550513          	addi	a0,a0,1637 # 66666665 <_end+0x66661661>
    2a6c:	02d57593          	andi	a1,a0,45
    2a70:	6ab12423          	sw	a1,1704(sp)

00002a74 <inst_446>:
    2a74:	66666537          	lui	a0,0x66666
    2a78:	66550513          	addi	a0,a0,1637 # 66666665 <_end+0x66661661>
    2a7c:	00257593          	andi	a1,a0,2
    2a80:	6ab12623          	sw	a1,1708(sp)

00002a84 <inst_447>:
    2a84:	66666537          	lui	a0,0x66666
    2a88:	66550513          	addi	a0,a0,1637 # 66666665 <_end+0x66661661>
    2a8c:	55457593          	andi	a1,a0,1364
    2a90:	6ab12823          	sw	a1,1712(sp)

00002a94 <inst_448>:
    2a94:	66666537          	lui	a0,0x66666
    2a98:	66550513          	addi	a0,a0,1637 # 66666665 <_end+0x66661661>
    2a9c:	00057593          	andi	a1,a0,0
    2aa0:	6ab12a23          	sw	a1,1716(sp)

00002aa4 <inst_449>:
    2aa4:	66666537          	lui	a0,0x66666
    2aa8:	66550513          	addi	a0,a0,1637 # 66666665 <_end+0x66661661>
    2aac:	00457593          	andi	a1,a0,4
    2ab0:	6ab12c23          	sw	a1,1720(sp)

00002ab4 <inst_450>:
    2ab4:	66666537          	lui	a0,0x66666
    2ab8:	66550513          	addi	a0,a0,1637 # 66666665 <_end+0x66661661>
    2abc:	33257593          	andi	a1,a0,818
    2ac0:	6ab12e23          	sw	a1,1724(sp)

00002ac4 <inst_451>:
    2ac4:	66666537          	lui	a0,0x66666
    2ac8:	66550513          	addi	a0,a0,1637 # 66666665 <_end+0x66661661>
    2acc:	66557593          	andi	a1,a0,1637
    2ad0:	6cb12023          	sw	a1,1728(sp)

00002ad4 <inst_452>:
    2ad4:	66666537          	lui	a0,0x66666
    2ad8:	66550513          	addi	a0,a0,1637 # 66666665 <_end+0x66661661>
    2adc:	02c57593          	andi	a1,a0,44
    2ae0:	6cb12223          	sw	a1,1732(sp)

00002ae4 <inst_453>:
    2ae4:	66666537          	lui	a0,0x66666
    2ae8:	66550513          	addi	a0,a0,1637 # 66666665 <_end+0x66661661>
    2aec:	55657593          	andi	a1,a0,1366
    2af0:	6cb12423          	sw	a1,1736(sp)

00002af4 <inst_454>:
    2af4:	66666537          	lui	a0,0x66666
    2af8:	66550513          	addi	a0,a0,1637 # 66666665 <_end+0x66661661>
    2afc:	aab57593          	andi	a1,a0,-1365
    2b00:	6cb12623          	sw	a1,1740(sp)

00002b04 <inst_455>:
    2b04:	66666537          	lui	a0,0x66666
    2b08:	66550513          	addi	a0,a0,1637 # 66666665 <_end+0x66661661>
    2b0c:	00657593          	andi	a1,a0,6
    2b10:	6cb12823          	sw	a1,1744(sp)

00002b14 <inst_456>:
    2b14:	66666537          	lui	a0,0x66666
    2b18:	66550513          	addi	a0,a0,1637 # 66666665 <_end+0x66661661>
    2b1c:	33457593          	andi	a1,a0,820
    2b20:	6cb12a23          	sw	a1,1748(sp)

00002b24 <inst_457>:
    2b24:	66666537          	lui	a0,0x66666
    2b28:	66550513          	addi	a0,a0,1637 # 66666665 <_end+0x66661661>
    2b2c:	66757593          	andi	a1,a0,1639
    2b30:	6cb12c23          	sw	a1,1752(sp)

00002b34 <inst_458>:
    2b34:	66666537          	lui	a0,0x66666
    2b38:	66550513          	addi	a0,a0,1637 # 66666665 <_end+0x66661661>
    2b3c:	fd457593          	andi	a1,a0,-44
    2b40:	6cb12e23          	sw	a1,1756(sp)

00002b44 <inst_459>:
    2b44:	66666537          	lui	a0,0x66666
    2b48:	66550513          	addi	a0,a0,1637 # 66666665 <_end+0x66661661>
    2b4c:	02e57593          	andi	a1,a0,46
    2b50:	6eb12023          	sw	a1,1760(sp)

00002b54 <inst_460>:
    2b54:	0000b537          	lui	a0,0xb
    2b58:	50350513          	addi	a0,a0,1283 # b503 <_end+0x64ff>
    2b5c:	00357593          	andi	a1,a0,3
    2b60:	6eb12223          	sw	a1,1764(sp)

00002b64 <inst_461>:
    2b64:	0000b537          	lui	a0,0xb
    2b68:	50350513          	addi	a0,a0,1283 # b503 <_end+0x64ff>
    2b6c:	55557593          	andi	a1,a0,1365
    2b70:	6eb12423          	sw	a1,1768(sp)

00002b74 <inst_462>:
    2b74:	0000b537          	lui	a0,0xb
    2b78:	50350513          	addi	a0,a0,1283 # b503 <_end+0x64ff>
    2b7c:	aaa57593          	andi	a1,a0,-1366
    2b80:	6eb12623          	sw	a1,1772(sp)

00002b84 <inst_463>:
    2b84:	0000b537          	lui	a0,0xb
    2b88:	50350513          	addi	a0,a0,1283 # b503 <_end+0x64ff>
    2b8c:	00557593          	andi	a1,a0,5
    2b90:	6eb12823          	sw	a1,1776(sp)

00002b94 <inst_464>:
    2b94:	0000b537          	lui	a0,0xb
    2b98:	50350513          	addi	a0,a0,1283 # b503 <_end+0x64ff>
    2b9c:	33357593          	andi	a1,a0,819
    2ba0:	6eb12a23          	sw	a1,1780(sp)

00002ba4 <inst_465>:
    2ba4:	0000b537          	lui	a0,0xb
    2ba8:	50350513          	addi	a0,a0,1283 # b503 <_end+0x64ff>
    2bac:	66657593          	andi	a1,a0,1638
    2bb0:	6eb12c23          	sw	a1,1784(sp)

00002bb4 <inst_466>:
    2bb4:	0000b537          	lui	a0,0xb
    2bb8:	50350513          	addi	a0,a0,1283 # b503 <_end+0x64ff>
    2bbc:	fd357593          	andi	a1,a0,-45
    2bc0:	6eb12e23          	sw	a1,1788(sp)

00002bc4 <inst_467>:
    2bc4:	0000b537          	lui	a0,0xb
    2bc8:	50350513          	addi	a0,a0,1283 # b503 <_end+0x64ff>
    2bcc:	02d57593          	andi	a1,a0,45
    2bd0:	70b12023          	sw	a1,1792(sp)

00002bd4 <inst_468>:
    2bd4:	0000b537          	lui	a0,0xb
    2bd8:	50350513          	addi	a0,a0,1283 # b503 <_end+0x64ff>
    2bdc:	00257593          	andi	a1,a0,2
    2be0:	70b12223          	sw	a1,1796(sp)

00002be4 <inst_469>:
    2be4:	0000b537          	lui	a0,0xb
    2be8:	50350513          	addi	a0,a0,1283 # b503 <_end+0x64ff>
    2bec:	55457593          	andi	a1,a0,1364
    2bf0:	70b12423          	sw	a1,1800(sp)

00002bf4 <inst_470>:
    2bf4:	0000b537          	lui	a0,0xb
    2bf8:	50350513          	addi	a0,a0,1283 # b503 <_end+0x64ff>
    2bfc:	00057593          	andi	a1,a0,0
    2c00:	70b12623          	sw	a1,1804(sp)

00002c04 <inst_471>:
    2c04:	0000b537          	lui	a0,0xb
    2c08:	50350513          	addi	a0,a0,1283 # b503 <_end+0x64ff>
    2c0c:	00457593          	andi	a1,a0,4
    2c10:	70b12823          	sw	a1,1808(sp)

00002c14 <inst_472>:
    2c14:	0000b537          	lui	a0,0xb
    2c18:	50350513          	addi	a0,a0,1283 # b503 <_end+0x64ff>
    2c1c:	33257593          	andi	a1,a0,818
    2c20:	70b12a23          	sw	a1,1812(sp)

00002c24 <inst_473>:
    2c24:	0000b537          	lui	a0,0xb
    2c28:	50350513          	addi	a0,a0,1283 # b503 <_end+0x64ff>
    2c2c:	66557593          	andi	a1,a0,1637
    2c30:	70b12c23          	sw	a1,1816(sp)

00002c34 <inst_474>:
    2c34:	0000b537          	lui	a0,0xb
    2c38:	50350513          	addi	a0,a0,1283 # b503 <_end+0x64ff>
    2c3c:	02c57593          	andi	a1,a0,44
    2c40:	70b12e23          	sw	a1,1820(sp)

00002c44 <inst_475>:
    2c44:	0000b537          	lui	a0,0xb
    2c48:	50350513          	addi	a0,a0,1283 # b503 <_end+0x64ff>
    2c4c:	55657593          	andi	a1,a0,1366
    2c50:	72b12023          	sw	a1,1824(sp)

00002c54 <inst_476>:
    2c54:	0000b537          	lui	a0,0xb
    2c58:	50350513          	addi	a0,a0,1283 # b503 <_end+0x64ff>
    2c5c:	aab57593          	andi	a1,a0,-1365
    2c60:	72b12223          	sw	a1,1828(sp)

00002c64 <inst_477>:
    2c64:	0000b537          	lui	a0,0xb
    2c68:	50350513          	addi	a0,a0,1283 # b503 <_end+0x64ff>
    2c6c:	00657593          	andi	a1,a0,6
    2c70:	72b12423          	sw	a1,1832(sp)

00002c74 <inst_478>:
    2c74:	0000b537          	lui	a0,0xb
    2c78:	50350513          	addi	a0,a0,1283 # b503 <_end+0x64ff>
    2c7c:	33457593          	andi	a1,a0,820
    2c80:	72b12623          	sw	a1,1836(sp)

00002c84 <inst_479>:
    2c84:	0000b537          	lui	a0,0xb
    2c88:	50350513          	addi	a0,a0,1283 # b503 <_end+0x64ff>
    2c8c:	66757593          	andi	a1,a0,1639
    2c90:	72b12823          	sw	a1,1840(sp)

00002c94 <inst_480>:
    2c94:	0000b537          	lui	a0,0xb
    2c98:	50350513          	addi	a0,a0,1283 # b503 <_end+0x64ff>
    2c9c:	fd457593          	andi	a1,a0,-44
    2ca0:	72b12a23          	sw	a1,1844(sp)

00002ca4 <inst_481>:
    2ca4:	0000b537          	lui	a0,0xb
    2ca8:	50350513          	addi	a0,a0,1283 # b503 <_end+0x64ff>
    2cac:	02e57593          	andi	a1,a0,46
    2cb0:	72b12c23          	sw	a1,1848(sp)

00002cb4 <inst_482>:
    2cb4:	55555537          	lui	a0,0x55555
    2cb8:	55650513          	addi	a0,a0,1366 # 55555556 <_end+0x55550552>
    2cbc:	00357593          	andi	a1,a0,3
    2cc0:	72b12e23          	sw	a1,1852(sp)

00002cc4 <inst_483>:
    2cc4:	55555537          	lui	a0,0x55555
    2cc8:	55650513          	addi	a0,a0,1366 # 55555556 <_end+0x55550552>
    2ccc:	55557593          	andi	a1,a0,1365
    2cd0:	74b12023          	sw	a1,1856(sp)

00002cd4 <inst_484>:
    2cd4:	55555537          	lui	a0,0x55555
    2cd8:	55650513          	addi	a0,a0,1366 # 55555556 <_end+0x55550552>
    2cdc:	aaa57593          	andi	a1,a0,-1366
    2ce0:	74b12223          	sw	a1,1860(sp)

00002ce4 <inst_485>:
    2ce4:	55555537          	lui	a0,0x55555
    2ce8:	55650513          	addi	a0,a0,1366 # 55555556 <_end+0x55550552>
    2cec:	00557593          	andi	a1,a0,5
    2cf0:	74b12423          	sw	a1,1864(sp)

00002cf4 <inst_486>:
    2cf4:	55555537          	lui	a0,0x55555
    2cf8:	55650513          	addi	a0,a0,1366 # 55555556 <_end+0x55550552>
    2cfc:	33357593          	andi	a1,a0,819
    2d00:	74b12623          	sw	a1,1868(sp)

00002d04 <inst_487>:
    2d04:	55555537          	lui	a0,0x55555
    2d08:	55650513          	addi	a0,a0,1366 # 55555556 <_end+0x55550552>
    2d0c:	66657593          	andi	a1,a0,1638
    2d10:	74b12823          	sw	a1,1872(sp)

00002d14 <inst_488>:
    2d14:	55555537          	lui	a0,0x55555
    2d18:	55650513          	addi	a0,a0,1366 # 55555556 <_end+0x55550552>
    2d1c:	fd357593          	andi	a1,a0,-45
    2d20:	74b12a23          	sw	a1,1876(sp)

00002d24 <inst_489>:
    2d24:	55555537          	lui	a0,0x55555
    2d28:	55650513          	addi	a0,a0,1366 # 55555556 <_end+0x55550552>
    2d2c:	02d57593          	andi	a1,a0,45
    2d30:	74b12c23          	sw	a1,1880(sp)

00002d34 <inst_490>:
    2d34:	55555537          	lui	a0,0x55555
    2d38:	55650513          	addi	a0,a0,1366 # 55555556 <_end+0x55550552>
    2d3c:	00257593          	andi	a1,a0,2
    2d40:	74b12e23          	sw	a1,1884(sp)

00002d44 <inst_491>:
    2d44:	55555537          	lui	a0,0x55555
    2d48:	55650513          	addi	a0,a0,1366 # 55555556 <_end+0x55550552>
    2d4c:	55457593          	andi	a1,a0,1364
    2d50:	76b12023          	sw	a1,1888(sp)

00002d54 <inst_492>:
    2d54:	55555537          	lui	a0,0x55555
    2d58:	55650513          	addi	a0,a0,1366 # 55555556 <_end+0x55550552>
    2d5c:	00057593          	andi	a1,a0,0
    2d60:	76b12223          	sw	a1,1892(sp)

00002d64 <inst_493>:
    2d64:	55555537          	lui	a0,0x55555
    2d68:	55650513          	addi	a0,a0,1366 # 55555556 <_end+0x55550552>
    2d6c:	00457593          	andi	a1,a0,4
    2d70:	76b12423          	sw	a1,1896(sp)

00002d74 <inst_494>:
    2d74:	55555537          	lui	a0,0x55555
    2d78:	55650513          	addi	a0,a0,1366 # 55555556 <_end+0x55550552>
    2d7c:	33257593          	andi	a1,a0,818
    2d80:	76b12623          	sw	a1,1900(sp)

00002d84 <inst_495>:
    2d84:	55555537          	lui	a0,0x55555
    2d88:	55650513          	addi	a0,a0,1366 # 55555556 <_end+0x55550552>
    2d8c:	66557593          	andi	a1,a0,1637
    2d90:	76b12823          	sw	a1,1904(sp)

00002d94 <inst_496>:
    2d94:	55555537          	lui	a0,0x55555
    2d98:	55650513          	addi	a0,a0,1366 # 55555556 <_end+0x55550552>
    2d9c:	02c57593          	andi	a1,a0,44
    2da0:	76b12a23          	sw	a1,1908(sp)

00002da4 <inst_497>:
    2da4:	55555537          	lui	a0,0x55555
    2da8:	55650513          	addi	a0,a0,1366 # 55555556 <_end+0x55550552>
    2dac:	55657593          	andi	a1,a0,1366
    2db0:	76b12c23          	sw	a1,1912(sp)

00002db4 <inst_498>:
    2db4:	55555537          	lui	a0,0x55555
    2db8:	55650513          	addi	a0,a0,1366 # 55555556 <_end+0x55550552>
    2dbc:	aab57593          	andi	a1,a0,-1365
    2dc0:	76b12e23          	sw	a1,1916(sp)

00002dc4 <inst_499>:
    2dc4:	55555537          	lui	a0,0x55555
    2dc8:	55650513          	addi	a0,a0,1366 # 55555556 <_end+0x55550552>
    2dcc:	00657593          	andi	a1,a0,6
    2dd0:	78b12023          	sw	a1,1920(sp)

00002dd4 <inst_500>:
    2dd4:	55555537          	lui	a0,0x55555
    2dd8:	55650513          	addi	a0,a0,1366 # 55555556 <_end+0x55550552>
    2ddc:	33457593          	andi	a1,a0,820
    2de0:	78b12223          	sw	a1,1924(sp)

00002de4 <inst_501>:
    2de4:	55555537          	lui	a0,0x55555
    2de8:	55650513          	addi	a0,a0,1366 # 55555556 <_end+0x55550552>
    2dec:	66757593          	andi	a1,a0,1639
    2df0:	78b12423          	sw	a1,1928(sp)

00002df4 <inst_502>:
    2df4:	55555537          	lui	a0,0x55555
    2df8:	55650513          	addi	a0,a0,1366 # 55555556 <_end+0x55550552>
    2dfc:	fd457593          	andi	a1,a0,-44
    2e00:	78b12623          	sw	a1,1932(sp)

00002e04 <inst_503>:
    2e04:	55555537          	lui	a0,0x55555
    2e08:	55650513          	addi	a0,a0,1366 # 55555556 <_end+0x55550552>
    2e0c:	02e57593          	andi	a1,a0,46
    2e10:	78b12823          	sw	a1,1936(sp)

00002e14 <inst_504>:
    2e14:	aaaab537          	lui	a0,0xaaaab
    2e18:	aab50513          	addi	a0,a0,-1365 # aaaaaaab <_end+0xaaaa5aa7>
    2e1c:	00357593          	andi	a1,a0,3
    2e20:	78b12a23          	sw	a1,1940(sp)

00002e24 <inst_505>:
    2e24:	aaaab537          	lui	a0,0xaaaab
    2e28:	aab50513          	addi	a0,a0,-1365 # aaaaaaab <_end+0xaaaa5aa7>
    2e2c:	55557593          	andi	a1,a0,1365
    2e30:	78b12c23          	sw	a1,1944(sp)

00002e34 <inst_506>:
    2e34:	aaaab537          	lui	a0,0xaaaab
    2e38:	aab50513          	addi	a0,a0,-1365 # aaaaaaab <_end+0xaaaa5aa7>
    2e3c:	aaa57593          	andi	a1,a0,-1366
    2e40:	78b12e23          	sw	a1,1948(sp)

00002e44 <inst_507>:
    2e44:	aaaab537          	lui	a0,0xaaaab
    2e48:	aab50513          	addi	a0,a0,-1365 # aaaaaaab <_end+0xaaaa5aa7>
    2e4c:	00557593          	andi	a1,a0,5
    2e50:	7ab12023          	sw	a1,1952(sp)

00002e54 <inst_508>:
    2e54:	aaaab537          	lui	a0,0xaaaab
    2e58:	aab50513          	addi	a0,a0,-1365 # aaaaaaab <_end+0xaaaa5aa7>
    2e5c:	33357593          	andi	a1,a0,819
    2e60:	7ab12223          	sw	a1,1956(sp)

00002e64 <inst_509>:
    2e64:	aaaab537          	lui	a0,0xaaaab
    2e68:	aab50513          	addi	a0,a0,-1365 # aaaaaaab <_end+0xaaaa5aa7>
    2e6c:	66657593          	andi	a1,a0,1638
    2e70:	7ab12423          	sw	a1,1960(sp)

00002e74 <inst_510>:
    2e74:	aaaab537          	lui	a0,0xaaaab
    2e78:	aab50513          	addi	a0,a0,-1365 # aaaaaaab <_end+0xaaaa5aa7>
    2e7c:	fd357593          	andi	a1,a0,-45
    2e80:	7ab12623          	sw	a1,1964(sp)

00002e84 <inst_511>:
    2e84:	aaaab537          	lui	a0,0xaaaab
    2e88:	aab50513          	addi	a0,a0,-1365 # aaaaaaab <_end+0xaaaa5aa7>
    2e8c:	02d57593          	andi	a1,a0,45
    2e90:	7ab12823          	sw	a1,1968(sp)

00002e94 <inst_512>:
    2e94:	aaaab537          	lui	a0,0xaaaab
    2e98:	aab50513          	addi	a0,a0,-1365 # aaaaaaab <_end+0xaaaa5aa7>
    2e9c:	00257593          	andi	a1,a0,2
    2ea0:	7ab12a23          	sw	a1,1972(sp)

00002ea4 <inst_513>:
    2ea4:	aaaab537          	lui	a0,0xaaaab
    2ea8:	aab50513          	addi	a0,a0,-1365 # aaaaaaab <_end+0xaaaa5aa7>
    2eac:	55457593          	andi	a1,a0,1364
    2eb0:	7ab12c23          	sw	a1,1976(sp)

00002eb4 <inst_514>:
    2eb4:	aaaab537          	lui	a0,0xaaaab
    2eb8:	aab50513          	addi	a0,a0,-1365 # aaaaaaab <_end+0xaaaa5aa7>
    2ebc:	00057593          	andi	a1,a0,0
    2ec0:	7ab12e23          	sw	a1,1980(sp)

00002ec4 <inst_515>:
    2ec4:	aaaab537          	lui	a0,0xaaaab
    2ec8:	aab50513          	addi	a0,a0,-1365 # aaaaaaab <_end+0xaaaa5aa7>
    2ecc:	00457593          	andi	a1,a0,4
    2ed0:	7cb12023          	sw	a1,1984(sp)

00002ed4 <inst_516>:
    2ed4:	aaaab537          	lui	a0,0xaaaab
    2ed8:	aab50513          	addi	a0,a0,-1365 # aaaaaaab <_end+0xaaaa5aa7>
    2edc:	33257593          	andi	a1,a0,818
    2ee0:	7cb12223          	sw	a1,1988(sp)

00002ee4 <inst_517>:
    2ee4:	aaaab537          	lui	a0,0xaaaab
    2ee8:	aab50513          	addi	a0,a0,-1365 # aaaaaaab <_end+0xaaaa5aa7>
    2eec:	66557593          	andi	a1,a0,1637
    2ef0:	7cb12423          	sw	a1,1992(sp)

00002ef4 <inst_518>:
    2ef4:	aaaab537          	lui	a0,0xaaaab
    2ef8:	aab50513          	addi	a0,a0,-1365 # aaaaaaab <_end+0xaaaa5aa7>
    2efc:	02c57593          	andi	a1,a0,44
    2f00:	7cb12623          	sw	a1,1996(sp)

00002f04 <inst_519>:
    2f04:	aaaab537          	lui	a0,0xaaaab
    2f08:	aab50513          	addi	a0,a0,-1365 # aaaaaaab <_end+0xaaaa5aa7>
    2f0c:	55657593          	andi	a1,a0,1366
    2f10:	7cb12823          	sw	a1,2000(sp)

00002f14 <inst_520>:
    2f14:	aaaab537          	lui	a0,0xaaaab
    2f18:	aab50513          	addi	a0,a0,-1365 # aaaaaaab <_end+0xaaaa5aa7>
    2f1c:	aab57593          	andi	a1,a0,-1365
    2f20:	7cb12a23          	sw	a1,2004(sp)

00002f24 <inst_521>:
    2f24:	aaaab537          	lui	a0,0xaaaab
    2f28:	aab50513          	addi	a0,a0,-1365 # aaaaaaab <_end+0xaaaa5aa7>
    2f2c:	00657593          	andi	a1,a0,6
    2f30:	7cb12c23          	sw	a1,2008(sp)

00002f34 <inst_522>:
    2f34:	aaaab537          	lui	a0,0xaaaab
    2f38:	aab50513          	addi	a0,a0,-1365 # aaaaaaab <_end+0xaaaa5aa7>
    2f3c:	33457593          	andi	a1,a0,820
    2f40:	7cb12e23          	sw	a1,2012(sp)

00002f44 <inst_523>:
    2f44:	aaaab537          	lui	a0,0xaaaab
    2f48:	aab50513          	addi	a0,a0,-1365 # aaaaaaab <_end+0xaaaa5aa7>
    2f4c:	66757593          	andi	a1,a0,1639
    2f50:	7eb12023          	sw	a1,2016(sp)

00002f54 <inst_524>:
    2f54:	aaaab537          	lui	a0,0xaaaab
    2f58:	aab50513          	addi	a0,a0,-1365 # aaaaaaab <_end+0xaaaa5aa7>
    2f5c:	fd457593          	andi	a1,a0,-44
    2f60:	7eb12223          	sw	a1,2020(sp)

00002f64 <inst_525>:
    2f64:	aaaab537          	lui	a0,0xaaaab
    2f68:	aab50513          	addi	a0,a0,-1365 # aaaaaaab <_end+0xaaaa5aa7>
    2f6c:	02e57593          	andi	a1,a0,46
    2f70:	7eb12423          	sw	a1,2024(sp)

00002f74 <inst_526>:
    2f74:	00600513          	li	a0,6
    2f78:	00357593          	andi	a1,a0,3
    2f7c:	7eb12623          	sw	a1,2028(sp)

00002f80 <inst_527>:
    2f80:	00600513          	li	a0,6
    2f84:	55557593          	andi	a1,a0,1365
    2f88:	7eb12823          	sw	a1,2032(sp)

00002f8c <inst_528>:
    2f8c:	00600513          	li	a0,6
    2f90:	aaa57593          	andi	a1,a0,-1366
    2f94:	7eb12a23          	sw	a1,2036(sp)

00002f98 <inst_529>:
    2f98:	00600513          	li	a0,6
    2f9c:	00557593          	andi	a1,a0,5
    2fa0:	7eb12c23          	sw	a1,2040(sp)

00002fa4 <inst_530>:
    2fa4:	00600513          	li	a0,6
    2fa8:	33357593          	andi	a1,a0,819
    2fac:	7eb12e23          	sw	a1,2044(sp)
    2fb0:	00002117          	auipc	sp,0x2
    2fb4:	8ac10113          	addi	sp,sp,-1876 # 485c <signature_x2_1>

00002fb8 <inst_531>:
    2fb8:	00600513          	li	a0,6
    2fbc:	66657593          	andi	a1,a0,1638
    2fc0:	00b12023          	sw	a1,0(sp)

00002fc4 <inst_532>:
    2fc4:	00600513          	li	a0,6
    2fc8:	fd357593          	andi	a1,a0,-45
    2fcc:	00b12223          	sw	a1,4(sp)

00002fd0 <inst_533>:
    2fd0:	00600513          	li	a0,6
    2fd4:	02d57593          	andi	a1,a0,45
    2fd8:	00b12423          	sw	a1,8(sp)

00002fdc <inst_534>:
    2fdc:	00600513          	li	a0,6
    2fe0:	00257593          	andi	a1,a0,2
    2fe4:	00b12623          	sw	a1,12(sp)

00002fe8 <inst_535>:
    2fe8:	00600513          	li	a0,6
    2fec:	55457593          	andi	a1,a0,1364
    2ff0:	00b12823          	sw	a1,16(sp)

00002ff4 <inst_536>:
    2ff4:	00600513          	li	a0,6
    2ff8:	00057593          	andi	a1,a0,0
    2ffc:	00b12a23          	sw	a1,20(sp)

00003000 <inst_537>:
    3000:	00600513          	li	a0,6
    3004:	00457593          	andi	a1,a0,4
    3008:	00b12c23          	sw	a1,24(sp)

0000300c <inst_538>:
    300c:	00600513          	li	a0,6
    3010:	33257593          	andi	a1,a0,818
    3014:	00b12e23          	sw	a1,28(sp)

00003018 <inst_539>:
    3018:	00600513          	li	a0,6
    301c:	66557593          	andi	a1,a0,1637
    3020:	02b12023          	sw	a1,32(sp)

00003024 <inst_540>:
    3024:	00600513          	li	a0,6
    3028:	02c57593          	andi	a1,a0,44
    302c:	02b12223          	sw	a1,36(sp)

00003030 <inst_541>:
    3030:	00600513          	li	a0,6
    3034:	55657593          	andi	a1,a0,1366
    3038:	02b12423          	sw	a1,40(sp)

0000303c <inst_542>:
    303c:	00600513          	li	a0,6
    3040:	aab57593          	andi	a1,a0,-1365
    3044:	02b12623          	sw	a1,44(sp)

00003048 <inst_543>:
    3048:	00600513          	li	a0,6
    304c:	00657593          	andi	a1,a0,6
    3050:	02b12823          	sw	a1,48(sp)

00003054 <inst_544>:
    3054:	00600513          	li	a0,6
    3058:	33457593          	andi	a1,a0,820
    305c:	02b12a23          	sw	a1,52(sp)

00003060 <inst_545>:
    3060:	00600513          	li	a0,6
    3064:	66757593          	andi	a1,a0,1639
    3068:	02b12c23          	sw	a1,56(sp)

0000306c <inst_546>:
    306c:	00600513          	li	a0,6
    3070:	fd457593          	andi	a1,a0,-44
    3074:	02b12e23          	sw	a1,60(sp)

00003078 <inst_547>:
    3078:	00600513          	li	a0,6
    307c:	02e57593          	andi	a1,a0,46
    3080:	04b12023          	sw	a1,64(sp)

00003084 <inst_548>:
    3084:	33333537          	lui	a0,0x33333
    3088:	33450513          	addi	a0,a0,820 # 33333334 <_end+0x3332e330>
    308c:	00357593          	andi	a1,a0,3
    3090:	04b12223          	sw	a1,68(sp)

00003094 <inst_549>:
    3094:	33333537          	lui	a0,0x33333
    3098:	33450513          	addi	a0,a0,820 # 33333334 <_end+0x3332e330>
    309c:	55557593          	andi	a1,a0,1365
    30a0:	04b12423          	sw	a1,72(sp)

000030a4 <inst_550>:
    30a4:	33333537          	lui	a0,0x33333
    30a8:	33450513          	addi	a0,a0,820 # 33333334 <_end+0x3332e330>
    30ac:	aaa57593          	andi	a1,a0,-1366
    30b0:	04b12623          	sw	a1,76(sp)

000030b4 <inst_551>:
    30b4:	33333537          	lui	a0,0x33333
    30b8:	33450513          	addi	a0,a0,820 # 33333334 <_end+0x3332e330>
    30bc:	00557593          	andi	a1,a0,5
    30c0:	04b12823          	sw	a1,80(sp)

000030c4 <inst_552>:
    30c4:	33333537          	lui	a0,0x33333
    30c8:	33450513          	addi	a0,a0,820 # 33333334 <_end+0x3332e330>
    30cc:	33357593          	andi	a1,a0,819
    30d0:	04b12a23          	sw	a1,84(sp)

000030d4 <inst_553>:
    30d4:	33333537          	lui	a0,0x33333
    30d8:	33450513          	addi	a0,a0,820 # 33333334 <_end+0x3332e330>
    30dc:	66657593          	andi	a1,a0,1638
    30e0:	04b12c23          	sw	a1,88(sp)

000030e4 <inst_554>:
    30e4:	33333537          	lui	a0,0x33333
    30e8:	33450513          	addi	a0,a0,820 # 33333334 <_end+0x3332e330>
    30ec:	fd357593          	andi	a1,a0,-45
    30f0:	04b12e23          	sw	a1,92(sp)

000030f4 <inst_555>:
    30f4:	33333537          	lui	a0,0x33333
    30f8:	33450513          	addi	a0,a0,820 # 33333334 <_end+0x3332e330>
    30fc:	02d57593          	andi	a1,a0,45
    3100:	06b12023          	sw	a1,96(sp)

00003104 <inst_556>:
    3104:	33333537          	lui	a0,0x33333
    3108:	33450513          	addi	a0,a0,820 # 33333334 <_end+0x3332e330>
    310c:	00257593          	andi	a1,a0,2
    3110:	06b12223          	sw	a1,100(sp)

00003114 <inst_557>:
    3114:	33333537          	lui	a0,0x33333
    3118:	33450513          	addi	a0,a0,820 # 33333334 <_end+0x3332e330>
    311c:	55457593          	andi	a1,a0,1364
    3120:	06b12423          	sw	a1,104(sp)

00003124 <inst_558>:
    3124:	33333537          	lui	a0,0x33333
    3128:	33450513          	addi	a0,a0,820 # 33333334 <_end+0x3332e330>
    312c:	00057593          	andi	a1,a0,0
    3130:	06b12623          	sw	a1,108(sp)

00003134 <inst_559>:
    3134:	33333537          	lui	a0,0x33333
    3138:	33450513          	addi	a0,a0,820 # 33333334 <_end+0x3332e330>
    313c:	00457593          	andi	a1,a0,4
    3140:	06b12823          	sw	a1,112(sp)

00003144 <inst_560>:
    3144:	01000537          	lui	a0,0x1000
    3148:	00257593          	andi	a1,a0,2
    314c:	06b12a23          	sw	a1,116(sp)

00003150 <inst_561>:
    3150:	ffff5537          	lui	a0,0xffff5
    3154:	afc50513          	addi	a0,a0,-1284 # ffff4afc <_end+0xfffefaf8>
    3158:	eff57593          	andi	a1,a0,-257
    315c:	06b12c23          	sw	a1,120(sp)

00003160 <rvtest_code_end>:
    3160:	babed0b7          	lui	ra,0xbabed
    3164:	afe08093          	addi	ra,ra,-1282 # babecafe <_end+0xbabe7afa>

00003168 <write_tohost>:
    3168:	00002017          	auipc	zero,0x2
    316c:	e8102c23          	sw	ra,-360(zero) # fffffe98 <_end+0xffffae94>

00003170 <loop>:
    3170:	0000006f          	j	3170 <loop>
    3174:	0000                	unimp
	...

Disassembly of section .data:

00004000 <rvtest_data_begin>:
    4000:	cafe                	sw	t6,84(sp)
    4002:	babe                	fsd	fa5,368(sp)

00004004 <rvtest_data_end>:
	...

00004010 <begin_signature>:
    4010:	deadbeef          	jal	t4,fffdf5fa <_end+0xfffda5f6>
    4014:	deadbeef          	jal	t4,fffdf5fe <_end+0xfffda5fa>
    4018:	deadbeef          	jal	t4,fffdf602 <_end+0xfffda5fe>
    401c:	deadbeef          	jal	t4,fffdf606 <_end+0xfffda602>
    4020:	deadbeef          	jal	t4,fffdf60a <_end+0xfffda606>
    4024:	deadbeef          	jal	t4,fffdf60e <_end+0xfffda60a>
    4028:	deadbeef          	jal	t4,fffdf612 <_end+0xfffda60e>
    402c:	deadbeef          	jal	t4,fffdf616 <_end+0xfffda612>
    4030:	deadbeef          	jal	t4,fffdf61a <_end+0xfffda616>
    4034:	deadbeef          	jal	t4,fffdf61e <_end+0xfffda61a>
    4038:	deadbeef          	jal	t4,fffdf622 <_end+0xfffda61e>
    403c:	deadbeef          	jal	t4,fffdf626 <_end+0xfffda622>
    4040:	deadbeef          	jal	t4,fffdf62a <_end+0xfffda626>
    4044:	deadbeef          	jal	t4,fffdf62e <_end+0xfffda62a>
    4048:	deadbeef          	jal	t4,fffdf632 <_end+0xfffda62e>
    404c:	deadbeef          	jal	t4,fffdf636 <_end+0xfffda632>
    4050:	deadbeef          	jal	t4,fffdf63a <_end+0xfffda636>
    4054:	deadbeef          	jal	t4,fffdf63e <_end+0xfffda63a>
    4058:	deadbeef          	jal	t4,fffdf642 <_end+0xfffda63e>

0000405c <signature_x2_0>:
    405c:	deadbeef          	jal	t4,fffdf646 <_end+0xfffda642>
    4060:	deadbeef          	jal	t4,fffdf64a <_end+0xfffda646>
    4064:	deadbeef          	jal	t4,fffdf64e <_end+0xfffda64a>
    4068:	deadbeef          	jal	t4,fffdf652 <_end+0xfffda64e>
    406c:	deadbeef          	jal	t4,fffdf656 <_end+0xfffda652>
    4070:	deadbeef          	jal	t4,fffdf65a <_end+0xfffda656>
    4074:	deadbeef          	jal	t4,fffdf65e <_end+0xfffda65a>
    4078:	deadbeef          	jal	t4,fffdf662 <_end+0xfffda65e>
    407c:	deadbeef          	jal	t4,fffdf666 <_end+0xfffda662>
    4080:	deadbeef          	jal	t4,fffdf66a <_end+0xfffda666>
    4084:	deadbeef          	jal	t4,fffdf66e <_end+0xfffda66a>
    4088:	deadbeef          	jal	t4,fffdf672 <_end+0xfffda66e>
    408c:	deadbeef          	jal	t4,fffdf676 <_end+0xfffda672>
    4090:	deadbeef          	jal	t4,fffdf67a <_end+0xfffda676>
    4094:	deadbeef          	jal	t4,fffdf67e <_end+0xfffda67a>
    4098:	deadbeef          	jal	t4,fffdf682 <_end+0xfffda67e>
    409c:	deadbeef          	jal	t4,fffdf686 <_end+0xfffda682>
    40a0:	deadbeef          	jal	t4,fffdf68a <_end+0xfffda686>
    40a4:	deadbeef          	jal	t4,fffdf68e <_end+0xfffda68a>
    40a8:	deadbeef          	jal	t4,fffdf692 <_end+0xfffda68e>
    40ac:	deadbeef          	jal	t4,fffdf696 <_end+0xfffda692>
    40b0:	deadbeef          	jal	t4,fffdf69a <_end+0xfffda696>
    40b4:	deadbeef          	jal	t4,fffdf69e <_end+0xfffda69a>
    40b8:	deadbeef          	jal	t4,fffdf6a2 <_end+0xfffda69e>
    40bc:	deadbeef          	jal	t4,fffdf6a6 <_end+0xfffda6a2>
    40c0:	deadbeef          	jal	t4,fffdf6aa <_end+0xfffda6a6>
    40c4:	deadbeef          	jal	t4,fffdf6ae <_end+0xfffda6aa>
    40c8:	deadbeef          	jal	t4,fffdf6b2 <_end+0xfffda6ae>
    40cc:	deadbeef          	jal	t4,fffdf6b6 <_end+0xfffda6b2>
    40d0:	deadbeef          	jal	t4,fffdf6ba <_end+0xfffda6b6>
    40d4:	deadbeef          	jal	t4,fffdf6be <_end+0xfffda6ba>
    40d8:	deadbeef          	jal	t4,fffdf6c2 <_end+0xfffda6be>
    40dc:	deadbeef          	jal	t4,fffdf6c6 <_end+0xfffda6c2>
    40e0:	deadbeef          	jal	t4,fffdf6ca <_end+0xfffda6c6>
    40e4:	deadbeef          	jal	t4,fffdf6ce <_end+0xfffda6ca>
    40e8:	deadbeef          	jal	t4,fffdf6d2 <_end+0xfffda6ce>
    40ec:	deadbeef          	jal	t4,fffdf6d6 <_end+0xfffda6d2>
    40f0:	deadbeef          	jal	t4,fffdf6da <_end+0xfffda6d6>
    40f4:	deadbeef          	jal	t4,fffdf6de <_end+0xfffda6da>
    40f8:	deadbeef          	jal	t4,fffdf6e2 <_end+0xfffda6de>
    40fc:	deadbeef          	jal	t4,fffdf6e6 <_end+0xfffda6e2>
    4100:	deadbeef          	jal	t4,fffdf6ea <_end+0xfffda6e6>
    4104:	deadbeef          	jal	t4,fffdf6ee <_end+0xfffda6ea>
    4108:	deadbeef          	jal	t4,fffdf6f2 <_end+0xfffda6ee>
    410c:	deadbeef          	jal	t4,fffdf6f6 <_end+0xfffda6f2>
    4110:	deadbeef          	jal	t4,fffdf6fa <_end+0xfffda6f6>
    4114:	deadbeef          	jal	t4,fffdf6fe <_end+0xfffda6fa>
    4118:	deadbeef          	jal	t4,fffdf702 <_end+0xfffda6fe>
    411c:	deadbeef          	jal	t4,fffdf706 <_end+0xfffda702>
    4120:	deadbeef          	jal	t4,fffdf70a <_end+0xfffda706>
    4124:	deadbeef          	jal	t4,fffdf70e <_end+0xfffda70a>
    4128:	deadbeef          	jal	t4,fffdf712 <_end+0xfffda70e>
    412c:	deadbeef          	jal	t4,fffdf716 <_end+0xfffda712>
    4130:	deadbeef          	jal	t4,fffdf71a <_end+0xfffda716>
    4134:	deadbeef          	jal	t4,fffdf71e <_end+0xfffda71a>
    4138:	deadbeef          	jal	t4,fffdf722 <_end+0xfffda71e>
    413c:	deadbeef          	jal	t4,fffdf726 <_end+0xfffda722>
    4140:	deadbeef          	jal	t4,fffdf72a <_end+0xfffda726>
    4144:	deadbeef          	jal	t4,fffdf72e <_end+0xfffda72a>
    4148:	deadbeef          	jal	t4,fffdf732 <_end+0xfffda72e>
    414c:	deadbeef          	jal	t4,fffdf736 <_end+0xfffda732>
    4150:	deadbeef          	jal	t4,fffdf73a <_end+0xfffda736>
    4154:	deadbeef          	jal	t4,fffdf73e <_end+0xfffda73a>
    4158:	deadbeef          	jal	t4,fffdf742 <_end+0xfffda73e>
    415c:	deadbeef          	jal	t4,fffdf746 <_end+0xfffda742>
    4160:	deadbeef          	jal	t4,fffdf74a <_end+0xfffda746>
    4164:	deadbeef          	jal	t4,fffdf74e <_end+0xfffda74a>
    4168:	deadbeef          	jal	t4,fffdf752 <_end+0xfffda74e>
    416c:	deadbeef          	jal	t4,fffdf756 <_end+0xfffda752>
    4170:	deadbeef          	jal	t4,fffdf75a <_end+0xfffda756>
    4174:	deadbeef          	jal	t4,fffdf75e <_end+0xfffda75a>
    4178:	deadbeef          	jal	t4,fffdf762 <_end+0xfffda75e>
    417c:	deadbeef          	jal	t4,fffdf766 <_end+0xfffda762>
    4180:	deadbeef          	jal	t4,fffdf76a <_end+0xfffda766>
    4184:	deadbeef          	jal	t4,fffdf76e <_end+0xfffda76a>
    4188:	deadbeef          	jal	t4,fffdf772 <_end+0xfffda76e>
    418c:	deadbeef          	jal	t4,fffdf776 <_end+0xfffda772>
    4190:	deadbeef          	jal	t4,fffdf77a <_end+0xfffda776>
    4194:	deadbeef          	jal	t4,fffdf77e <_end+0xfffda77a>
    4198:	deadbeef          	jal	t4,fffdf782 <_end+0xfffda77e>
    419c:	deadbeef          	jal	t4,fffdf786 <_end+0xfffda782>
    41a0:	deadbeef          	jal	t4,fffdf78a <_end+0xfffda786>
    41a4:	deadbeef          	jal	t4,fffdf78e <_end+0xfffda78a>
    41a8:	deadbeef          	jal	t4,fffdf792 <_end+0xfffda78e>
    41ac:	deadbeef          	jal	t4,fffdf796 <_end+0xfffda792>
    41b0:	deadbeef          	jal	t4,fffdf79a <_end+0xfffda796>
    41b4:	deadbeef          	jal	t4,fffdf79e <_end+0xfffda79a>
    41b8:	deadbeef          	jal	t4,fffdf7a2 <_end+0xfffda79e>
    41bc:	deadbeef          	jal	t4,fffdf7a6 <_end+0xfffda7a2>
    41c0:	deadbeef          	jal	t4,fffdf7aa <_end+0xfffda7a6>
    41c4:	deadbeef          	jal	t4,fffdf7ae <_end+0xfffda7aa>
    41c8:	deadbeef          	jal	t4,fffdf7b2 <_end+0xfffda7ae>
    41cc:	deadbeef          	jal	t4,fffdf7b6 <_end+0xfffda7b2>
    41d0:	deadbeef          	jal	t4,fffdf7ba <_end+0xfffda7b6>
    41d4:	deadbeef          	jal	t4,fffdf7be <_end+0xfffda7ba>
    41d8:	deadbeef          	jal	t4,fffdf7c2 <_end+0xfffda7be>
    41dc:	deadbeef          	jal	t4,fffdf7c6 <_end+0xfffda7c2>
    41e0:	deadbeef          	jal	t4,fffdf7ca <_end+0xfffda7c6>
    41e4:	deadbeef          	jal	t4,fffdf7ce <_end+0xfffda7ca>
    41e8:	deadbeef          	jal	t4,fffdf7d2 <_end+0xfffda7ce>
    41ec:	deadbeef          	jal	t4,fffdf7d6 <_end+0xfffda7d2>
    41f0:	deadbeef          	jal	t4,fffdf7da <_end+0xfffda7d6>
    41f4:	deadbeef          	jal	t4,fffdf7de <_end+0xfffda7da>
    41f8:	deadbeef          	jal	t4,fffdf7e2 <_end+0xfffda7de>
    41fc:	deadbeef          	jal	t4,fffdf7e6 <_end+0xfffda7e2>
    4200:	deadbeef          	jal	t4,fffdf7ea <_end+0xfffda7e6>
    4204:	deadbeef          	jal	t4,fffdf7ee <_end+0xfffda7ea>
    4208:	deadbeef          	jal	t4,fffdf7f2 <_end+0xfffda7ee>
    420c:	deadbeef          	jal	t4,fffdf7f6 <_end+0xfffda7f2>
    4210:	deadbeef          	jal	t4,fffdf7fa <_end+0xfffda7f6>
    4214:	deadbeef          	jal	t4,fffdf7fe <_end+0xfffda7fa>
    4218:	deadbeef          	jal	t4,fffdf802 <_end+0xfffda7fe>
    421c:	deadbeef          	jal	t4,fffdf806 <_end+0xfffda802>
    4220:	deadbeef          	jal	t4,fffdf80a <_end+0xfffda806>
    4224:	deadbeef          	jal	t4,fffdf80e <_end+0xfffda80a>
    4228:	deadbeef          	jal	t4,fffdf812 <_end+0xfffda80e>
    422c:	deadbeef          	jal	t4,fffdf816 <_end+0xfffda812>
    4230:	deadbeef          	jal	t4,fffdf81a <_end+0xfffda816>
    4234:	deadbeef          	jal	t4,fffdf81e <_end+0xfffda81a>
    4238:	deadbeef          	jal	t4,fffdf822 <_end+0xfffda81e>
    423c:	deadbeef          	jal	t4,fffdf826 <_end+0xfffda822>
    4240:	deadbeef          	jal	t4,fffdf82a <_end+0xfffda826>
    4244:	deadbeef          	jal	t4,fffdf82e <_end+0xfffda82a>
    4248:	deadbeef          	jal	t4,fffdf832 <_end+0xfffda82e>
    424c:	deadbeef          	jal	t4,fffdf836 <_end+0xfffda832>
    4250:	deadbeef          	jal	t4,fffdf83a <_end+0xfffda836>
    4254:	deadbeef          	jal	t4,fffdf83e <_end+0xfffda83a>
    4258:	deadbeef          	jal	t4,fffdf842 <_end+0xfffda83e>
    425c:	deadbeef          	jal	t4,fffdf846 <_end+0xfffda842>
    4260:	deadbeef          	jal	t4,fffdf84a <_end+0xfffda846>
    4264:	deadbeef          	jal	t4,fffdf84e <_end+0xfffda84a>
    4268:	deadbeef          	jal	t4,fffdf852 <_end+0xfffda84e>
    426c:	deadbeef          	jal	t4,fffdf856 <_end+0xfffda852>
    4270:	deadbeef          	jal	t4,fffdf85a <_end+0xfffda856>
    4274:	deadbeef          	jal	t4,fffdf85e <_end+0xfffda85a>
    4278:	deadbeef          	jal	t4,fffdf862 <_end+0xfffda85e>
    427c:	deadbeef          	jal	t4,fffdf866 <_end+0xfffda862>
    4280:	deadbeef          	jal	t4,fffdf86a <_end+0xfffda866>
    4284:	deadbeef          	jal	t4,fffdf86e <_end+0xfffda86a>
    4288:	deadbeef          	jal	t4,fffdf872 <_end+0xfffda86e>
    428c:	deadbeef          	jal	t4,fffdf876 <_end+0xfffda872>
    4290:	deadbeef          	jal	t4,fffdf87a <_end+0xfffda876>
    4294:	deadbeef          	jal	t4,fffdf87e <_end+0xfffda87a>
    4298:	deadbeef          	jal	t4,fffdf882 <_end+0xfffda87e>
    429c:	deadbeef          	jal	t4,fffdf886 <_end+0xfffda882>
    42a0:	deadbeef          	jal	t4,fffdf88a <_end+0xfffda886>
    42a4:	deadbeef          	jal	t4,fffdf88e <_end+0xfffda88a>
    42a8:	deadbeef          	jal	t4,fffdf892 <_end+0xfffda88e>
    42ac:	deadbeef          	jal	t4,fffdf896 <_end+0xfffda892>
    42b0:	deadbeef          	jal	t4,fffdf89a <_end+0xfffda896>
    42b4:	deadbeef          	jal	t4,fffdf89e <_end+0xfffda89a>
    42b8:	deadbeef          	jal	t4,fffdf8a2 <_end+0xfffda89e>
    42bc:	deadbeef          	jal	t4,fffdf8a6 <_end+0xfffda8a2>
    42c0:	deadbeef          	jal	t4,fffdf8aa <_end+0xfffda8a6>
    42c4:	deadbeef          	jal	t4,fffdf8ae <_end+0xfffda8aa>
    42c8:	deadbeef          	jal	t4,fffdf8b2 <_end+0xfffda8ae>
    42cc:	deadbeef          	jal	t4,fffdf8b6 <_end+0xfffda8b2>
    42d0:	deadbeef          	jal	t4,fffdf8ba <_end+0xfffda8b6>
    42d4:	deadbeef          	jal	t4,fffdf8be <_end+0xfffda8ba>
    42d8:	deadbeef          	jal	t4,fffdf8c2 <_end+0xfffda8be>
    42dc:	deadbeef          	jal	t4,fffdf8c6 <_end+0xfffda8c2>
    42e0:	deadbeef          	jal	t4,fffdf8ca <_end+0xfffda8c6>
    42e4:	deadbeef          	jal	t4,fffdf8ce <_end+0xfffda8ca>
    42e8:	deadbeef          	jal	t4,fffdf8d2 <_end+0xfffda8ce>
    42ec:	deadbeef          	jal	t4,fffdf8d6 <_end+0xfffda8d2>
    42f0:	deadbeef          	jal	t4,fffdf8da <_end+0xfffda8d6>
    42f4:	deadbeef          	jal	t4,fffdf8de <_end+0xfffda8da>
    42f8:	deadbeef          	jal	t4,fffdf8e2 <_end+0xfffda8de>
    42fc:	deadbeef          	jal	t4,fffdf8e6 <_end+0xfffda8e2>
    4300:	deadbeef          	jal	t4,fffdf8ea <_end+0xfffda8e6>
    4304:	deadbeef          	jal	t4,fffdf8ee <_end+0xfffda8ea>
    4308:	deadbeef          	jal	t4,fffdf8f2 <_end+0xfffda8ee>
    430c:	deadbeef          	jal	t4,fffdf8f6 <_end+0xfffda8f2>
    4310:	deadbeef          	jal	t4,fffdf8fa <_end+0xfffda8f6>
    4314:	deadbeef          	jal	t4,fffdf8fe <_end+0xfffda8fa>
    4318:	deadbeef          	jal	t4,fffdf902 <_end+0xfffda8fe>
    431c:	deadbeef          	jal	t4,fffdf906 <_end+0xfffda902>
    4320:	deadbeef          	jal	t4,fffdf90a <_end+0xfffda906>
    4324:	deadbeef          	jal	t4,fffdf90e <_end+0xfffda90a>
    4328:	deadbeef          	jal	t4,fffdf912 <_end+0xfffda90e>
    432c:	deadbeef          	jal	t4,fffdf916 <_end+0xfffda912>
    4330:	deadbeef          	jal	t4,fffdf91a <_end+0xfffda916>
    4334:	deadbeef          	jal	t4,fffdf91e <_end+0xfffda91a>
    4338:	deadbeef          	jal	t4,fffdf922 <_end+0xfffda91e>
    433c:	deadbeef          	jal	t4,fffdf926 <_end+0xfffda922>
    4340:	deadbeef          	jal	t4,fffdf92a <_end+0xfffda926>
    4344:	deadbeef          	jal	t4,fffdf92e <_end+0xfffda92a>
    4348:	deadbeef          	jal	t4,fffdf932 <_end+0xfffda92e>
    434c:	deadbeef          	jal	t4,fffdf936 <_end+0xfffda932>
    4350:	deadbeef          	jal	t4,fffdf93a <_end+0xfffda936>
    4354:	deadbeef          	jal	t4,fffdf93e <_end+0xfffda93a>
    4358:	deadbeef          	jal	t4,fffdf942 <_end+0xfffda93e>
    435c:	deadbeef          	jal	t4,fffdf946 <_end+0xfffda942>
    4360:	deadbeef          	jal	t4,fffdf94a <_end+0xfffda946>
    4364:	deadbeef          	jal	t4,fffdf94e <_end+0xfffda94a>
    4368:	deadbeef          	jal	t4,fffdf952 <_end+0xfffda94e>
    436c:	deadbeef          	jal	t4,fffdf956 <_end+0xfffda952>
    4370:	deadbeef          	jal	t4,fffdf95a <_end+0xfffda956>
    4374:	deadbeef          	jal	t4,fffdf95e <_end+0xfffda95a>
    4378:	deadbeef          	jal	t4,fffdf962 <_end+0xfffda95e>
    437c:	deadbeef          	jal	t4,fffdf966 <_end+0xfffda962>
    4380:	deadbeef          	jal	t4,fffdf96a <_end+0xfffda966>
    4384:	deadbeef          	jal	t4,fffdf96e <_end+0xfffda96a>
    4388:	deadbeef          	jal	t4,fffdf972 <_end+0xfffda96e>
    438c:	deadbeef          	jal	t4,fffdf976 <_end+0xfffda972>
    4390:	deadbeef          	jal	t4,fffdf97a <_end+0xfffda976>
    4394:	deadbeef          	jal	t4,fffdf97e <_end+0xfffda97a>
    4398:	deadbeef          	jal	t4,fffdf982 <_end+0xfffda97e>
    439c:	deadbeef          	jal	t4,fffdf986 <_end+0xfffda982>
    43a0:	deadbeef          	jal	t4,fffdf98a <_end+0xfffda986>
    43a4:	deadbeef          	jal	t4,fffdf98e <_end+0xfffda98a>
    43a8:	deadbeef          	jal	t4,fffdf992 <_end+0xfffda98e>
    43ac:	deadbeef          	jal	t4,fffdf996 <_end+0xfffda992>
    43b0:	deadbeef          	jal	t4,fffdf99a <_end+0xfffda996>
    43b4:	deadbeef          	jal	t4,fffdf99e <_end+0xfffda99a>
    43b8:	deadbeef          	jal	t4,fffdf9a2 <_end+0xfffda99e>
    43bc:	deadbeef          	jal	t4,fffdf9a6 <_end+0xfffda9a2>
    43c0:	deadbeef          	jal	t4,fffdf9aa <_end+0xfffda9a6>
    43c4:	deadbeef          	jal	t4,fffdf9ae <_end+0xfffda9aa>
    43c8:	deadbeef          	jal	t4,fffdf9b2 <_end+0xfffda9ae>
    43cc:	deadbeef          	jal	t4,fffdf9b6 <_end+0xfffda9b2>
    43d0:	deadbeef          	jal	t4,fffdf9ba <_end+0xfffda9b6>
    43d4:	deadbeef          	jal	t4,fffdf9be <_end+0xfffda9ba>
    43d8:	deadbeef          	jal	t4,fffdf9c2 <_end+0xfffda9be>
    43dc:	deadbeef          	jal	t4,fffdf9c6 <_end+0xfffda9c2>
    43e0:	deadbeef          	jal	t4,fffdf9ca <_end+0xfffda9c6>
    43e4:	deadbeef          	jal	t4,fffdf9ce <_end+0xfffda9ca>
    43e8:	deadbeef          	jal	t4,fffdf9d2 <_end+0xfffda9ce>
    43ec:	deadbeef          	jal	t4,fffdf9d6 <_end+0xfffda9d2>
    43f0:	deadbeef          	jal	t4,fffdf9da <_end+0xfffda9d6>
    43f4:	deadbeef          	jal	t4,fffdf9de <_end+0xfffda9da>
    43f8:	deadbeef          	jal	t4,fffdf9e2 <_end+0xfffda9de>
    43fc:	deadbeef          	jal	t4,fffdf9e6 <_end+0xfffda9e2>
    4400:	deadbeef          	jal	t4,fffdf9ea <_end+0xfffda9e6>
    4404:	deadbeef          	jal	t4,fffdf9ee <_end+0xfffda9ea>
    4408:	deadbeef          	jal	t4,fffdf9f2 <_end+0xfffda9ee>
    440c:	deadbeef          	jal	t4,fffdf9f6 <_end+0xfffda9f2>
    4410:	deadbeef          	jal	t4,fffdf9fa <_end+0xfffda9f6>
    4414:	deadbeef          	jal	t4,fffdf9fe <_end+0xfffda9fa>
    4418:	deadbeef          	jal	t4,fffdfa02 <_end+0xfffda9fe>
    441c:	deadbeef          	jal	t4,fffdfa06 <_end+0xfffdaa02>
    4420:	deadbeef          	jal	t4,fffdfa0a <_end+0xfffdaa06>
    4424:	deadbeef          	jal	t4,fffdfa0e <_end+0xfffdaa0a>
    4428:	deadbeef          	jal	t4,fffdfa12 <_end+0xfffdaa0e>
    442c:	deadbeef          	jal	t4,fffdfa16 <_end+0xfffdaa12>
    4430:	deadbeef          	jal	t4,fffdfa1a <_end+0xfffdaa16>
    4434:	deadbeef          	jal	t4,fffdfa1e <_end+0xfffdaa1a>
    4438:	deadbeef          	jal	t4,fffdfa22 <_end+0xfffdaa1e>
    443c:	deadbeef          	jal	t4,fffdfa26 <_end+0xfffdaa22>
    4440:	deadbeef          	jal	t4,fffdfa2a <_end+0xfffdaa26>
    4444:	deadbeef          	jal	t4,fffdfa2e <_end+0xfffdaa2a>
    4448:	deadbeef          	jal	t4,fffdfa32 <_end+0xfffdaa2e>
    444c:	deadbeef          	jal	t4,fffdfa36 <_end+0xfffdaa32>
    4450:	deadbeef          	jal	t4,fffdfa3a <_end+0xfffdaa36>
    4454:	deadbeef          	jal	t4,fffdfa3e <_end+0xfffdaa3a>
    4458:	deadbeef          	jal	t4,fffdfa42 <_end+0xfffdaa3e>
    445c:	deadbeef          	jal	t4,fffdfa46 <_end+0xfffdaa42>
    4460:	deadbeef          	jal	t4,fffdfa4a <_end+0xfffdaa46>
    4464:	deadbeef          	jal	t4,fffdfa4e <_end+0xfffdaa4a>
    4468:	deadbeef          	jal	t4,fffdfa52 <_end+0xfffdaa4e>
    446c:	deadbeef          	jal	t4,fffdfa56 <_end+0xfffdaa52>
    4470:	deadbeef          	jal	t4,fffdfa5a <_end+0xfffdaa56>
    4474:	deadbeef          	jal	t4,fffdfa5e <_end+0xfffdaa5a>
    4478:	deadbeef          	jal	t4,fffdfa62 <_end+0xfffdaa5e>
    447c:	deadbeef          	jal	t4,fffdfa66 <_end+0xfffdaa62>
    4480:	deadbeef          	jal	t4,fffdfa6a <_end+0xfffdaa66>
    4484:	deadbeef          	jal	t4,fffdfa6e <_end+0xfffdaa6a>
    4488:	deadbeef          	jal	t4,fffdfa72 <_end+0xfffdaa6e>
    448c:	deadbeef          	jal	t4,fffdfa76 <_end+0xfffdaa72>
    4490:	deadbeef          	jal	t4,fffdfa7a <_end+0xfffdaa76>
    4494:	deadbeef          	jal	t4,fffdfa7e <_end+0xfffdaa7a>
    4498:	deadbeef          	jal	t4,fffdfa82 <_end+0xfffdaa7e>
    449c:	deadbeef          	jal	t4,fffdfa86 <_end+0xfffdaa82>
    44a0:	deadbeef          	jal	t4,fffdfa8a <_end+0xfffdaa86>
    44a4:	deadbeef          	jal	t4,fffdfa8e <_end+0xfffdaa8a>
    44a8:	deadbeef          	jal	t4,fffdfa92 <_end+0xfffdaa8e>
    44ac:	deadbeef          	jal	t4,fffdfa96 <_end+0xfffdaa92>
    44b0:	deadbeef          	jal	t4,fffdfa9a <_end+0xfffdaa96>
    44b4:	deadbeef          	jal	t4,fffdfa9e <_end+0xfffdaa9a>
    44b8:	deadbeef          	jal	t4,fffdfaa2 <_end+0xfffdaa9e>
    44bc:	deadbeef          	jal	t4,fffdfaa6 <_end+0xfffdaaa2>
    44c0:	deadbeef          	jal	t4,fffdfaaa <_end+0xfffdaaa6>
    44c4:	deadbeef          	jal	t4,fffdfaae <_end+0xfffdaaaa>
    44c8:	deadbeef          	jal	t4,fffdfab2 <_end+0xfffdaaae>
    44cc:	deadbeef          	jal	t4,fffdfab6 <_end+0xfffdaab2>
    44d0:	deadbeef          	jal	t4,fffdfaba <_end+0xfffdaab6>
    44d4:	deadbeef          	jal	t4,fffdfabe <_end+0xfffdaaba>
    44d8:	deadbeef          	jal	t4,fffdfac2 <_end+0xfffdaabe>
    44dc:	deadbeef          	jal	t4,fffdfac6 <_end+0xfffdaac2>
    44e0:	deadbeef          	jal	t4,fffdfaca <_end+0xfffdaac6>
    44e4:	deadbeef          	jal	t4,fffdface <_end+0xfffdaaca>
    44e8:	deadbeef          	jal	t4,fffdfad2 <_end+0xfffdaace>
    44ec:	deadbeef          	jal	t4,fffdfad6 <_end+0xfffdaad2>
    44f0:	deadbeef          	jal	t4,fffdfada <_end+0xfffdaad6>
    44f4:	deadbeef          	jal	t4,fffdfade <_end+0xfffdaada>
    44f8:	deadbeef          	jal	t4,fffdfae2 <_end+0xfffdaade>
    44fc:	deadbeef          	jal	t4,fffdfae6 <_end+0xfffdaae2>
    4500:	deadbeef          	jal	t4,fffdfaea <_end+0xfffdaae6>
    4504:	deadbeef          	jal	t4,fffdfaee <_end+0xfffdaaea>
    4508:	deadbeef          	jal	t4,fffdfaf2 <_end+0xfffdaaee>
    450c:	deadbeef          	jal	t4,fffdfaf6 <_end+0xfffdaaf2>
    4510:	deadbeef          	jal	t4,fffdfafa <_end+0xfffdaaf6>
    4514:	deadbeef          	jal	t4,fffdfafe <_end+0xfffdaafa>
    4518:	deadbeef          	jal	t4,fffdfb02 <_end+0xfffdaafe>
    451c:	deadbeef          	jal	t4,fffdfb06 <_end+0xfffdab02>
    4520:	deadbeef          	jal	t4,fffdfb0a <_end+0xfffdab06>
    4524:	deadbeef          	jal	t4,fffdfb0e <_end+0xfffdab0a>
    4528:	deadbeef          	jal	t4,fffdfb12 <_end+0xfffdab0e>
    452c:	deadbeef          	jal	t4,fffdfb16 <_end+0xfffdab12>
    4530:	deadbeef          	jal	t4,fffdfb1a <_end+0xfffdab16>
    4534:	deadbeef          	jal	t4,fffdfb1e <_end+0xfffdab1a>
    4538:	deadbeef          	jal	t4,fffdfb22 <_end+0xfffdab1e>
    453c:	deadbeef          	jal	t4,fffdfb26 <_end+0xfffdab22>
    4540:	deadbeef          	jal	t4,fffdfb2a <_end+0xfffdab26>
    4544:	deadbeef          	jal	t4,fffdfb2e <_end+0xfffdab2a>
    4548:	deadbeef          	jal	t4,fffdfb32 <_end+0xfffdab2e>
    454c:	deadbeef          	jal	t4,fffdfb36 <_end+0xfffdab32>
    4550:	deadbeef          	jal	t4,fffdfb3a <_end+0xfffdab36>
    4554:	deadbeef          	jal	t4,fffdfb3e <_end+0xfffdab3a>
    4558:	deadbeef          	jal	t4,fffdfb42 <_end+0xfffdab3e>
    455c:	deadbeef          	jal	t4,fffdfb46 <_end+0xfffdab42>
    4560:	deadbeef          	jal	t4,fffdfb4a <_end+0xfffdab46>
    4564:	deadbeef          	jal	t4,fffdfb4e <_end+0xfffdab4a>
    4568:	deadbeef          	jal	t4,fffdfb52 <_end+0xfffdab4e>
    456c:	deadbeef          	jal	t4,fffdfb56 <_end+0xfffdab52>
    4570:	deadbeef          	jal	t4,fffdfb5a <_end+0xfffdab56>
    4574:	deadbeef          	jal	t4,fffdfb5e <_end+0xfffdab5a>
    4578:	deadbeef          	jal	t4,fffdfb62 <_end+0xfffdab5e>
    457c:	deadbeef          	jal	t4,fffdfb66 <_end+0xfffdab62>
    4580:	deadbeef          	jal	t4,fffdfb6a <_end+0xfffdab66>
    4584:	deadbeef          	jal	t4,fffdfb6e <_end+0xfffdab6a>
    4588:	deadbeef          	jal	t4,fffdfb72 <_end+0xfffdab6e>
    458c:	deadbeef          	jal	t4,fffdfb76 <_end+0xfffdab72>
    4590:	deadbeef          	jal	t4,fffdfb7a <_end+0xfffdab76>
    4594:	deadbeef          	jal	t4,fffdfb7e <_end+0xfffdab7a>
    4598:	deadbeef          	jal	t4,fffdfb82 <_end+0xfffdab7e>
    459c:	deadbeef          	jal	t4,fffdfb86 <_end+0xfffdab82>
    45a0:	deadbeef          	jal	t4,fffdfb8a <_end+0xfffdab86>
    45a4:	deadbeef          	jal	t4,fffdfb8e <_end+0xfffdab8a>
    45a8:	deadbeef          	jal	t4,fffdfb92 <_end+0xfffdab8e>
    45ac:	deadbeef          	jal	t4,fffdfb96 <_end+0xfffdab92>
    45b0:	deadbeef          	jal	t4,fffdfb9a <_end+0xfffdab96>
    45b4:	deadbeef          	jal	t4,fffdfb9e <_end+0xfffdab9a>
    45b8:	deadbeef          	jal	t4,fffdfba2 <_end+0xfffdab9e>
    45bc:	deadbeef          	jal	t4,fffdfba6 <_end+0xfffdaba2>
    45c0:	deadbeef          	jal	t4,fffdfbaa <_end+0xfffdaba6>
    45c4:	deadbeef          	jal	t4,fffdfbae <_end+0xfffdabaa>
    45c8:	deadbeef          	jal	t4,fffdfbb2 <_end+0xfffdabae>
    45cc:	deadbeef          	jal	t4,fffdfbb6 <_end+0xfffdabb2>
    45d0:	deadbeef          	jal	t4,fffdfbba <_end+0xfffdabb6>
    45d4:	deadbeef          	jal	t4,fffdfbbe <_end+0xfffdabba>
    45d8:	deadbeef          	jal	t4,fffdfbc2 <_end+0xfffdabbe>
    45dc:	deadbeef          	jal	t4,fffdfbc6 <_end+0xfffdabc2>
    45e0:	deadbeef          	jal	t4,fffdfbca <_end+0xfffdabc6>
    45e4:	deadbeef          	jal	t4,fffdfbce <_end+0xfffdabca>
    45e8:	deadbeef          	jal	t4,fffdfbd2 <_end+0xfffdabce>
    45ec:	deadbeef          	jal	t4,fffdfbd6 <_end+0xfffdabd2>
    45f0:	deadbeef          	jal	t4,fffdfbda <_end+0xfffdabd6>
    45f4:	deadbeef          	jal	t4,fffdfbde <_end+0xfffdabda>
    45f8:	deadbeef          	jal	t4,fffdfbe2 <_end+0xfffdabde>
    45fc:	deadbeef          	jal	t4,fffdfbe6 <_end+0xfffdabe2>
    4600:	deadbeef          	jal	t4,fffdfbea <_end+0xfffdabe6>
    4604:	deadbeef          	jal	t4,fffdfbee <_end+0xfffdabea>
    4608:	deadbeef          	jal	t4,fffdfbf2 <_end+0xfffdabee>
    460c:	deadbeef          	jal	t4,fffdfbf6 <_end+0xfffdabf2>
    4610:	deadbeef          	jal	t4,fffdfbfa <_end+0xfffdabf6>
    4614:	deadbeef          	jal	t4,fffdfbfe <_end+0xfffdabfa>
    4618:	deadbeef          	jal	t4,fffdfc02 <_end+0xfffdabfe>
    461c:	deadbeef          	jal	t4,fffdfc06 <_end+0xfffdac02>
    4620:	deadbeef          	jal	t4,fffdfc0a <_end+0xfffdac06>
    4624:	deadbeef          	jal	t4,fffdfc0e <_end+0xfffdac0a>
    4628:	deadbeef          	jal	t4,fffdfc12 <_end+0xfffdac0e>
    462c:	deadbeef          	jal	t4,fffdfc16 <_end+0xfffdac12>
    4630:	deadbeef          	jal	t4,fffdfc1a <_end+0xfffdac16>
    4634:	deadbeef          	jal	t4,fffdfc1e <_end+0xfffdac1a>
    4638:	deadbeef          	jal	t4,fffdfc22 <_end+0xfffdac1e>
    463c:	deadbeef          	jal	t4,fffdfc26 <_end+0xfffdac22>
    4640:	deadbeef          	jal	t4,fffdfc2a <_end+0xfffdac26>
    4644:	deadbeef          	jal	t4,fffdfc2e <_end+0xfffdac2a>
    4648:	deadbeef          	jal	t4,fffdfc32 <_end+0xfffdac2e>
    464c:	deadbeef          	jal	t4,fffdfc36 <_end+0xfffdac32>
    4650:	deadbeef          	jal	t4,fffdfc3a <_end+0xfffdac36>
    4654:	deadbeef          	jal	t4,fffdfc3e <_end+0xfffdac3a>
    4658:	deadbeef          	jal	t4,fffdfc42 <_end+0xfffdac3e>
    465c:	deadbeef          	jal	t4,fffdfc46 <_end+0xfffdac42>
    4660:	deadbeef          	jal	t4,fffdfc4a <_end+0xfffdac46>
    4664:	deadbeef          	jal	t4,fffdfc4e <_end+0xfffdac4a>
    4668:	deadbeef          	jal	t4,fffdfc52 <_end+0xfffdac4e>
    466c:	deadbeef          	jal	t4,fffdfc56 <_end+0xfffdac52>
    4670:	deadbeef          	jal	t4,fffdfc5a <_end+0xfffdac56>
    4674:	deadbeef          	jal	t4,fffdfc5e <_end+0xfffdac5a>
    4678:	deadbeef          	jal	t4,fffdfc62 <_end+0xfffdac5e>
    467c:	deadbeef          	jal	t4,fffdfc66 <_end+0xfffdac62>
    4680:	deadbeef          	jal	t4,fffdfc6a <_end+0xfffdac66>
    4684:	deadbeef          	jal	t4,fffdfc6e <_end+0xfffdac6a>
    4688:	deadbeef          	jal	t4,fffdfc72 <_end+0xfffdac6e>
    468c:	deadbeef          	jal	t4,fffdfc76 <_end+0xfffdac72>
    4690:	deadbeef          	jal	t4,fffdfc7a <_end+0xfffdac76>
    4694:	deadbeef          	jal	t4,fffdfc7e <_end+0xfffdac7a>
    4698:	deadbeef          	jal	t4,fffdfc82 <_end+0xfffdac7e>
    469c:	deadbeef          	jal	t4,fffdfc86 <_end+0xfffdac82>
    46a0:	deadbeef          	jal	t4,fffdfc8a <_end+0xfffdac86>
    46a4:	deadbeef          	jal	t4,fffdfc8e <_end+0xfffdac8a>
    46a8:	deadbeef          	jal	t4,fffdfc92 <_end+0xfffdac8e>
    46ac:	deadbeef          	jal	t4,fffdfc96 <_end+0xfffdac92>
    46b0:	deadbeef          	jal	t4,fffdfc9a <_end+0xfffdac96>
    46b4:	deadbeef          	jal	t4,fffdfc9e <_end+0xfffdac9a>
    46b8:	deadbeef          	jal	t4,fffdfca2 <_end+0xfffdac9e>
    46bc:	deadbeef          	jal	t4,fffdfca6 <_end+0xfffdaca2>
    46c0:	deadbeef          	jal	t4,fffdfcaa <_end+0xfffdaca6>
    46c4:	deadbeef          	jal	t4,fffdfcae <_end+0xfffdacaa>
    46c8:	deadbeef          	jal	t4,fffdfcb2 <_end+0xfffdacae>
    46cc:	deadbeef          	jal	t4,fffdfcb6 <_end+0xfffdacb2>
    46d0:	deadbeef          	jal	t4,fffdfcba <_end+0xfffdacb6>
    46d4:	deadbeef          	jal	t4,fffdfcbe <_end+0xfffdacba>
    46d8:	deadbeef          	jal	t4,fffdfcc2 <_end+0xfffdacbe>
    46dc:	deadbeef          	jal	t4,fffdfcc6 <_end+0xfffdacc2>
    46e0:	deadbeef          	jal	t4,fffdfcca <_end+0xfffdacc6>
    46e4:	deadbeef          	jal	t4,fffdfcce <_end+0xfffdacca>
    46e8:	deadbeef          	jal	t4,fffdfcd2 <_end+0xfffdacce>
    46ec:	deadbeef          	jal	t4,fffdfcd6 <_end+0xfffdacd2>
    46f0:	deadbeef          	jal	t4,fffdfcda <_end+0xfffdacd6>
    46f4:	deadbeef          	jal	t4,fffdfcde <_end+0xfffdacda>
    46f8:	deadbeef          	jal	t4,fffdfce2 <_end+0xfffdacde>
    46fc:	deadbeef          	jal	t4,fffdfce6 <_end+0xfffdace2>
    4700:	deadbeef          	jal	t4,fffdfcea <_end+0xfffdace6>
    4704:	deadbeef          	jal	t4,fffdfcee <_end+0xfffdacea>
    4708:	deadbeef          	jal	t4,fffdfcf2 <_end+0xfffdacee>
    470c:	deadbeef          	jal	t4,fffdfcf6 <_end+0xfffdacf2>
    4710:	deadbeef          	jal	t4,fffdfcfa <_end+0xfffdacf6>
    4714:	deadbeef          	jal	t4,fffdfcfe <_end+0xfffdacfa>
    4718:	deadbeef          	jal	t4,fffdfd02 <_end+0xfffdacfe>
    471c:	deadbeef          	jal	t4,fffdfd06 <_end+0xfffdad02>
    4720:	deadbeef          	jal	t4,fffdfd0a <_end+0xfffdad06>
    4724:	deadbeef          	jal	t4,fffdfd0e <_end+0xfffdad0a>
    4728:	deadbeef          	jal	t4,fffdfd12 <_end+0xfffdad0e>
    472c:	deadbeef          	jal	t4,fffdfd16 <_end+0xfffdad12>
    4730:	deadbeef          	jal	t4,fffdfd1a <_end+0xfffdad16>
    4734:	deadbeef          	jal	t4,fffdfd1e <_end+0xfffdad1a>
    4738:	deadbeef          	jal	t4,fffdfd22 <_end+0xfffdad1e>
    473c:	deadbeef          	jal	t4,fffdfd26 <_end+0xfffdad22>
    4740:	deadbeef          	jal	t4,fffdfd2a <_end+0xfffdad26>
    4744:	deadbeef          	jal	t4,fffdfd2e <_end+0xfffdad2a>
    4748:	deadbeef          	jal	t4,fffdfd32 <_end+0xfffdad2e>
    474c:	deadbeef          	jal	t4,fffdfd36 <_end+0xfffdad32>
    4750:	deadbeef          	jal	t4,fffdfd3a <_end+0xfffdad36>
    4754:	deadbeef          	jal	t4,fffdfd3e <_end+0xfffdad3a>
    4758:	deadbeef          	jal	t4,fffdfd42 <_end+0xfffdad3e>
    475c:	deadbeef          	jal	t4,fffdfd46 <_end+0xfffdad42>
    4760:	deadbeef          	jal	t4,fffdfd4a <_end+0xfffdad46>
    4764:	deadbeef          	jal	t4,fffdfd4e <_end+0xfffdad4a>
    4768:	deadbeef          	jal	t4,fffdfd52 <_end+0xfffdad4e>
    476c:	deadbeef          	jal	t4,fffdfd56 <_end+0xfffdad52>
    4770:	deadbeef          	jal	t4,fffdfd5a <_end+0xfffdad56>
    4774:	deadbeef          	jal	t4,fffdfd5e <_end+0xfffdad5a>
    4778:	deadbeef          	jal	t4,fffdfd62 <_end+0xfffdad5e>
    477c:	deadbeef          	jal	t4,fffdfd66 <_end+0xfffdad62>
    4780:	deadbeef          	jal	t4,fffdfd6a <_end+0xfffdad66>
    4784:	deadbeef          	jal	t4,fffdfd6e <_end+0xfffdad6a>
    4788:	deadbeef          	jal	t4,fffdfd72 <_end+0xfffdad6e>
    478c:	deadbeef          	jal	t4,fffdfd76 <_end+0xfffdad72>
    4790:	deadbeef          	jal	t4,fffdfd7a <_end+0xfffdad76>
    4794:	deadbeef          	jal	t4,fffdfd7e <_end+0xfffdad7a>
    4798:	deadbeef          	jal	t4,fffdfd82 <_end+0xfffdad7e>
    479c:	deadbeef          	jal	t4,fffdfd86 <_end+0xfffdad82>
    47a0:	deadbeef          	jal	t4,fffdfd8a <_end+0xfffdad86>
    47a4:	deadbeef          	jal	t4,fffdfd8e <_end+0xfffdad8a>
    47a8:	deadbeef          	jal	t4,fffdfd92 <_end+0xfffdad8e>
    47ac:	deadbeef          	jal	t4,fffdfd96 <_end+0xfffdad92>
    47b0:	deadbeef          	jal	t4,fffdfd9a <_end+0xfffdad96>
    47b4:	deadbeef          	jal	t4,fffdfd9e <_end+0xfffdad9a>
    47b8:	deadbeef          	jal	t4,fffdfda2 <_end+0xfffdad9e>
    47bc:	deadbeef          	jal	t4,fffdfda6 <_end+0xfffdada2>
    47c0:	deadbeef          	jal	t4,fffdfdaa <_end+0xfffdada6>
    47c4:	deadbeef          	jal	t4,fffdfdae <_end+0xfffdadaa>
    47c8:	deadbeef          	jal	t4,fffdfdb2 <_end+0xfffdadae>
    47cc:	deadbeef          	jal	t4,fffdfdb6 <_end+0xfffdadb2>
    47d0:	deadbeef          	jal	t4,fffdfdba <_end+0xfffdadb6>
    47d4:	deadbeef          	jal	t4,fffdfdbe <_end+0xfffdadba>
    47d8:	deadbeef          	jal	t4,fffdfdc2 <_end+0xfffdadbe>
    47dc:	deadbeef          	jal	t4,fffdfdc6 <_end+0xfffdadc2>
    47e0:	deadbeef          	jal	t4,fffdfdca <_end+0xfffdadc6>
    47e4:	deadbeef          	jal	t4,fffdfdce <_end+0xfffdadca>
    47e8:	deadbeef          	jal	t4,fffdfdd2 <_end+0xfffdadce>
    47ec:	deadbeef          	jal	t4,fffdfdd6 <_end+0xfffdadd2>
    47f0:	deadbeef          	jal	t4,fffdfdda <_end+0xfffdadd6>
    47f4:	deadbeef          	jal	t4,fffdfdde <_end+0xfffdadda>
    47f8:	deadbeef          	jal	t4,fffdfde2 <_end+0xfffdadde>
    47fc:	deadbeef          	jal	t4,fffdfde6 <_end+0xfffdade2>
    4800:	deadbeef          	jal	t4,fffdfdea <_end+0xfffdade6>
    4804:	deadbeef          	jal	t4,fffdfdee <_end+0xfffdadea>
    4808:	deadbeef          	jal	t4,fffdfdf2 <_end+0xfffdadee>
    480c:	deadbeef          	jal	t4,fffdfdf6 <_end+0xfffdadf2>
    4810:	deadbeef          	jal	t4,fffdfdfa <_end+0xfffdadf6>
    4814:	deadbeef          	jal	t4,fffdfdfe <_end+0xfffdadfa>
    4818:	deadbeef          	jal	t4,fffdfe02 <_end+0xfffdadfe>
    481c:	deadbeef          	jal	t4,fffdfe06 <_end+0xfffdae02>
    4820:	deadbeef          	jal	t4,fffdfe0a <_end+0xfffdae06>
    4824:	deadbeef          	jal	t4,fffdfe0e <_end+0xfffdae0a>
    4828:	deadbeef          	jal	t4,fffdfe12 <_end+0xfffdae0e>
    482c:	deadbeef          	jal	t4,fffdfe16 <_end+0xfffdae12>
    4830:	deadbeef          	jal	t4,fffdfe1a <_end+0xfffdae16>
    4834:	deadbeef          	jal	t4,fffdfe1e <_end+0xfffdae1a>
    4838:	deadbeef          	jal	t4,fffdfe22 <_end+0xfffdae1e>
    483c:	deadbeef          	jal	t4,fffdfe26 <_end+0xfffdae22>
    4840:	deadbeef          	jal	t4,fffdfe2a <_end+0xfffdae26>
    4844:	deadbeef          	jal	t4,fffdfe2e <_end+0xfffdae2a>
    4848:	deadbeef          	jal	t4,fffdfe32 <_end+0xfffdae2e>
    484c:	deadbeef          	jal	t4,fffdfe36 <_end+0xfffdae32>
    4850:	deadbeef          	jal	t4,fffdfe3a <_end+0xfffdae36>
    4854:	deadbeef          	jal	t4,fffdfe3e <_end+0xfffdae3a>
    4858:	deadbeef          	jal	t4,fffdfe42 <_end+0xfffdae3e>

0000485c <signature_x2_1>:
    485c:	deadbeef          	jal	t4,fffdfe46 <_end+0xfffdae42>
    4860:	deadbeef          	jal	t4,fffdfe4a <_end+0xfffdae46>
    4864:	deadbeef          	jal	t4,fffdfe4e <_end+0xfffdae4a>
    4868:	deadbeef          	jal	t4,fffdfe52 <_end+0xfffdae4e>
    486c:	deadbeef          	jal	t4,fffdfe56 <_end+0xfffdae52>
    4870:	deadbeef          	jal	t4,fffdfe5a <_end+0xfffdae56>
    4874:	deadbeef          	jal	t4,fffdfe5e <_end+0xfffdae5a>
    4878:	deadbeef          	jal	t4,fffdfe62 <_end+0xfffdae5e>
    487c:	deadbeef          	jal	t4,fffdfe66 <_end+0xfffdae62>
    4880:	deadbeef          	jal	t4,fffdfe6a <_end+0xfffdae66>
    4884:	deadbeef          	jal	t4,fffdfe6e <_end+0xfffdae6a>
    4888:	deadbeef          	jal	t4,fffdfe72 <_end+0xfffdae6e>
    488c:	deadbeef          	jal	t4,fffdfe76 <_end+0xfffdae72>
    4890:	deadbeef          	jal	t4,fffdfe7a <_end+0xfffdae76>
    4894:	deadbeef          	jal	t4,fffdfe7e <_end+0xfffdae7a>
    4898:	deadbeef          	jal	t4,fffdfe82 <_end+0xfffdae7e>
    489c:	deadbeef          	jal	t4,fffdfe86 <_end+0xfffdae82>
    48a0:	deadbeef          	jal	t4,fffdfe8a <_end+0xfffdae86>
    48a4:	deadbeef          	jal	t4,fffdfe8e <_end+0xfffdae8a>
    48a8:	deadbeef          	jal	t4,fffdfe92 <_end+0xfffdae8e>
    48ac:	deadbeef          	jal	t4,fffdfe96 <_end+0xfffdae92>
    48b0:	deadbeef          	jal	t4,fffdfe9a <_end+0xfffdae96>
    48b4:	deadbeef          	jal	t4,fffdfe9e <_end+0xfffdae9a>
    48b8:	deadbeef          	jal	t4,fffdfea2 <_end+0xfffdae9e>
    48bc:	deadbeef          	jal	t4,fffdfea6 <_end+0xfffdaea2>
    48c0:	deadbeef          	jal	t4,fffdfeaa <_end+0xfffdaea6>
    48c4:	deadbeef          	jal	t4,fffdfeae <_end+0xfffdaeaa>
    48c8:	deadbeef          	jal	t4,fffdfeb2 <_end+0xfffdaeae>
    48cc:	deadbeef          	jal	t4,fffdfeb6 <_end+0xfffdaeb2>
    48d0:	deadbeef          	jal	t4,fffdfeba <_end+0xfffdaeb6>
    48d4:	deadbeef          	jal	t4,fffdfebe <_end+0xfffdaeba>
	...

Disassembly of section .tohost:

00005000 <tohost>:
    5000:	0000                	unimp
	...

Disassembly of section .riscv.attributes:

00000000 <.riscv.attributes>:
   0:	1941                	addi	s2,s2,-16
   2:	0000                	unimp
   4:	7200                	flw	fs0,32(a2)
   6:	7369                	lui	t1,0xffffa
   8:	01007663          	bgeu	zero,a6,14 <offset-0x68>
   c:	0000000f          	fence	unknown,unknown
  10:	7205                	lui	tp,0xfffe1
  12:	3376                	fld	ft6,376(sp)
  14:	6932                	flw	fs2,12(sp)
  16:	7032                	flw	ft0,44(sp)
  18:	0030                	addi	a2,sp,8

Disassembly of section .debug_line:

00000000 <.debug_line>:
   0:	0dbe                	slli	s11,s11,0xf
   2:	0000                	unimp
   4:	00640003          	lb	zero,6(s0)
   8:	0000                	unimp
   a:	0101                	addi	sp,sp,0
   c:	000d0efb          	0xd0efb
  10:	0101                	addi	sp,sp,0
  12:	0101                	addi	sp,sp,0
  14:	0000                	unimp
  16:	0100                	addi	s0,sp,128
  18:	0000                	unimp
  1a:	2f01                	jal	72a <offset+0x6ae>
  1c:	6f68                	flw	fa0,92(a4)
  1e:	656d                	lui	a0,0x1b
  20:	6769742f          	0x6769742f
  24:	7265                	lui	tp,0xffff9
  26:	7439                	lui	s0,0xfffee
  28:	2f75                	jal	7e4 <offset+0x768>
  2a:	6f74                	flw	fa3,92(a4)
  2c:	2f736c6f          	jal	s8,36b22 <_end+0x31b1e>
  30:	6972                	flw	fs2,28(sp)
  32:	2d766373          	csrrsi	t1,0x2d7,12
  36:	7261                	lui	tp,0xffff8
  38:	742d6863          	bltu	s10,sp,788 <offset+0x70c>
  3c:	7365                	lui	t1,0xffff9
  3e:	2f74                	fld	fa3,216(a4)
  40:	6972                	flw	fs2,28(sp)
  42:	2d766373          	csrrsi	t1,0x2d7,12
  46:	6574                	flw	fa3,76(a0)
  48:	732d7473          	csrrci	s0,0x732,26
  4c:	6975                	lui	s2,0x1d
  4e:	6574                	flw	fa3,76(a0)
  50:	3376722f          	0x3376722f
  54:	6932                	flw	fs2,12(sp)
  56:	6d5f 492f 732f      	0x732f492f6d5f
  5c:	6372                	flw	ft6,28(sp)
  5e:	0000                	unimp
  60:	6e61                	lui	t3,0x18
  62:	6964                	flw	fs1,84(a0)
  64:	302d                	jal	fffff88e <_end+0xffffa88a>
  66:	2e31                	jal	382 <offset+0x306>
  68:	00010053          	fadd.s	ft0,ft2,ft0,rne
  6c:	0000                	unimp
  6e:	0500                	addi	s0,sp,640
  70:	0002                	c.slli64	zero
  72:	0010                	0x10
  74:	0300                	addi	s0,sp,384
  76:	0119                	addi	sp,sp,6
  78:	f8090603          	lb	a2,-128(s2) # 1cf80 <_end+0x17f7c>
  7c:	0100                	addi	s0,sp,128
  7e:	08090503          	lb	a0,128(s2)
  82:	0100                	addi	s0,sp,128
  84:	0c090503          	lb	a0,192(s2)
  88:	0100                	addi	s0,sp,128
  8a:	10090503          	lb	a0,256(s2)
  8e:	0100                	addi	s0,sp,128
  90:	10090503          	lb	a0,256(s2)
  94:	0100                	addi	s0,sp,128
  96:	10090503          	lb	a0,256(s2)
  9a:	0100                	addi	s0,sp,128
  9c:	0c090503          	lb	a0,192(s2)
  a0:	0100                	addi	s0,sp,128
  a2:	0c090503          	lb	a0,192(s2)
  a6:	0100                	addi	s0,sp,128
  a8:	10090503          	lb	a0,256(s2)
  ac:	0100                	addi	s0,sp,128
  ae:	0c090503          	lb	a0,192(s2)
  b2:	0100                	addi	s0,sp,128
  b4:	0c090503          	lb	a0,192(s2)
  b8:	0100                	addi	s0,sp,128
  ba:	10090503          	lb	a0,256(s2)
  be:	0100                	addi	s0,sp,128
  c0:	0c090503          	lb	a0,192(s2)
  c4:	0100                	addi	s0,sp,128
  c6:	10090503          	lb	a0,256(s2)
  ca:	0100                	addi	s0,sp,128
  cc:	0c090503          	lb	a0,192(s2)
  d0:	0100                	addi	s0,sp,128
  d2:	0c090503          	lb	a0,192(s2)
  d6:	0100                	addi	s0,sp,128
  d8:	0c090503          	lb	a0,192(s2)
  dc:	0100                	addi	s0,sp,128
  de:	0c090503          	lb	a0,192(s2)
  e2:	0100                	addi	s0,sp,128
  e4:	10090503          	lb	a0,256(s2)
  e8:	0100                	addi	s0,sp,128
  ea:	0c090503          	lb	a0,192(s2)
  ee:	0100                	addi	s0,sp,128
  f0:	10090103          	lb	sp,256(s2)
  f4:	0100                	addi	s0,sp,128
  f6:	08090503          	lb	a0,128(s2)
  fa:	0100                	addi	s0,sp,128
  fc:	10090503          	lb	a0,256(s2)
 100:	0100                	addi	s0,sp,128
 102:	0c090503          	lb	a0,192(s2)
 106:	0100                	addi	s0,sp,128
 108:	0c090503          	lb	a0,192(s2)
 10c:	0100                	addi	s0,sp,128
 10e:	0c090503          	lb	a0,192(s2)
 112:	0100                	addi	s0,sp,128
 114:	0c090503          	lb	a0,192(s2)
 118:	0100                	addi	s0,sp,128
 11a:	0c090503          	lb	a0,192(s2)
 11e:	0100                	addi	s0,sp,128
 120:	0c090503          	lb	a0,192(s2)
 124:	0100                	addi	s0,sp,128
 126:	10090503          	lb	a0,256(s2)
 12a:	0100                	addi	s0,sp,128
 12c:	10090503          	lb	a0,256(s2)
 130:	0100                	addi	s0,sp,128
 132:	0c090503          	lb	a0,192(s2)
 136:	0100                	addi	s0,sp,128
 138:	10090503          	lb	a0,256(s2)
 13c:	0100                	addi	s0,sp,128
 13e:	0c090503          	lb	a0,192(s2)
 142:	0100                	addi	s0,sp,128
 144:	0c090503          	lb	a0,192(s2)
 148:	0100                	addi	s0,sp,128
 14a:	0c090503          	lb	a0,192(s2)
 14e:	0100                	addi	s0,sp,128
 150:	0c090503          	lb	a0,192(s2)
 154:	0100                	addi	s0,sp,128
 156:	0c090503          	lb	a0,192(s2)
 15a:	0100                	addi	s0,sp,128
 15c:	0c090503          	lb	a0,192(s2)
 160:	0100                	addi	s0,sp,128
 162:	0c090503          	lb	a0,192(s2)
 166:	0100                	addi	s0,sp,128
 168:	10090503          	lb	a0,256(s2)
 16c:	0100                	addi	s0,sp,128
 16e:	0c090503          	lb	a0,192(s2)
 172:	0100                	addi	s0,sp,128
 174:	0c090503          	lb	a0,192(s2)
 178:	0100                	addi	s0,sp,128
 17a:	0c090503          	lb	a0,192(s2)
 17e:	0100                	addi	s0,sp,128
 180:	0c090503          	lb	a0,192(s2)
 184:	0100                	addi	s0,sp,128
 186:	0c090503          	lb	a0,192(s2)
 18a:	0100                	addi	s0,sp,128
 18c:	0c090503          	lb	a0,192(s2)
 190:	0100                	addi	s0,sp,128
 192:	0c090503          	lb	a0,192(s2)
 196:	0100                	addi	s0,sp,128
 198:	0c090503          	lb	a0,192(s2)
 19c:	0100                	addi	s0,sp,128
 19e:	0c090503          	lb	a0,192(s2)
 1a2:	0100                	addi	s0,sp,128
 1a4:	0c090503          	lb	a0,192(s2)
 1a8:	0100                	addi	s0,sp,128
 1aa:	0c090503          	lb	a0,192(s2)
 1ae:	0100                	addi	s0,sp,128
 1b0:	0c090503          	lb	a0,192(s2)
 1b4:	0100                	addi	s0,sp,128
 1b6:	0c090503          	lb	a0,192(s2)
 1ba:	0100                	addi	s0,sp,128
 1bc:	0c090503          	lb	a0,192(s2)
 1c0:	0100                	addi	s0,sp,128
 1c2:	0c090503          	lb	a0,192(s2)
 1c6:	0100                	addi	s0,sp,128
 1c8:	0c090503          	lb	a0,192(s2)
 1cc:	0100                	addi	s0,sp,128
 1ce:	0c090503          	lb	a0,192(s2)
 1d2:	0100                	addi	s0,sp,128
 1d4:	0c090503          	lb	a0,192(s2)
 1d8:	0100                	addi	s0,sp,128
 1da:	0c090503          	lb	a0,192(s2)
 1de:	0100                	addi	s0,sp,128
 1e0:	0c090503          	lb	a0,192(s2)
 1e4:	0100                	addi	s0,sp,128
 1e6:	0c090503          	lb	a0,192(s2)
 1ea:	0100                	addi	s0,sp,128
 1ec:	0c090503          	lb	a0,192(s2)
 1f0:	0100                	addi	s0,sp,128
 1f2:	0c090503          	lb	a0,192(s2)
 1f6:	0100                	addi	s0,sp,128
 1f8:	10090503          	lb	a0,256(s2)
 1fc:	0100                	addi	s0,sp,128
 1fe:	10090503          	lb	a0,256(s2)
 202:	0100                	addi	s0,sp,128
 204:	10090503          	lb	a0,256(s2)
 208:	0100                	addi	s0,sp,128
 20a:	10090503          	lb	a0,256(s2)
 20e:	0100                	addi	s0,sp,128
 210:	10090503          	lb	a0,256(s2)
 214:	0100                	addi	s0,sp,128
 216:	10090503          	lb	a0,256(s2)
 21a:	0100                	addi	s0,sp,128
 21c:	10090503          	lb	a0,256(s2)
 220:	0100                	addi	s0,sp,128
 222:	10090503          	lb	a0,256(s2)
 226:	0100                	addi	s0,sp,128
 228:	10090503          	lb	a0,256(s2)
 22c:	0100                	addi	s0,sp,128
 22e:	10090503          	lb	a0,256(s2)
 232:	0100                	addi	s0,sp,128
 234:	10090503          	lb	a0,256(s2)
 238:	0100                	addi	s0,sp,128
 23a:	10090503          	lb	a0,256(s2)
 23e:	0100                	addi	s0,sp,128
 240:	10090503          	lb	a0,256(s2)
 244:	0100                	addi	s0,sp,128
 246:	10090503          	lb	a0,256(s2)
 24a:	0100                	addi	s0,sp,128
 24c:	10090503          	lb	a0,256(s2)
 250:	0100                	addi	s0,sp,128
 252:	10090503          	lb	a0,256(s2)
 256:	0100                	addi	s0,sp,128
 258:	0c090503          	lb	a0,192(s2)
 25c:	0100                	addi	s0,sp,128
 25e:	0c090503          	lb	a0,192(s2)
 262:	0100                	addi	s0,sp,128
 264:	0c090503          	lb	a0,192(s2)
 268:	0100                	addi	s0,sp,128
 26a:	0c090503          	lb	a0,192(s2)
 26e:	0100                	addi	s0,sp,128
 270:	0c090503          	lb	a0,192(s2)
 274:	0100                	addi	s0,sp,128
 276:	0c090503          	lb	a0,192(s2)
 27a:	0100                	addi	s0,sp,128
 27c:	0c090503          	lb	a0,192(s2)
 280:	0100                	addi	s0,sp,128
 282:	0c090503          	lb	a0,192(s2)
 286:	0100                	addi	s0,sp,128
 288:	0c090503          	lb	a0,192(s2)
 28c:	0100                	addi	s0,sp,128
 28e:	0c090503          	lb	a0,192(s2)
 292:	0100                	addi	s0,sp,128
 294:	0c090503          	lb	a0,192(s2)
 298:	0100                	addi	s0,sp,128
 29a:	0c090503          	lb	a0,192(s2)
 29e:	0100                	addi	s0,sp,128
 2a0:	0c090503          	lb	a0,192(s2)
 2a4:	0100                	addi	s0,sp,128
 2a6:	0c090503          	lb	a0,192(s2)
 2aa:	0100                	addi	s0,sp,128
 2ac:	0c090503          	lb	a0,192(s2)
 2b0:	0100                	addi	s0,sp,128
 2b2:	0c090503          	lb	a0,192(s2)
 2b6:	0100                	addi	s0,sp,128
 2b8:	0c090503          	lb	a0,192(s2)
 2bc:	0100                	addi	s0,sp,128
 2be:	0c090503          	lb	a0,192(s2)
 2c2:	0100                	addi	s0,sp,128
 2c4:	0c090503          	lb	a0,192(s2)
 2c8:	0100                	addi	s0,sp,128
 2ca:	0c090503          	lb	a0,192(s2)
 2ce:	0100                	addi	s0,sp,128
 2d0:	0c090503          	lb	a0,192(s2)
 2d4:	0100                	addi	s0,sp,128
 2d6:	0c090503          	lb	a0,192(s2)
 2da:	0100                	addi	s0,sp,128
 2dc:	10090503          	lb	a0,256(s2)
 2e0:	0100                	addi	s0,sp,128
 2e2:	10090503          	lb	a0,256(s2)
 2e6:	0100                	addi	s0,sp,128
 2e8:	10090503          	lb	a0,256(s2)
 2ec:	0100                	addi	s0,sp,128
 2ee:	10090503          	lb	a0,256(s2)
 2f2:	0100                	addi	s0,sp,128
 2f4:	10090503          	lb	a0,256(s2)
 2f8:	0100                	addi	s0,sp,128
 2fa:	10090503          	lb	a0,256(s2)
 2fe:	0100                	addi	s0,sp,128
 300:	10090503          	lb	a0,256(s2)
 304:	0100                	addi	s0,sp,128
 306:	10090503          	lb	a0,256(s2)
 30a:	0100                	addi	s0,sp,128
 30c:	10090503          	lb	a0,256(s2)
 310:	0100                	addi	s0,sp,128
 312:	10090503          	lb	a0,256(s2)
 316:	0100                	addi	s0,sp,128
 318:	10090503          	lb	a0,256(s2)
 31c:	0100                	addi	s0,sp,128
 31e:	10090503          	lb	a0,256(s2)
 322:	0100                	addi	s0,sp,128
 324:	10090503          	lb	a0,256(s2)
 328:	0100                	addi	s0,sp,128
 32a:	10090503          	lb	a0,256(s2)
 32e:	0100                	addi	s0,sp,128
 330:	10090503          	lb	a0,256(s2)
 334:	0100                	addi	s0,sp,128
 336:	10090503          	lb	a0,256(s2)
 33a:	0100                	addi	s0,sp,128
 33c:	10090503          	lb	a0,256(s2)
 340:	0100                	addi	s0,sp,128
 342:	10090503          	lb	a0,256(s2)
 346:	0100                	addi	s0,sp,128
 348:	10090503          	lb	a0,256(s2)
 34c:	0100                	addi	s0,sp,128
 34e:	10090503          	lb	a0,256(s2)
 352:	0100                	addi	s0,sp,128
 354:	10090503          	lb	a0,256(s2)
 358:	0100                	addi	s0,sp,128
 35a:	10090503          	lb	a0,256(s2)
 35e:	0100                	addi	s0,sp,128
 360:	10090503          	lb	a0,256(s2)
 364:	0100                	addi	s0,sp,128
 366:	10090503          	lb	a0,256(s2)
 36a:	0100                	addi	s0,sp,128
 36c:	10090503          	lb	a0,256(s2)
 370:	0100                	addi	s0,sp,128
 372:	10090503          	lb	a0,256(s2)
 376:	0100                	addi	s0,sp,128
 378:	10090503          	lb	a0,256(s2)
 37c:	0100                	addi	s0,sp,128
 37e:	10090503          	lb	a0,256(s2)
 382:	0100                	addi	s0,sp,128
 384:	10090503          	lb	a0,256(s2)
 388:	0100                	addi	s0,sp,128
 38a:	10090503          	lb	a0,256(s2)
 38e:	0100                	addi	s0,sp,128
 390:	10090503          	lb	a0,256(s2)
 394:	0100                	addi	s0,sp,128
 396:	10090503          	lb	a0,256(s2)
 39a:	0100                	addi	s0,sp,128
 39c:	10090503          	lb	a0,256(s2)
 3a0:	0100                	addi	s0,sp,128
 3a2:	10090503          	lb	a0,256(s2)
 3a6:	0100                	addi	s0,sp,128
 3a8:	10090503          	lb	a0,256(s2)
 3ac:	0100                	addi	s0,sp,128
 3ae:	10090503          	lb	a0,256(s2)
 3b2:	0100                	addi	s0,sp,128
 3b4:	10090503          	lb	a0,256(s2)
 3b8:	0100                	addi	s0,sp,128
 3ba:	10090503          	lb	a0,256(s2)
 3be:	0100                	addi	s0,sp,128
 3c0:	10090503          	lb	a0,256(s2)
 3c4:	0100                	addi	s0,sp,128
 3c6:	10090503          	lb	a0,256(s2)
 3ca:	0100                	addi	s0,sp,128
 3cc:	10090503          	lb	a0,256(s2)
 3d0:	0100                	addi	s0,sp,128
 3d2:	10090503          	lb	a0,256(s2)
 3d6:	0100                	addi	s0,sp,128
 3d8:	10090503          	lb	a0,256(s2)
 3dc:	0100                	addi	s0,sp,128
 3de:	10090503          	lb	a0,256(s2)
 3e2:	0100                	addi	s0,sp,128
 3e4:	0c090503          	lb	a0,192(s2)
 3e8:	0100                	addi	s0,sp,128
 3ea:	0c090503          	lb	a0,192(s2)
 3ee:	0100                	addi	s0,sp,128
 3f0:	0c090503          	lb	a0,192(s2)
 3f4:	0100                	addi	s0,sp,128
 3f6:	0c090503          	lb	a0,192(s2)
 3fa:	0100                	addi	s0,sp,128
 3fc:	0c090503          	lb	a0,192(s2)
 400:	0100                	addi	s0,sp,128
 402:	0c090503          	lb	a0,192(s2)
 406:	0100                	addi	s0,sp,128
 408:	0c090503          	lb	a0,192(s2)
 40c:	0100                	addi	s0,sp,128
 40e:	0c090503          	lb	a0,192(s2)
 412:	0100                	addi	s0,sp,128
 414:	0c090503          	lb	a0,192(s2)
 418:	0100                	addi	s0,sp,128
 41a:	0c090503          	lb	a0,192(s2)
 41e:	0100                	addi	s0,sp,128
 420:	0c090503          	lb	a0,192(s2)
 424:	0100                	addi	s0,sp,128
 426:	0c090503          	lb	a0,192(s2)
 42a:	0100                	addi	s0,sp,128
 42c:	0c090503          	lb	a0,192(s2)
 430:	0100                	addi	s0,sp,128
 432:	0c090503          	lb	a0,192(s2)
 436:	0100                	addi	s0,sp,128
 438:	0c090503          	lb	a0,192(s2)
 43c:	0100                	addi	s0,sp,128
 43e:	0c090503          	lb	a0,192(s2)
 442:	0100                	addi	s0,sp,128
 444:	0c090503          	lb	a0,192(s2)
 448:	0100                	addi	s0,sp,128
 44a:	0c090503          	lb	a0,192(s2)
 44e:	0100                	addi	s0,sp,128
 450:	0c090503          	lb	a0,192(s2)
 454:	0100                	addi	s0,sp,128
 456:	0c090503          	lb	a0,192(s2)
 45a:	0100                	addi	s0,sp,128
 45c:	0c090503          	lb	a0,192(s2)
 460:	0100                	addi	s0,sp,128
 462:	0c090503          	lb	a0,192(s2)
 466:	0100                	addi	s0,sp,128
 468:	10090503          	lb	a0,256(s2)
 46c:	0100                	addi	s0,sp,128
 46e:	10090503          	lb	a0,256(s2)
 472:	0100                	addi	s0,sp,128
 474:	10090503          	lb	a0,256(s2)
 478:	0100                	addi	s0,sp,128
 47a:	10090503          	lb	a0,256(s2)
 47e:	0100                	addi	s0,sp,128
 480:	10090503          	lb	a0,256(s2)
 484:	0100                	addi	s0,sp,128
 486:	10090503          	lb	a0,256(s2)
 48a:	0100                	addi	s0,sp,128
 48c:	10090503          	lb	a0,256(s2)
 490:	0100                	addi	s0,sp,128
 492:	10090503          	lb	a0,256(s2)
 496:	0100                	addi	s0,sp,128
 498:	10090503          	lb	a0,256(s2)
 49c:	0100                	addi	s0,sp,128
 49e:	10090503          	lb	a0,256(s2)
 4a2:	0100                	addi	s0,sp,128
 4a4:	10090503          	lb	a0,256(s2)
 4a8:	0100                	addi	s0,sp,128
 4aa:	10090503          	lb	a0,256(s2)
 4ae:	0100                	addi	s0,sp,128
 4b0:	10090503          	lb	a0,256(s2)
 4b4:	0100                	addi	s0,sp,128
 4b6:	10090503          	lb	a0,256(s2)
 4ba:	0100                	addi	s0,sp,128
 4bc:	10090503          	lb	a0,256(s2)
 4c0:	0100                	addi	s0,sp,128
 4c2:	10090503          	lb	a0,256(s2)
 4c6:	0100                	addi	s0,sp,128
 4c8:	10090503          	lb	a0,256(s2)
 4cc:	0100                	addi	s0,sp,128
 4ce:	10090503          	lb	a0,256(s2)
 4d2:	0100                	addi	s0,sp,128
 4d4:	10090503          	lb	a0,256(s2)
 4d8:	0100                	addi	s0,sp,128
 4da:	10090503          	lb	a0,256(s2)
 4de:	0100                	addi	s0,sp,128
 4e0:	10090503          	lb	a0,256(s2)
 4e4:	0100                	addi	s0,sp,128
 4e6:	10090503          	lb	a0,256(s2)
 4ea:	0100                	addi	s0,sp,128
 4ec:	10090503          	lb	a0,256(s2)
 4f0:	0100                	addi	s0,sp,128
 4f2:	10090503          	lb	a0,256(s2)
 4f6:	0100                	addi	s0,sp,128
 4f8:	10090503          	lb	a0,256(s2)
 4fc:	0100                	addi	s0,sp,128
 4fe:	10090503          	lb	a0,256(s2)
 502:	0100                	addi	s0,sp,128
 504:	10090503          	lb	a0,256(s2)
 508:	0100                	addi	s0,sp,128
 50a:	10090503          	lb	a0,256(s2)
 50e:	0100                	addi	s0,sp,128
 510:	10090503          	lb	a0,256(s2)
 514:	0100                	addi	s0,sp,128
 516:	10090503          	lb	a0,256(s2)
 51a:	0100                	addi	s0,sp,128
 51c:	10090503          	lb	a0,256(s2)
 520:	0100                	addi	s0,sp,128
 522:	10090503          	lb	a0,256(s2)
 526:	0100                	addi	s0,sp,128
 528:	10090503          	lb	a0,256(s2)
 52c:	0100                	addi	s0,sp,128
 52e:	10090503          	lb	a0,256(s2)
 532:	0100                	addi	s0,sp,128
 534:	10090503          	lb	a0,256(s2)
 538:	0100                	addi	s0,sp,128
 53a:	10090503          	lb	a0,256(s2)
 53e:	0100                	addi	s0,sp,128
 540:	10090503          	lb	a0,256(s2)
 544:	0100                	addi	s0,sp,128
 546:	10090503          	lb	a0,256(s2)
 54a:	0100                	addi	s0,sp,128
 54c:	10090503          	lb	a0,256(s2)
 550:	0100                	addi	s0,sp,128
 552:	10090503          	lb	a0,256(s2)
 556:	0100                	addi	s0,sp,128
 558:	10090503          	lb	a0,256(s2)
 55c:	0100                	addi	s0,sp,128
 55e:	10090503          	lb	a0,256(s2)
 562:	0100                	addi	s0,sp,128
 564:	10090503          	lb	a0,256(s2)
 568:	0100                	addi	s0,sp,128
 56a:	10090503          	lb	a0,256(s2)
 56e:	0100                	addi	s0,sp,128
 570:	10090503          	lb	a0,256(s2)
 574:	0100                	addi	s0,sp,128
 576:	10090503          	lb	a0,256(s2)
 57a:	0100                	addi	s0,sp,128
 57c:	10090503          	lb	a0,256(s2)
 580:	0100                	addi	s0,sp,128
 582:	10090503          	lb	a0,256(s2)
 586:	0100                	addi	s0,sp,128
 588:	10090503          	lb	a0,256(s2)
 58c:	0100                	addi	s0,sp,128
 58e:	10090503          	lb	a0,256(s2)
 592:	0100                	addi	s0,sp,128
 594:	10090503          	lb	a0,256(s2)
 598:	0100                	addi	s0,sp,128
 59a:	10090503          	lb	a0,256(s2)
 59e:	0100                	addi	s0,sp,128
 5a0:	10090503          	lb	a0,256(s2)
 5a4:	0100                	addi	s0,sp,128
 5a6:	10090503          	lb	a0,256(s2)
 5aa:	0100                	addi	s0,sp,128
 5ac:	10090503          	lb	a0,256(s2)
 5b0:	0100                	addi	s0,sp,128
 5b2:	10090503          	lb	a0,256(s2)
 5b6:	0100                	addi	s0,sp,128
 5b8:	10090503          	lb	a0,256(s2)
 5bc:	0100                	addi	s0,sp,128
 5be:	10090503          	lb	a0,256(s2)
 5c2:	0100                	addi	s0,sp,128
 5c4:	10090503          	lb	a0,256(s2)
 5c8:	0100                	addi	s0,sp,128
 5ca:	10090503          	lb	a0,256(s2)
 5ce:	0100                	addi	s0,sp,128
 5d0:	10090503          	lb	a0,256(s2)
 5d4:	0100                	addi	s0,sp,128
 5d6:	10090503          	lb	a0,256(s2)
 5da:	0100                	addi	s0,sp,128
 5dc:	10090503          	lb	a0,256(s2)
 5e0:	0100                	addi	s0,sp,128
 5e2:	10090503          	lb	a0,256(s2)
 5e6:	0100                	addi	s0,sp,128
 5e8:	10090503          	lb	a0,256(s2)
 5ec:	0100                	addi	s0,sp,128
 5ee:	10090503          	lb	a0,256(s2)
 5f2:	0100                	addi	s0,sp,128
 5f4:	10090503          	lb	a0,256(s2)
 5f8:	0100                	addi	s0,sp,128
 5fa:	10090503          	lb	a0,256(s2)
 5fe:	0100                	addi	s0,sp,128
 600:	10090503          	lb	a0,256(s2)
 604:	0100                	addi	s0,sp,128
 606:	10090503          	lb	a0,256(s2)
 60a:	0100                	addi	s0,sp,128
 60c:	10090503          	lb	a0,256(s2)
 610:	0100                	addi	s0,sp,128
 612:	10090503          	lb	a0,256(s2)
 616:	0100                	addi	s0,sp,128
 618:	10090503          	lb	a0,256(s2)
 61c:	0100                	addi	s0,sp,128
 61e:	10090503          	lb	a0,256(s2)
 622:	0100                	addi	s0,sp,128
 624:	10090503          	lb	a0,256(s2)
 628:	0100                	addi	s0,sp,128
 62a:	10090503          	lb	a0,256(s2)
 62e:	0100                	addi	s0,sp,128
 630:	10090503          	lb	a0,256(s2)
 634:	0100                	addi	s0,sp,128
 636:	10090503          	lb	a0,256(s2)
 63a:	0100                	addi	s0,sp,128
 63c:	10090503          	lb	a0,256(s2)
 640:	0100                	addi	s0,sp,128
 642:	10090503          	lb	a0,256(s2)
 646:	0100                	addi	s0,sp,128
 648:	10090503          	lb	a0,256(s2)
 64c:	0100                	addi	s0,sp,128
 64e:	10090503          	lb	a0,256(s2)
 652:	0100                	addi	s0,sp,128
 654:	10090503          	lb	a0,256(s2)
 658:	0100                	addi	s0,sp,128
 65a:	10090503          	lb	a0,256(s2)
 65e:	0100                	addi	s0,sp,128
 660:	10090503          	lb	a0,256(s2)
 664:	0100                	addi	s0,sp,128
 666:	10090503          	lb	a0,256(s2)
 66a:	0100                	addi	s0,sp,128
 66c:	10090503          	lb	a0,256(s2)
 670:	0100                	addi	s0,sp,128
 672:	10090503          	lb	a0,256(s2)
 676:	0100                	addi	s0,sp,128
 678:	0c090503          	lb	a0,192(s2)
 67c:	0100                	addi	s0,sp,128
 67e:	0c090503          	lb	a0,192(s2)
 682:	0100                	addi	s0,sp,128
 684:	0c090503          	lb	a0,192(s2)
 688:	0100                	addi	s0,sp,128
 68a:	0c090503          	lb	a0,192(s2)
 68e:	0100                	addi	s0,sp,128
 690:	0c090503          	lb	a0,192(s2)
 694:	0100                	addi	s0,sp,128
 696:	0c090503          	lb	a0,192(s2)
 69a:	0100                	addi	s0,sp,128
 69c:	0c090503          	lb	a0,192(s2)
 6a0:	0100                	addi	s0,sp,128
 6a2:	0c090503          	lb	a0,192(s2)
 6a6:	0100                	addi	s0,sp,128
 6a8:	0c090503          	lb	a0,192(s2)
 6ac:	0100                	addi	s0,sp,128
 6ae:	0c090503          	lb	a0,192(s2)
 6b2:	0100                	addi	s0,sp,128
 6b4:	0c090503          	lb	a0,192(s2)
 6b8:	0100                	addi	s0,sp,128
 6ba:	0c090503          	lb	a0,192(s2)
 6be:	0100                	addi	s0,sp,128
 6c0:	0c090503          	lb	a0,192(s2)
 6c4:	0100                	addi	s0,sp,128
 6c6:	0c090503          	lb	a0,192(s2)
 6ca:	0100                	addi	s0,sp,128
 6cc:	0c090503          	lb	a0,192(s2)
 6d0:	0100                	addi	s0,sp,128
 6d2:	0c090503          	lb	a0,192(s2)
 6d6:	0100                	addi	s0,sp,128
 6d8:	0c090503          	lb	a0,192(s2)
 6dc:	0100                	addi	s0,sp,128
 6de:	0c090503          	lb	a0,192(s2)
 6e2:	0100                	addi	s0,sp,128
 6e4:	0c090503          	lb	a0,192(s2)
 6e8:	0100                	addi	s0,sp,128
 6ea:	0c090503          	lb	a0,192(s2)
 6ee:	0100                	addi	s0,sp,128
 6f0:	0c090503          	lb	a0,192(s2)
 6f4:	0100                	addi	s0,sp,128
 6f6:	0c090503          	lb	a0,192(s2)
 6fa:	0100                	addi	s0,sp,128
 6fc:	10090503          	lb	a0,256(s2)
 700:	0100                	addi	s0,sp,128
 702:	10090503          	lb	a0,256(s2)
 706:	0100                	addi	s0,sp,128
 708:	10090503          	lb	a0,256(s2)
 70c:	0100                	addi	s0,sp,128
 70e:	10090503          	lb	a0,256(s2)
 712:	0100                	addi	s0,sp,128
 714:	10090503          	lb	a0,256(s2)
 718:	0100                	addi	s0,sp,128
 71a:	10090503          	lb	a0,256(s2)
 71e:	0100                	addi	s0,sp,128
 720:	10090503          	lb	a0,256(s2)
 724:	0100                	addi	s0,sp,128
 726:	10090503          	lb	a0,256(s2)
 72a:	0100                	addi	s0,sp,128
 72c:	10090503          	lb	a0,256(s2)
 730:	0100                	addi	s0,sp,128
 732:	10090503          	lb	a0,256(s2)
 736:	0100                	addi	s0,sp,128
 738:	10090503          	lb	a0,256(s2)
 73c:	0100                	addi	s0,sp,128
 73e:	10090503          	lb	a0,256(s2)
 742:	0100                	addi	s0,sp,128
 744:	10090503          	lb	a0,256(s2)
 748:	0100                	addi	s0,sp,128
 74a:	10090503          	lb	a0,256(s2)
 74e:	0100                	addi	s0,sp,128
 750:	10090503          	lb	a0,256(s2)
 754:	0100                	addi	s0,sp,128
 756:	10090503          	lb	a0,256(s2)
 75a:	0100                	addi	s0,sp,128
 75c:	10090503          	lb	a0,256(s2)
 760:	0100                	addi	s0,sp,128
 762:	10090503          	lb	a0,256(s2)
 766:	0100                	addi	s0,sp,128
 768:	10090503          	lb	a0,256(s2)
 76c:	0100                	addi	s0,sp,128
 76e:	10090503          	lb	a0,256(s2)
 772:	0100                	addi	s0,sp,128
 774:	10090503          	lb	a0,256(s2)
 778:	0100                	addi	s0,sp,128
 77a:	10090503          	lb	a0,256(s2)
 77e:	0100                	addi	s0,sp,128
 780:	0c090503          	lb	a0,192(s2)
 784:	0100                	addi	s0,sp,128
 786:	0c090503          	lb	a0,192(s2)
 78a:	0100                	addi	s0,sp,128
 78c:	0c090503          	lb	a0,192(s2)
 790:	0100                	addi	s0,sp,128
 792:	0c090503          	lb	a0,192(s2)
 796:	0100                	addi	s0,sp,128
 798:	0c090503          	lb	a0,192(s2)
 79c:	0100                	addi	s0,sp,128
 79e:	0c090503          	lb	a0,192(s2)
 7a2:	0100                	addi	s0,sp,128
 7a4:	0c090503          	lb	a0,192(s2)
 7a8:	0100                	addi	s0,sp,128
 7aa:	0c090503          	lb	a0,192(s2)
 7ae:	0100                	addi	s0,sp,128
 7b0:	10090503          	lb	a0,256(s2)
 7b4:	0100                	addi	s0,sp,128
 7b6:	10090503          	lb	a0,256(s2)
 7ba:	0100                	addi	s0,sp,128
 7bc:	10090503          	lb	a0,256(s2)
 7c0:	0100                	addi	s0,sp,128
 7c2:	10090503          	lb	a0,256(s2)
 7c6:	0100                	addi	s0,sp,128
 7c8:	10090503          	lb	a0,256(s2)
 7cc:	0100                	addi	s0,sp,128
 7ce:	10090503          	lb	a0,256(s2)
 7d2:	0100                	addi	s0,sp,128
 7d4:	10090503          	lb	a0,256(s2)
 7d8:	0100                	addi	s0,sp,128
 7da:	10090503          	lb	a0,256(s2)
 7de:	0100                	addi	s0,sp,128
 7e0:	10090503          	lb	a0,256(s2)
 7e4:	0100                	addi	s0,sp,128
 7e6:	10090503          	lb	a0,256(s2)
 7ea:	0100                	addi	s0,sp,128
 7ec:	10090503          	lb	a0,256(s2)
 7f0:	0100                	addi	s0,sp,128
 7f2:	10090503          	lb	a0,256(s2)
 7f6:	0100                	addi	s0,sp,128
 7f8:	10090503          	lb	a0,256(s2)
 7fc:	0100                	addi	s0,sp,128
 7fe:	10090503          	lb	a0,256(s2)
 802:	0100                	addi	s0,sp,128
 804:	10090503          	lb	a0,256(s2)
 808:	0100                	addi	s0,sp,128
 80a:	10090503          	lb	a0,256(s2)
 80e:	0100                	addi	s0,sp,128
 810:	10090503          	lb	a0,256(s2)
 814:	0100                	addi	s0,sp,128
 816:	10090503          	lb	a0,256(s2)
 81a:	0100                	addi	s0,sp,128
 81c:	10090503          	lb	a0,256(s2)
 820:	0100                	addi	s0,sp,128
 822:	10090503          	lb	a0,256(s2)
 826:	0100                	addi	s0,sp,128
 828:	10090503          	lb	a0,256(s2)
 82c:	0100                	addi	s0,sp,128
 82e:	10090503          	lb	a0,256(s2)
 832:	0100                	addi	s0,sp,128
 834:	10090503          	lb	a0,256(s2)
 838:	0100                	addi	s0,sp,128
 83a:	10090503          	lb	a0,256(s2)
 83e:	0100                	addi	s0,sp,128
 840:	10090503          	lb	a0,256(s2)
 844:	0100                	addi	s0,sp,128
 846:	10090503          	lb	a0,256(s2)
 84a:	0100                	addi	s0,sp,128
 84c:	10090503          	lb	a0,256(s2)
 850:	0100                	addi	s0,sp,128
 852:	10090503          	lb	a0,256(s2)
 856:	0100                	addi	s0,sp,128
 858:	10090503          	lb	a0,256(s2)
 85c:	0100                	addi	s0,sp,128
 85e:	10090503          	lb	a0,256(s2)
 862:	0100                	addi	s0,sp,128
 864:	10090503          	lb	a0,256(s2)
 868:	0100                	addi	s0,sp,128
 86a:	10090503          	lb	a0,256(s2)
 86e:	0100                	addi	s0,sp,128
 870:	10090503          	lb	a0,256(s2)
 874:	0100                	addi	s0,sp,128
 876:	10090503          	lb	a0,256(s2)
 87a:	0100                	addi	s0,sp,128
 87c:	10090503          	lb	a0,256(s2)
 880:	0100                	addi	s0,sp,128
 882:	10090503          	lb	a0,256(s2)
 886:	0100                	addi	s0,sp,128
 888:	10090503          	lb	a0,256(s2)
 88c:	0100                	addi	s0,sp,128
 88e:	10090503          	lb	a0,256(s2)
 892:	0100                	addi	s0,sp,128
 894:	10090503          	lb	a0,256(s2)
 898:	0100                	addi	s0,sp,128
 89a:	10090503          	lb	a0,256(s2)
 89e:	0100                	addi	s0,sp,128
 8a0:	10090503          	lb	a0,256(s2)
 8a4:	0100                	addi	s0,sp,128
 8a6:	10090503          	lb	a0,256(s2)
 8aa:	0100                	addi	s0,sp,128
 8ac:	10090503          	lb	a0,256(s2)
 8b0:	0100                	addi	s0,sp,128
 8b2:	10090503          	lb	a0,256(s2)
 8b6:	0100                	addi	s0,sp,128
 8b8:	10090503          	lb	a0,256(s2)
 8bc:	0100                	addi	s0,sp,128
 8be:	10090503          	lb	a0,256(s2)
 8c2:	0100                	addi	s0,sp,128
 8c4:	10090503          	lb	a0,256(s2)
 8c8:	0100                	addi	s0,sp,128
 8ca:	10090503          	lb	a0,256(s2)
 8ce:	0100                	addi	s0,sp,128
 8d0:	10090503          	lb	a0,256(s2)
 8d4:	0100                	addi	s0,sp,128
 8d6:	10090503          	lb	a0,256(s2)
 8da:	0100                	addi	s0,sp,128
 8dc:	10090503          	lb	a0,256(s2)
 8e0:	0100                	addi	s0,sp,128
 8e2:	10090503          	lb	a0,256(s2)
 8e6:	0100                	addi	s0,sp,128
 8e8:	10090503          	lb	a0,256(s2)
 8ec:	0100                	addi	s0,sp,128
 8ee:	10090503          	lb	a0,256(s2)
 8f2:	0100                	addi	s0,sp,128
 8f4:	10090503          	lb	a0,256(s2)
 8f8:	0100                	addi	s0,sp,128
 8fa:	10090503          	lb	a0,256(s2)
 8fe:	0100                	addi	s0,sp,128
 900:	10090503          	lb	a0,256(s2)
 904:	0100                	addi	s0,sp,128
 906:	10090503          	lb	a0,256(s2)
 90a:	0100                	addi	s0,sp,128
 90c:	10090503          	lb	a0,256(s2)
 910:	0100                	addi	s0,sp,128
 912:	10090503          	lb	a0,256(s2)
 916:	0100                	addi	s0,sp,128
 918:	10090503          	lb	a0,256(s2)
 91c:	0100                	addi	s0,sp,128
 91e:	10090503          	lb	a0,256(s2)
 922:	0100                	addi	s0,sp,128
 924:	10090503          	lb	a0,256(s2)
 928:	0100                	addi	s0,sp,128
 92a:	10090503          	lb	a0,256(s2)
 92e:	0100                	addi	s0,sp,128
 930:	10090503          	lb	a0,256(s2)
 934:	0100                	addi	s0,sp,128
 936:	10090503          	lb	a0,256(s2)
 93a:	0100                	addi	s0,sp,128
 93c:	10090503          	lb	a0,256(s2)
 940:	0100                	addi	s0,sp,128
 942:	10090503          	lb	a0,256(s2)
 946:	0100                	addi	s0,sp,128
 948:	10090503          	lb	a0,256(s2)
 94c:	0100                	addi	s0,sp,128
 94e:	10090503          	lb	a0,256(s2)
 952:	0100                	addi	s0,sp,128
 954:	10090503          	lb	a0,256(s2)
 958:	0100                	addi	s0,sp,128
 95a:	10090503          	lb	a0,256(s2)
 95e:	0100                	addi	s0,sp,128
 960:	10090503          	lb	a0,256(s2)
 964:	0100                	addi	s0,sp,128
 966:	10090503          	lb	a0,256(s2)
 96a:	0100                	addi	s0,sp,128
 96c:	10090503          	lb	a0,256(s2)
 970:	0100                	addi	s0,sp,128
 972:	10090503          	lb	a0,256(s2)
 976:	0100                	addi	s0,sp,128
 978:	0c090503          	lb	a0,192(s2)
 97c:	0100                	addi	s0,sp,128
 97e:	0c090503          	lb	a0,192(s2)
 982:	0100                	addi	s0,sp,128
 984:	0c090503          	lb	a0,192(s2)
 988:	0100                	addi	s0,sp,128
 98a:	0c090503          	lb	a0,192(s2)
 98e:	0100                	addi	s0,sp,128
 990:	0c090503          	lb	a0,192(s2)
 994:	0100                	addi	s0,sp,128
 996:	0c090503          	lb	a0,192(s2)
 99a:	0100                	addi	s0,sp,128
 99c:	0c090503          	lb	a0,192(s2)
 9a0:	0100                	addi	s0,sp,128
 9a2:	0c090503          	lb	a0,192(s2)
 9a6:	0100                	addi	s0,sp,128
 9a8:	0c090503          	lb	a0,192(s2)
 9ac:	0100                	addi	s0,sp,128
 9ae:	0c090503          	lb	a0,192(s2)
 9b2:	0100                	addi	s0,sp,128
 9b4:	0c090503          	lb	a0,192(s2)
 9b8:	0100                	addi	s0,sp,128
 9ba:	0c090503          	lb	a0,192(s2)
 9be:	0100                	addi	s0,sp,128
 9c0:	0c090503          	lb	a0,192(s2)
 9c4:	0100                	addi	s0,sp,128
 9c6:	0c090503          	lb	a0,192(s2)
 9ca:	0100                	addi	s0,sp,128
 9cc:	0c090503          	lb	a0,192(s2)
 9d0:	0100                	addi	s0,sp,128
 9d2:	0c090503          	lb	a0,192(s2)
 9d6:	0100                	addi	s0,sp,128
 9d8:	0c090503          	lb	a0,192(s2)
 9dc:	0100                	addi	s0,sp,128
 9de:	0c090503          	lb	a0,192(s2)
 9e2:	0100                	addi	s0,sp,128
 9e4:	0c090503          	lb	a0,192(s2)
 9e8:	0100                	addi	s0,sp,128
 9ea:	0c090503          	lb	a0,192(s2)
 9ee:	0100                	addi	s0,sp,128
 9f0:	0c090503          	lb	a0,192(s2)
 9f4:	0100                	addi	s0,sp,128
 9f6:	0c090503          	lb	a0,192(s2)
 9fa:	0100                	addi	s0,sp,128
 9fc:	0c090503          	lb	a0,192(s2)
 a00:	0100                	addi	s0,sp,128
 a02:	0c090503          	lb	a0,192(s2)
 a06:	0100                	addi	s0,sp,128
 a08:	0c090503          	lb	a0,192(s2)
 a0c:	0100                	addi	s0,sp,128
 a0e:	0c090503          	lb	a0,192(s2)
 a12:	0100                	addi	s0,sp,128
 a14:	0c090503          	lb	a0,192(s2)
 a18:	0100                	addi	s0,sp,128
 a1a:	0c090503          	lb	a0,192(s2)
 a1e:	0100                	addi	s0,sp,128
 a20:	0c090503          	lb	a0,192(s2)
 a24:	0100                	addi	s0,sp,128
 a26:	0c090503          	lb	a0,192(s2)
 a2a:	0100                	addi	s0,sp,128
 a2c:	0c090503          	lb	a0,192(s2)
 a30:	0100                	addi	s0,sp,128
 a32:	0c090503          	lb	a0,192(s2)
 a36:	0100                	addi	s0,sp,128
 a38:	0c090503          	lb	a0,192(s2)
 a3c:	0100                	addi	s0,sp,128
 a3e:	0c090503          	lb	a0,192(s2)
 a42:	0100                	addi	s0,sp,128
 a44:	0c090503          	lb	a0,192(s2)
 a48:	0100                	addi	s0,sp,128
 a4a:	10090503          	lb	a0,256(s2)
 a4e:	0100                	addi	s0,sp,128
 a50:	10090503          	lb	a0,256(s2)
 a54:	0100                	addi	s0,sp,128
 a56:	10090503          	lb	a0,256(s2)
 a5a:	0100                	addi	s0,sp,128
 a5c:	10090503          	lb	a0,256(s2)
 a60:	0100                	addi	s0,sp,128
 a62:	10090503          	lb	a0,256(s2)
 a66:	0100                	addi	s0,sp,128
 a68:	10090503          	lb	a0,256(s2)
 a6c:	0100                	addi	s0,sp,128
 a6e:	10090503          	lb	a0,256(s2)
 a72:	0100                	addi	s0,sp,128
 a74:	10090503          	lb	a0,256(s2)
 a78:	0100                	addi	s0,sp,128
 a7a:	10090503          	lb	a0,256(s2)
 a7e:	0100                	addi	s0,sp,128
 a80:	10090503          	lb	a0,256(s2)
 a84:	0100                	addi	s0,sp,128
 a86:	10090503          	lb	a0,256(s2)
 a8a:	0100                	addi	s0,sp,128
 a8c:	10090503          	lb	a0,256(s2)
 a90:	0100                	addi	s0,sp,128
 a92:	10090503          	lb	a0,256(s2)
 a96:	0100                	addi	s0,sp,128
 a98:	10090503          	lb	a0,256(s2)
 a9c:	0100                	addi	s0,sp,128
 a9e:	10090503          	lb	a0,256(s2)
 aa2:	0100                	addi	s0,sp,128
 aa4:	10090503          	lb	a0,256(s2)
 aa8:	0100                	addi	s0,sp,128
 aaa:	10090503          	lb	a0,256(s2)
 aae:	0100                	addi	s0,sp,128
 ab0:	10090503          	lb	a0,256(s2)
 ab4:	0100                	addi	s0,sp,128
 ab6:	10090503          	lb	a0,256(s2)
 aba:	0100                	addi	s0,sp,128
 abc:	10090503          	lb	a0,256(s2)
 ac0:	0100                	addi	s0,sp,128
 ac2:	10090503          	lb	a0,256(s2)
 ac6:	0100                	addi	s0,sp,128
 ac8:	10090503          	lb	a0,256(s2)
 acc:	0100                	addi	s0,sp,128
 ace:	10090503          	lb	a0,256(s2)
 ad2:	0100                	addi	s0,sp,128
 ad4:	10090503          	lb	a0,256(s2)
 ad8:	0100                	addi	s0,sp,128
 ada:	10090503          	lb	a0,256(s2)
 ade:	0100                	addi	s0,sp,128
 ae0:	10090503          	lb	a0,256(s2)
 ae4:	0100                	addi	s0,sp,128
 ae6:	10090503          	lb	a0,256(s2)
 aea:	0100                	addi	s0,sp,128
 aec:	10090503          	lb	a0,256(s2)
 af0:	0100                	addi	s0,sp,128
 af2:	10090503          	lb	a0,256(s2)
 af6:	0100                	addi	s0,sp,128
 af8:	10090503          	lb	a0,256(s2)
 afc:	0100                	addi	s0,sp,128
 afe:	10090503          	lb	a0,256(s2)
 b02:	0100                	addi	s0,sp,128
 b04:	10090503          	lb	a0,256(s2)
 b08:	0100                	addi	s0,sp,128
 b0a:	10090503          	lb	a0,256(s2)
 b0e:	0100                	addi	s0,sp,128
 b10:	10090503          	lb	a0,256(s2)
 b14:	0100                	addi	s0,sp,128
 b16:	10090503          	lb	a0,256(s2)
 b1a:	0100                	addi	s0,sp,128
 b1c:	10090503          	lb	a0,256(s2)
 b20:	0100                	addi	s0,sp,128
 b22:	10090503          	lb	a0,256(s2)
 b26:	0100                	addi	s0,sp,128
 b28:	10090503          	lb	a0,256(s2)
 b2c:	0100                	addi	s0,sp,128
 b2e:	10090503          	lb	a0,256(s2)
 b32:	0100                	addi	s0,sp,128
 b34:	10090503          	lb	a0,256(s2)
 b38:	0100                	addi	s0,sp,128
 b3a:	10090503          	lb	a0,256(s2)
 b3e:	0100                	addi	s0,sp,128
 b40:	10090503          	lb	a0,256(s2)
 b44:	0100                	addi	s0,sp,128
 b46:	10090503          	lb	a0,256(s2)
 b4a:	0100                	addi	s0,sp,128
 b4c:	10090503          	lb	a0,256(s2)
 b50:	0100                	addi	s0,sp,128
 b52:	10090503          	lb	a0,256(s2)
 b56:	0100                	addi	s0,sp,128
 b58:	10090503          	lb	a0,256(s2)
 b5c:	0100                	addi	s0,sp,128
 b5e:	10090503          	lb	a0,256(s2)
 b62:	0100                	addi	s0,sp,128
 b64:	10090503          	lb	a0,256(s2)
 b68:	0100                	addi	s0,sp,128
 b6a:	10090503          	lb	a0,256(s2)
 b6e:	0100                	addi	s0,sp,128
 b70:	10090503          	lb	a0,256(s2)
 b74:	0100                	addi	s0,sp,128
 b76:	10090503          	lb	a0,256(s2)
 b7a:	0100                	addi	s0,sp,128
 b7c:	10090503          	lb	a0,256(s2)
 b80:	0100                	addi	s0,sp,128
 b82:	10090503          	lb	a0,256(s2)
 b86:	0100                	addi	s0,sp,128
 b88:	10090503          	lb	a0,256(s2)
 b8c:	0100                	addi	s0,sp,128
 b8e:	10090503          	lb	a0,256(s2)
 b92:	0100                	addi	s0,sp,128
 b94:	10090503          	lb	a0,256(s2)
 b98:	0100                	addi	s0,sp,128
 b9a:	10090503          	lb	a0,256(s2)
 b9e:	0100                	addi	s0,sp,128
 ba0:	10090503          	lb	a0,256(s2)
 ba4:	0100                	addi	s0,sp,128
 ba6:	10090503          	lb	a0,256(s2)
 baa:	0100                	addi	s0,sp,128
 bac:	10090503          	lb	a0,256(s2)
 bb0:	0100                	addi	s0,sp,128
 bb2:	10090503          	lb	a0,256(s2)
 bb6:	0100                	addi	s0,sp,128
 bb8:	10090503          	lb	a0,256(s2)
 bbc:	0100                	addi	s0,sp,128
 bbe:	10090503          	lb	a0,256(s2)
 bc2:	0100                	addi	s0,sp,128
 bc4:	10090503          	lb	a0,256(s2)
 bc8:	0100                	addi	s0,sp,128
 bca:	10090503          	lb	a0,256(s2)
 bce:	0100                	addi	s0,sp,128
 bd0:	10090503          	lb	a0,256(s2)
 bd4:	0100                	addi	s0,sp,128
 bd6:	10090503          	lb	a0,256(s2)
 bda:	0100                	addi	s0,sp,128
 bdc:	10090503          	lb	a0,256(s2)
 be0:	0100                	addi	s0,sp,128
 be2:	10090503          	lb	a0,256(s2)
 be6:	0100                	addi	s0,sp,128
 be8:	10090503          	lb	a0,256(s2)
 bec:	0100                	addi	s0,sp,128
 bee:	10090503          	lb	a0,256(s2)
 bf2:	0100                	addi	s0,sp,128
 bf4:	10090503          	lb	a0,256(s2)
 bf8:	0100                	addi	s0,sp,128
 bfa:	10090503          	lb	a0,256(s2)
 bfe:	0100                	addi	s0,sp,128
 c00:	10090503          	lb	a0,256(s2)
 c04:	0100                	addi	s0,sp,128
 c06:	10090503          	lb	a0,256(s2)
 c0a:	0100                	addi	s0,sp,128
 c0c:	10090503          	lb	a0,256(s2)
 c10:	0100                	addi	s0,sp,128
 c12:	10090503          	lb	a0,256(s2)
 c16:	0100                	addi	s0,sp,128
 c18:	10090503          	lb	a0,256(s2)
 c1c:	0100                	addi	s0,sp,128
 c1e:	10090503          	lb	a0,256(s2)
 c22:	0100                	addi	s0,sp,128
 c24:	10090503          	lb	a0,256(s2)
 c28:	0100                	addi	s0,sp,128
 c2a:	10090503          	lb	a0,256(s2)
 c2e:	0100                	addi	s0,sp,128
 c30:	10090503          	lb	a0,256(s2)
 c34:	0100                	addi	s0,sp,128
 c36:	10090503          	lb	a0,256(s2)
 c3a:	0100                	addi	s0,sp,128
 c3c:	10090503          	lb	a0,256(s2)
 c40:	0100                	addi	s0,sp,128
 c42:	10090503          	lb	a0,256(s2)
 c46:	0100                	addi	s0,sp,128
 c48:	10090503          	lb	a0,256(s2)
 c4c:	0100                	addi	s0,sp,128
 c4e:	10090503          	lb	a0,256(s2)
 c52:	0100                	addi	s0,sp,128
 c54:	10090503          	lb	a0,256(s2)
 c58:	0100                	addi	s0,sp,128
 c5a:	10090503          	lb	a0,256(s2)
 c5e:	0100                	addi	s0,sp,128
 c60:	10090503          	lb	a0,256(s2)
 c64:	0100                	addi	s0,sp,128
 c66:	10090503          	lb	a0,256(s2)
 c6a:	0100                	addi	s0,sp,128
 c6c:	10090503          	lb	a0,256(s2)
 c70:	0100                	addi	s0,sp,128
 c72:	10090503          	lb	a0,256(s2)
 c76:	0100                	addi	s0,sp,128
 c78:	10090503          	lb	a0,256(s2)
 c7c:	0100                	addi	s0,sp,128
 c7e:	10090503          	lb	a0,256(s2)
 c82:	0100                	addi	s0,sp,128
 c84:	10090503          	lb	a0,256(s2)
 c88:	0100                	addi	s0,sp,128
 c8a:	10090503          	lb	a0,256(s2)
 c8e:	0100                	addi	s0,sp,128
 c90:	10090503          	lb	a0,256(s2)
 c94:	0100                	addi	s0,sp,128
 c96:	10090503          	lb	a0,256(s2)
 c9a:	0100                	addi	s0,sp,128
 c9c:	10090503          	lb	a0,256(s2)
 ca0:	0100                	addi	s0,sp,128
 ca2:	10090503          	lb	a0,256(s2)
 ca6:	0100                	addi	s0,sp,128
 ca8:	10090503          	lb	a0,256(s2)
 cac:	0100                	addi	s0,sp,128
 cae:	10090503          	lb	a0,256(s2)
 cb2:	0100                	addi	s0,sp,128
 cb4:	10090503          	lb	a0,256(s2)
 cb8:	0100                	addi	s0,sp,128
 cba:	10090503          	lb	a0,256(s2)
 cbe:	0100                	addi	s0,sp,128
 cc0:	10090503          	lb	a0,256(s2)
 cc4:	0100                	addi	s0,sp,128
 cc6:	10090503          	lb	a0,256(s2)
 cca:	0100                	addi	s0,sp,128
 ccc:	10090503          	lb	a0,256(s2)
 cd0:	0100                	addi	s0,sp,128
 cd2:	10090503          	lb	a0,256(s2)
 cd6:	0100                	addi	s0,sp,128
 cd8:	10090503          	lb	a0,256(s2)
 cdc:	0100                	addi	s0,sp,128
 cde:	0c090503          	lb	a0,192(s2)
 ce2:	0100                	addi	s0,sp,128
 ce4:	0c090503          	lb	a0,192(s2)
 ce8:	0100                	addi	s0,sp,128
 cea:	0c090503          	lb	a0,192(s2)
 cee:	0100                	addi	s0,sp,128
 cf0:	0c090503          	lb	a0,192(s2)
 cf4:	0100                	addi	s0,sp,128
 cf6:	0c090103          	lb	sp,192(s2)
 cfa:	0100                	addi	s0,sp,128
 cfc:	08090503          	lb	a0,128(s2)
 d00:	0100                	addi	s0,sp,128
 d02:	0c090503          	lb	a0,192(s2)
 d06:	0100                	addi	s0,sp,128
 d08:	0c090503          	lb	a0,192(s2)
 d0c:	0100                	addi	s0,sp,128
 d0e:	0c090503          	lb	a0,192(s2)
 d12:	0100                	addi	s0,sp,128
 d14:	0c090503          	lb	a0,192(s2)
 d18:	0100                	addi	s0,sp,128
 d1a:	0c090503          	lb	a0,192(s2)
 d1e:	0100                	addi	s0,sp,128
 d20:	0c090503          	lb	a0,192(s2)
 d24:	0100                	addi	s0,sp,128
 d26:	0c090503          	lb	a0,192(s2)
 d2a:	0100                	addi	s0,sp,128
 d2c:	0c090503          	lb	a0,192(s2)
 d30:	0100                	addi	s0,sp,128
 d32:	0c090503          	lb	a0,192(s2)
 d36:	0100                	addi	s0,sp,128
 d38:	0c090503          	lb	a0,192(s2)
 d3c:	0100                	addi	s0,sp,128
 d3e:	0c090503          	lb	a0,192(s2)
 d42:	0100                	addi	s0,sp,128
 d44:	0c090503          	lb	a0,192(s2)
 d48:	0100                	addi	s0,sp,128
 d4a:	0c090503          	lb	a0,192(s2)
 d4e:	0100                	addi	s0,sp,128
 d50:	0c090503          	lb	a0,192(s2)
 d54:	0100                	addi	s0,sp,128
 d56:	0c090503          	lb	a0,192(s2)
 d5a:	0100                	addi	s0,sp,128
 d5c:	0c090503          	lb	a0,192(s2)
 d60:	0100                	addi	s0,sp,128
 d62:	0c090503          	lb	a0,192(s2)
 d66:	0100                	addi	s0,sp,128
 d68:	10090503          	lb	a0,256(s2)
 d6c:	0100                	addi	s0,sp,128
 d6e:	10090503          	lb	a0,256(s2)
 d72:	0100                	addi	s0,sp,128
 d74:	10090503          	lb	a0,256(s2)
 d78:	0100                	addi	s0,sp,128
 d7a:	10090503          	lb	a0,256(s2)
 d7e:	0100                	addi	s0,sp,128
 d80:	10090503          	lb	a0,256(s2)
 d84:	0100                	addi	s0,sp,128
 d86:	10090503          	lb	a0,256(s2)
 d8a:	0100                	addi	s0,sp,128
 d8c:	10090503          	lb	a0,256(s2)
 d90:	0100                	addi	s0,sp,128
 d92:	10090503          	lb	a0,256(s2)
 d96:	0100                	addi	s0,sp,128
 d98:	10090503          	lb	a0,256(s2)
 d9c:	0100                	addi	s0,sp,128
 d9e:	10090503          	lb	a0,256(s2)
 da2:	0100                	addi	s0,sp,128
 da4:	10090503          	lb	a0,256(s2)
 da8:	0100                	addi	s0,sp,128
 daa:	10090503          	lb	a0,256(s2)
 dae:	0100                	addi	s0,sp,128
 db0:	0c090503          	lb	a0,192(s2)
 db4:	0100                	addi	s0,sp,128
 db6:	10090503          	lb	a0,256(s2)
 dba:	0100                	addi	s0,sp,128
 dbc:	1409                	addi	s0,s0,-30
 dbe:	0000                	unimp
 dc0:	0101                	addi	sp,sp,0

Disassembly of section .debug_info:

00000000 <.debug_info>:
   0:	0022                	c.slli	zero,0x8
   2:	0000                	unimp
   4:	0002                	c.slli64	zero
   6:	0000                	unimp
   8:	0000                	unimp
   a:	0104                	addi	s1,sp,128
   c:	0000                	unimp
   e:	0000                	unimp
  10:	1000                	addi	s0,sp,32
  12:	0000                	unimp
  14:	3174                	fld	fa3,224(a0)
  16:	0000                	unimp
  18:	0000                	unimp
  1a:	0000                	unimp
  1c:	004e                	c.slli	zero,0x13
  1e:	0000                	unimp
  20:	009f 0000 8001      	0x80010000009f

Disassembly of section .debug_abbrev:

00000000 <.debug_abbrev>:
   0:	1101                	addi	sp,sp,-32
   2:	1000                	addi	s0,sp,32
   4:	1106                	slli	sp,sp,0x21
   6:	1201                	addi	tp,tp,-32
   8:	0301                	addi	t1,t1,0
   a:	1b0e                	slli	s6,s6,0x23
   c:	250e                	fld	fa0,192(sp)
   e:	130e                	slli	t1,t1,0x23
  10:	0005                	c.nop	1
	...

Disassembly of section .debug_aranges:

00000000 <.debug_aranges>:
   0:	001c                	0x1c
   2:	0000                	unimp
   4:	0002                	c.slli64	zero
   6:	0000                	unimp
   8:	0000                	unimp
   a:	0004                	0x4
   c:	0000                	unimp
   e:	0000                	unimp
  10:	1000                	addi	s0,sp,32
  12:	0000                	unimp
  14:	2174                	fld	fa3,192(a0)
	...

Disassembly of section .debug_str:

00000000 <.debug_str>:
   0:	6d6f682f          	0x6d6f682f
   4:	2f65                	jal	7bc <offset+0x740>
   6:	6974                	flw	fa3,84(a0)
   8:	39726567          	0x39726567
   c:	7574                	flw	fa3,108(a0)
   e:	6f6f742f          	0x6f6f742f
  12:	736c                	flw	fa1,100(a4)
  14:	7369722f          	0x7369722f
  18:	612d7663          	bgeu	s10,s2,624 <offset+0x5a8>
  1c:	6372                	flw	ft6,28(sp)
  1e:	2d68                	fld	fa0,216(a0)
  20:	6574                	flw	fa3,76(a0)
  22:	722f7473          	csrrci	s0,0x722,30
  26:	7369                	lui	t1,0xffffa
  28:	742d7663          	bgeu	s10,sp,774 <offset+0x6f8>
  2c:	7365                	lui	t1,0xffff9
  2e:	2d74                	fld	fa3,216(a0)
  30:	74697573          	csrrci	a0,0x746,18
  34:	2f65                	jal	7ec <offset+0x770>
  36:	7672                	flw	fa2,60(sp)
  38:	5f693233          	0x5f693233
  3c:	2f6d                	jal	7f6 <offset+0x77a>
  3e:	2f49                	jal	7d0 <offset+0x754>
  40:	2f637273          	csrrci	tp,0x2f6,6
  44:	6e61                	lui	t3,0x18
  46:	6964                	flw	fs1,84(a0)
  48:	302d                	jal	fffff872 <_end+0xffffa86e>
  4a:	2e31                	jal	366 <offset+0x2ea>
  4c:	682f0053          	0x682f0053
  50:	2f656d6f          	jal	s10,56346 <_end+0x51342>
  54:	6974                	flw	fa3,84(a0)
  56:	39726567          	0x39726567
  5a:	7574                	flw	fa3,108(a0)
  5c:	6f72702f          	0x6f72702f
  60:	2f6a                	fld	ft10,152(sp)
  62:	6179                	addi	sp,sp,464
  64:	6374                	flw	fa3,68(a4)
  66:	7570                	flw	fa2,108(a0)
  68:	7369722f          	0x7369722f
  6c:	2d666f63          	bltu	a2,s6,34a <offset+0x2ce>
  70:	6174                	flw	fa3,68(a0)
  72:	6772                	flw	fa4,28(sp)
  74:	7465                	lui	s0,0xffff9
  76:	7369722f          	0x7369722f
  7a:	5f666f63          	bltu	a2,s6,678 <offset+0x5fc>
  7e:	6b726f77          	0x6b726f77
  82:	3376722f          	0x3376722f
  86:	6932                	flw	fs2,12(sp)
  88:	6d5f 492f 732f      	0x732f492f6d5f
  8e:	6372                	flw	ft6,28(sp)
  90:	646e612f          	0x646e612f
  94:	2d69                	jal	72e <offset+0x6b2>
  96:	3130                	fld	fa2,96(a0)
  98:	532e                	lw	t1,232(sp)
  9a:	7475642f          	0x7475642f
  9e:	4700                	lw	s0,8(a4)
  a0:	554e                	lw	a0,240(sp)
  a2:	4120                	lw	s0,64(a0)
  a4:	2e322053          	0x2e322053
  a8:	          	snez	s0,zero
