
my.elf:     file format elf32-littleriscv


Disassembly of section .text:

00001000 <rvtest_entry_point>:
    1000:	feedc0b7          	lui	ra,0xfeedc
    1004:	ead08093          	addi	ra,ra,-339 # feedbead <_end+0xfeea0ea9>
    1008:	ff76e137          	lui	sp,0xff76e
    100c:	f5610113          	addi	sp,sp,-170 # ff76df56 <_end+0xff732f52>
    1010:	7fbb71b7          	lui	gp,0x7fbb7
    1014:	fab18193          	addi	gp,gp,-85 # 7fbb6fab <_end+0x7fb7bfa7>
    1018:	bfddb237          	lui	tp,0xbfddb
    101c:	7d520213          	addi	tp,tp,2005 # bfddb7d5 <_end+0xbfda07d1>
    1020:	00000297          	auipc	t0,0x0
    1024:	0d828293          	addi	t0,t0,216 # 10f8 <rvtest_code_begin>
    1028:	00039317          	auipc	t1,0x39
    102c:	fd830313          	addi	t1,t1,-40 # 3a000 <rvtest_data_begin>
    1030:	b7fbb3b7          	lui	t2,0xb7fbb
    1034:	6fa38393          	addi	t2,t2,1786 # b7fbb6fa <_end+0xb7f806f6>
    1038:	5bfde437          	lui	s0,0x5bfde
    103c:	b7d40413          	addi	s0,s0,-1155 # 5bfddb7d <_end+0x5bfa2b79>
    1040:	adfef4b7          	lui	s1,0xadfef
    1044:	dbe48493          	addi	s1,s1,-578 # adfeedbe <_end+0xadfb3dba>
    1048:	56ff7537          	lui	a0,0x56ff7
    104c:	6df50513          	addi	a0,a0,1759 # 56ff76df <_end+0x56fbc6db>
    1050:	ab7fc5b7          	lui	a1,0xab7fc
    1054:	b6f58593          	addi	a1,a1,-1169 # ab7fbb6f <_end+0xab7c0b6b>
    1058:	d5bfe637          	lui	a2,0xd5bfe
    105c:	db760613          	addi	a2,a2,-585 # d5bfddb7 <_end+0xd5bc2db3>
    1060:	eadff6b7          	lui	a3,0xeadff
    1064:	edb68693          	addi	a3,a3,-293 # eadfeedb <_end+0xeadc3ed7>
    1068:	f56ff737          	lui	a4,0xf56ff
    106c:	76d70713          	addi	a4,a4,1901 # f56ff76d <_end+0xf56c4769>
    1070:	fab807b7          	lui	a5,0xfab80
    1074:	bb678793          	addi	a5,a5,-1098 # fab7fbb6 <_end+0xfab44bb2>
    1078:	7d5c0837          	lui	a6,0x7d5c0
    107c:	ddb80813          	addi	a6,a6,-549 # 7d5bfddb <_end+0x7d584dd7>
    1080:	beae08b7          	lui	a7,0xbeae0
    1084:	eed88893          	addi	a7,a7,-275 # beadfeed <_end+0xbeaa4ee9>
    1088:	df570937          	lui	s2,0xdf570
    108c:	f7690913          	addi	s2,s2,-138 # df56ff76 <_end+0xdf534f72>
    1090:	6fab89b7          	lui	s3,0x6fab8
    1094:	fbb98993          	addi	s3,s3,-69 # 6fab7fbb <_end+0x6fa7cfb7>
    1098:	b7d5ca37          	lui	s4,0xb7d5c
    109c:	fdda0a13          	addi	s4,s4,-35 # b7d5bfdd <_end+0xb7d20fd9>
    10a0:	dbeaeab7          	lui	s5,0xdbeae
    10a4:	feea8a93          	addi	s5,s5,-18 # dbeadfee <_end+0xdbe72fea>
    10a8:	6df57b37          	lui	s6,0x6df57
    10ac:	ff7b0b13          	addi	s6,s6,-9 # 6df56ff7 <_end+0x6df1bff3>
    10b0:	b6fabbb7          	lui	s7,0xb6fab
    10b4:	7fbb8b93          	addi	s7,s7,2043 # b6fab7fb <_end+0xb6f707f7>
    10b8:	db7d6c37          	lui	s8,0xdb7d6
    10bc:	bfdc0c13          	addi	s8,s8,-1027 # db7d5bfd <_end+0xdb79abf9>
    10c0:	edbebcb7          	lui	s9,0xedbeb
    10c4:	dfec8c93          	addi	s9,s9,-514 # edbeadfe <_end+0xedbafdfa>
    10c8:	76df5d37          	lui	s10,0x76df5
    10cc:	6ffd0d13          	addi	s10,s10,1791 # 76df56ff <_end+0x76dba6fb>
    10d0:	bb6fbdb7          	lui	s11,0xbb6fb
    10d4:	b7fd8d93          	addi	s11,s11,-1153 # bb6fab7f <_end+0xbb6bfb7b>
    10d8:	ddb7de37          	lui	t3,0xddb7d
    10dc:	5bfe0e13          	addi	t3,t3,1471 # ddb7d5bf <_end+0xddb425bb>
    10e0:	eedbfeb7          	lui	t4,0xeedbf
    10e4:	adfe8e93          	addi	t4,t4,-1313 # eedbeadf <_end+0xeed83adb>
    10e8:	f76dff37          	lui	t5,0xf76df
    10ec:	56ff0f13          	addi	t5,t5,1391 # f76df56f <_end+0xf76a456b>
    10f0:	fbb70fb7          	lui	t6,0xfbb70
    10f4:	ab7f8f93          	addi	t6,t6,-1353 # fbb6fab7 <_end+0xfbb34ab3>

000010f8 <rvtest_code_begin>:
    10f8:	00039097          	auipc	ra,0x39
    10fc:	f1808093          	addi	ra,ra,-232 # 3a010 <begin_signature>

00001100 <inst_0>:
    1100:	00010db7          	lui	s11,0x10
    1104:	00010db7          	lui	s11,0x10
    1108:	00000193          	li	gp,0
    110c:	00c0006f          	j	1118 <inst_0+0x18>
    1110:	00118193          	addi	gp,gp,1
    1114:	20c0006f          	j	1320 <inst_0+0x220>
    1118:	21bdd063          	bge	s11,s11,1318 <inst_0+0x218>
    111c:	00218193          	addi	gp,gp,2
    1120:	2000006f          	j	1320 <inst_0+0x220>
    1124:	00000013          	nop
    1128:	00000013          	nop
    112c:	00000013          	nop
    1130:	00000013          	nop
    1134:	00000013          	nop
    1138:	00000013          	nop
    113c:	00000013          	nop
    1140:	00000013          	nop
    1144:	00000013          	nop
    1148:	00000013          	nop
    114c:	00000013          	nop
    1150:	00000013          	nop
    1154:	00000013          	nop
    1158:	00000013          	nop
    115c:	00000013          	nop
    1160:	00000013          	nop
    1164:	00000013          	nop
    1168:	00000013          	nop
    116c:	00000013          	nop
    1170:	00000013          	nop
    1174:	00000013          	nop
    1178:	00000013          	nop
    117c:	00000013          	nop
    1180:	00000013          	nop
    1184:	00000013          	nop
    1188:	00000013          	nop
    118c:	00000013          	nop
    1190:	00000013          	nop
    1194:	00000013          	nop
    1198:	00000013          	nop
    119c:	00000013          	nop
    11a0:	00000013          	nop
    11a4:	00000013          	nop
    11a8:	00000013          	nop
    11ac:	00000013          	nop
    11b0:	00000013          	nop
    11b4:	00000013          	nop
    11b8:	00000013          	nop
    11bc:	00000013          	nop
    11c0:	00000013          	nop
    11c4:	00000013          	nop
    11c8:	00000013          	nop
    11cc:	00000013          	nop
    11d0:	00000013          	nop
    11d4:	00000013          	nop
    11d8:	00000013          	nop
    11dc:	00000013          	nop
    11e0:	00000013          	nop
    11e4:	00000013          	nop
    11e8:	00000013          	nop
    11ec:	00000013          	nop
    11f0:	00000013          	nop
    11f4:	00000013          	nop
    11f8:	00000013          	nop
    11fc:	00000013          	nop
    1200:	00000013          	nop
    1204:	00000013          	nop
    1208:	00000013          	nop
    120c:	00000013          	nop
    1210:	00000013          	nop
    1214:	00000013          	nop
    1218:	00000013          	nop
    121c:	00000013          	nop
    1220:	00000013          	nop
    1224:	00000013          	nop
    1228:	00000013          	nop
    122c:	00000013          	nop
    1230:	00000013          	nop
    1234:	00000013          	nop
    1238:	00000013          	nop
    123c:	00000013          	nop
    1240:	00000013          	nop
    1244:	00000013          	nop
    1248:	00000013          	nop
    124c:	00000013          	nop
    1250:	00000013          	nop
    1254:	00000013          	nop
    1258:	00000013          	nop
    125c:	00000013          	nop
    1260:	00000013          	nop
    1264:	00000013          	nop
    1268:	00000013          	nop
    126c:	00000013          	nop
    1270:	00000013          	nop
    1274:	00000013          	nop
    1278:	00000013          	nop
    127c:	00000013          	nop
    1280:	00000013          	nop
    1284:	00000013          	nop
    1288:	00000013          	nop
    128c:	00000013          	nop
    1290:	00000013          	nop
    1294:	00000013          	nop
    1298:	00000013          	nop
    129c:	00000013          	nop
    12a0:	00000013          	nop
    12a4:	00000013          	nop
    12a8:	00000013          	nop
    12ac:	00000013          	nop
    12b0:	00000013          	nop
    12b4:	00000013          	nop
    12b8:	00000013          	nop
    12bc:	00000013          	nop
    12c0:	00000013          	nop
    12c4:	00000013          	nop
    12c8:	00000013          	nop
    12cc:	00000013          	nop
    12d0:	00000013          	nop
    12d4:	00000013          	nop
    12d8:	00000013          	nop
    12dc:	00000013          	nop
    12e0:	00000013          	nop
    12e4:	00000013          	nop
    12e8:	00000013          	nop
    12ec:	00000013          	nop
    12f0:	00000013          	nop
    12f4:	00000013          	nop
    12f8:	00000013          	nop
    12fc:	00000013          	nop
    1300:	00000013          	nop
    1304:	00000013          	nop
    1308:	00000013          	nop
    130c:	00000013          	nop
    1310:	00000013          	nop
    1314:	00000013          	nop
    1318:	00318193          	addi	gp,gp,3
    131c:	0040006f          	j	1320 <inst_0+0x220>
    1320:	0030a023          	sw	gp,0(ra)

00001324 <inst_1>:
    1324:	00200693          	li	a3,2
    1328:	ff8002b7          	lui	t0,0xff800
    132c:	fff28293          	addi	t0,t0,-1 # ff7fffff <_end+0xff7c4ffb>
    1330:	00000193          	li	gp,0
    1334:	00c0006f          	j	1340 <inst_1+0x1c>
    1338:	00118193          	addi	gp,gp,1
    133c:	08c0006f          	j	13c8 <inst_1+0xa4>
    1340:	0856d063          	bge	a3,t0,13c0 <inst_1+0x9c>
    1344:	00218193          	addi	gp,gp,2
    1348:	0800006f          	j	13c8 <inst_1+0xa4>
    134c:	00000013          	nop
    1350:	00000013          	nop
    1354:	00000013          	nop
    1358:	00000013          	nop
    135c:	00000013          	nop
    1360:	00000013          	nop
    1364:	00000013          	nop
    1368:	00000013          	nop
    136c:	00000013          	nop
    1370:	00000013          	nop
    1374:	00000013          	nop
    1378:	00000013          	nop
    137c:	00000013          	nop
    1380:	00000013          	nop
    1384:	00000013          	nop
    1388:	00000013          	nop
    138c:	00000013          	nop
    1390:	00000013          	nop
    1394:	00000013          	nop
    1398:	00000013          	nop
    139c:	00000013          	nop
    13a0:	00000013          	nop
    13a4:	00000013          	nop
    13a8:	00000013          	nop
    13ac:	00000013          	nop
    13b0:	00000013          	nop
    13b4:	00000013          	nop
    13b8:	00000013          	nop
    13bc:	00000013          	nop
    13c0:	00318193          	addi	gp,gp,3
    13c4:	0040006f          	j	13c8 <inst_1+0xa4>
    13c8:	0030a223          	sw	gp,4(ra)

000013cc <inst_2>:
    13cc:	ffe00393          	li	t2,-2
    13d0:	ff600a13          	li	s4,-10
    13d4:	00000193          	li	gp,0
    13d8:	00c0006f          	j	13e4 <inst_2+0x18>
    13dc:	00118193          	addi	gp,gp,1
    13e0:	0180006f          	j	13f8 <inst_2+0x2c>
    13e4:	0143d663          	bge	t2,s4,13f0 <inst_2+0x24>
    13e8:	00218193          	addi	gp,gp,2
    13ec:	00c0006f          	j	13f8 <inst_2+0x2c>
    13f0:	00318193          	addi	gp,gp,3
    13f4:	0040006f          	j	13f8 <inst_2+0x2c>
    13f8:	0030a423          	sw	gp,8(ra)

000013fc <inst_3>:
    13fc:	f8000bb7          	lui	s7,0xf8000
    1400:	fffb8b93          	addi	s7,s7,-1 # f7ffffff <_end+0xf7fc4ffb>
    1404:	00200713          	li	a4,2
    1408:	00000193          	li	gp,0
    140c:	00c0006f          	j	1418 <inst_3+0x1c>
    1410:	00118193          	addi	gp,gp,1
    1414:	02c0006f          	j	1440 <inst_3+0x44>
    1418:	02ebd063          	bge	s7,a4,1438 <inst_3+0x3c>
    141c:	00218193          	addi	gp,gp,2
    1420:	0200006f          	j	1440 <inst_3+0x44>
    1424:	00000013          	nop
    1428:	00000013          	nop
    142c:	00000013          	nop
    1430:	00000013          	nop
    1434:	00000013          	nop
    1438:	00318193          	addi	gp,gp,3
    143c:	0040006f          	j	1440 <inst_3+0x44>
    1440:	0030a623          	sw	gp,12(ra)

00001444 <inst_4>:
    1444:	ffb00b13          	li	s6,-5
    1448:	ffb00793          	li	a5,-5
    144c:	00000193          	li	gp,0
    1450:	00c0006f          	j	145c <inst_4+0x18>
    1454:	00118193          	addi	gp,gp,1
    1458:	0180006f          	j	1470 <inst_4+0x2c>
    145c:	00fb5663          	bge	s6,a5,1468 <inst_4+0x24>
    1460:	00218193          	addi	gp,gp,2
    1464:	00c0006f          	j	1470 <inst_4+0x2c>
    1468:	00318193          	addi	gp,gp,3
    146c:	0040006f          	j	1470 <inst_4+0x2c>
    1470:	0030a823          	sw	gp,16(ra)

00001474 <inst_5>:
    1474:	666667b7          	lui	a5,0x66666
    1478:	66778793          	addi	a5,a5,1639 # 66666667 <_end+0x6662b663>
    147c:	66666d37          	lui	s10,0x66666
    1480:	667d0d13          	addi	s10,s10,1639 # 66666667 <_end+0x6662b663>
    1484:	00000193          	li	gp,0
    1488:	0140006f          	j	149c <inst_5+0x28>
    148c:	00118193          	addi	gp,gp,1
    1490:	0200006f          	j	14b0 <inst_5+0x3c>
    1494:	00000013          	nop
    1498:	00000013          	nop
    149c:	ffa7d8e3          	bge	a5,s10,148c <inst_5+0x18>
    14a0:	00218193          	addi	gp,gp,2
    14a4:	00c0006f          	j	14b0 <inst_5+0x3c>
    14a8:	00318193          	addi	gp,gp,3
    14ac:	0040006f          	j	14b0 <inst_5+0x3c>
    14b0:	0030aa23          	sw	gp,20(ra)

000014b4 <inst_6>:
    14b4:	ff800713          	li	a4,-8
    14b8:	fe000c37          	lui	s8,0xfe000
    14bc:	fffc0c13          	addi	s8,s8,-1 # fdffffff <_end+0xfdfc4ffb>
    14c0:	00000193          	li	gp,0
    14c4:	0050006f          	j	1cc8 <inst_6+0x814>
    14c8:	00118193          	addi	gp,gp,1
    14cc:	0110006f          	j	1cdc <inst_6+0x828>
    14d0:	00000013          	nop
    14d4:	00000013          	nop
    14d8:	00000013          	nop
    14dc:	00000013          	nop
    14e0:	00000013          	nop
    14e4:	00000013          	nop
    14e8:	00000013          	nop
    14ec:	00000013          	nop
    14f0:	00000013          	nop
    14f4:	00000013          	nop
    14f8:	00000013          	nop
    14fc:	00000013          	nop
    1500:	00000013          	nop
    1504:	00000013          	nop
    1508:	00000013          	nop
    150c:	00000013          	nop
    1510:	00000013          	nop
    1514:	00000013          	nop
    1518:	00000013          	nop
    151c:	00000013          	nop
    1520:	00000013          	nop
    1524:	00000013          	nop
    1528:	00000013          	nop
    152c:	00000013          	nop
    1530:	00000013          	nop
    1534:	00000013          	nop
    1538:	00000013          	nop
    153c:	00000013          	nop
    1540:	00000013          	nop
    1544:	00000013          	nop
    1548:	00000013          	nop
    154c:	00000013          	nop
    1550:	00000013          	nop
    1554:	00000013          	nop
    1558:	00000013          	nop
    155c:	00000013          	nop
    1560:	00000013          	nop
    1564:	00000013          	nop
    1568:	00000013          	nop
    156c:	00000013          	nop
    1570:	00000013          	nop
    1574:	00000013          	nop
    1578:	00000013          	nop
    157c:	00000013          	nop
    1580:	00000013          	nop
    1584:	00000013          	nop
    1588:	00000013          	nop
    158c:	00000013          	nop
    1590:	00000013          	nop
    1594:	00000013          	nop
    1598:	00000013          	nop
    159c:	00000013          	nop
    15a0:	00000013          	nop
    15a4:	00000013          	nop
    15a8:	00000013          	nop
    15ac:	00000013          	nop
    15b0:	00000013          	nop
    15b4:	00000013          	nop
    15b8:	00000013          	nop
    15bc:	00000013          	nop
    15c0:	00000013          	nop
    15c4:	00000013          	nop
    15c8:	00000013          	nop
    15cc:	00000013          	nop
    15d0:	00000013          	nop
    15d4:	00000013          	nop
    15d8:	00000013          	nop
    15dc:	00000013          	nop
    15e0:	00000013          	nop
    15e4:	00000013          	nop
    15e8:	00000013          	nop
    15ec:	00000013          	nop
    15f0:	00000013          	nop
    15f4:	00000013          	nop
    15f8:	00000013          	nop
    15fc:	00000013          	nop
    1600:	00000013          	nop
    1604:	00000013          	nop
    1608:	00000013          	nop
    160c:	00000013          	nop
    1610:	00000013          	nop
    1614:	00000013          	nop
    1618:	00000013          	nop
    161c:	00000013          	nop
    1620:	00000013          	nop
    1624:	00000013          	nop
    1628:	00000013          	nop
    162c:	00000013          	nop
    1630:	00000013          	nop
    1634:	00000013          	nop
    1638:	00000013          	nop
    163c:	00000013          	nop
    1640:	00000013          	nop
    1644:	00000013          	nop
    1648:	00000013          	nop
    164c:	00000013          	nop
    1650:	00000013          	nop
    1654:	00000013          	nop
    1658:	00000013          	nop
    165c:	00000013          	nop
    1660:	00000013          	nop
    1664:	00000013          	nop
    1668:	00000013          	nop
    166c:	00000013          	nop
    1670:	00000013          	nop
    1674:	00000013          	nop
    1678:	00000013          	nop
    167c:	00000013          	nop
    1680:	00000013          	nop
    1684:	00000013          	nop
    1688:	00000013          	nop
    168c:	00000013          	nop
    1690:	00000013          	nop
    1694:	00000013          	nop
    1698:	00000013          	nop
    169c:	00000013          	nop
    16a0:	00000013          	nop
    16a4:	00000013          	nop
    16a8:	00000013          	nop
    16ac:	00000013          	nop
    16b0:	00000013          	nop
    16b4:	00000013          	nop
    16b8:	00000013          	nop
    16bc:	00000013          	nop
    16c0:	00000013          	nop
    16c4:	00000013          	nop
    16c8:	00000013          	nop
    16cc:	00000013          	nop
    16d0:	00000013          	nop
    16d4:	00000013          	nop
    16d8:	00000013          	nop
    16dc:	00000013          	nop
    16e0:	00000013          	nop
    16e4:	00000013          	nop
    16e8:	00000013          	nop
    16ec:	00000013          	nop
    16f0:	00000013          	nop
    16f4:	00000013          	nop
    16f8:	00000013          	nop
    16fc:	00000013          	nop
    1700:	00000013          	nop
    1704:	00000013          	nop
    1708:	00000013          	nop
    170c:	00000013          	nop
    1710:	00000013          	nop
    1714:	00000013          	nop
    1718:	00000013          	nop
    171c:	00000013          	nop
    1720:	00000013          	nop
    1724:	00000013          	nop
    1728:	00000013          	nop
    172c:	00000013          	nop
    1730:	00000013          	nop
    1734:	00000013          	nop
    1738:	00000013          	nop
    173c:	00000013          	nop
    1740:	00000013          	nop
    1744:	00000013          	nop
    1748:	00000013          	nop
    174c:	00000013          	nop
    1750:	00000013          	nop
    1754:	00000013          	nop
    1758:	00000013          	nop
    175c:	00000013          	nop
    1760:	00000013          	nop
    1764:	00000013          	nop
    1768:	00000013          	nop
    176c:	00000013          	nop
    1770:	00000013          	nop
    1774:	00000013          	nop
    1778:	00000013          	nop
    177c:	00000013          	nop
    1780:	00000013          	nop
    1784:	00000013          	nop
    1788:	00000013          	nop
    178c:	00000013          	nop
    1790:	00000013          	nop
    1794:	00000013          	nop
    1798:	00000013          	nop
    179c:	00000013          	nop
    17a0:	00000013          	nop
    17a4:	00000013          	nop
    17a8:	00000013          	nop
    17ac:	00000013          	nop
    17b0:	00000013          	nop
    17b4:	00000013          	nop
    17b8:	00000013          	nop
    17bc:	00000013          	nop
    17c0:	00000013          	nop
    17c4:	00000013          	nop
    17c8:	00000013          	nop
    17cc:	00000013          	nop
    17d0:	00000013          	nop
    17d4:	00000013          	nop
    17d8:	00000013          	nop
    17dc:	00000013          	nop
    17e0:	00000013          	nop
    17e4:	00000013          	nop
    17e8:	00000013          	nop
    17ec:	00000013          	nop
    17f0:	00000013          	nop
    17f4:	00000013          	nop
    17f8:	00000013          	nop
    17fc:	00000013          	nop
    1800:	00000013          	nop
    1804:	00000013          	nop
    1808:	00000013          	nop
    180c:	00000013          	nop
    1810:	00000013          	nop
    1814:	00000013          	nop
    1818:	00000013          	nop
    181c:	00000013          	nop
    1820:	00000013          	nop
    1824:	00000013          	nop
    1828:	00000013          	nop
    182c:	00000013          	nop
    1830:	00000013          	nop
    1834:	00000013          	nop
    1838:	00000013          	nop
    183c:	00000013          	nop
    1840:	00000013          	nop
    1844:	00000013          	nop
    1848:	00000013          	nop
    184c:	00000013          	nop
    1850:	00000013          	nop
    1854:	00000013          	nop
    1858:	00000013          	nop
    185c:	00000013          	nop
    1860:	00000013          	nop
    1864:	00000013          	nop
    1868:	00000013          	nop
    186c:	00000013          	nop
    1870:	00000013          	nop
    1874:	00000013          	nop
    1878:	00000013          	nop
    187c:	00000013          	nop
    1880:	00000013          	nop
    1884:	00000013          	nop
    1888:	00000013          	nop
    188c:	00000013          	nop
    1890:	00000013          	nop
    1894:	00000013          	nop
    1898:	00000013          	nop
    189c:	00000013          	nop
    18a0:	00000013          	nop
    18a4:	00000013          	nop
    18a8:	00000013          	nop
    18ac:	00000013          	nop
    18b0:	00000013          	nop
    18b4:	00000013          	nop
    18b8:	00000013          	nop
    18bc:	00000013          	nop
    18c0:	00000013          	nop
    18c4:	00000013          	nop
    18c8:	00000013          	nop
    18cc:	00000013          	nop
    18d0:	00000013          	nop
    18d4:	00000013          	nop
    18d8:	00000013          	nop
    18dc:	00000013          	nop
    18e0:	00000013          	nop
    18e4:	00000013          	nop
    18e8:	00000013          	nop
    18ec:	00000013          	nop
    18f0:	00000013          	nop
    18f4:	00000013          	nop
    18f8:	00000013          	nop
    18fc:	00000013          	nop
    1900:	00000013          	nop
    1904:	00000013          	nop
    1908:	00000013          	nop
    190c:	00000013          	nop
    1910:	00000013          	nop
    1914:	00000013          	nop
    1918:	00000013          	nop
    191c:	00000013          	nop
    1920:	00000013          	nop
    1924:	00000013          	nop
    1928:	00000013          	nop
    192c:	00000013          	nop
    1930:	00000013          	nop
    1934:	00000013          	nop
    1938:	00000013          	nop
    193c:	00000013          	nop
    1940:	00000013          	nop
    1944:	00000013          	nop
    1948:	00000013          	nop
    194c:	00000013          	nop
    1950:	00000013          	nop
    1954:	00000013          	nop
    1958:	00000013          	nop
    195c:	00000013          	nop
    1960:	00000013          	nop
    1964:	00000013          	nop
    1968:	00000013          	nop
    196c:	00000013          	nop
    1970:	00000013          	nop
    1974:	00000013          	nop
    1978:	00000013          	nop
    197c:	00000013          	nop
    1980:	00000013          	nop
    1984:	00000013          	nop
    1988:	00000013          	nop
    198c:	00000013          	nop
    1990:	00000013          	nop
    1994:	00000013          	nop
    1998:	00000013          	nop
    199c:	00000013          	nop
    19a0:	00000013          	nop
    19a4:	00000013          	nop
    19a8:	00000013          	nop
    19ac:	00000013          	nop
    19b0:	00000013          	nop
    19b4:	00000013          	nop
    19b8:	00000013          	nop
    19bc:	00000013          	nop
    19c0:	00000013          	nop
    19c4:	00000013          	nop
    19c8:	00000013          	nop
    19cc:	00000013          	nop
    19d0:	00000013          	nop
    19d4:	00000013          	nop
    19d8:	00000013          	nop
    19dc:	00000013          	nop
    19e0:	00000013          	nop
    19e4:	00000013          	nop
    19e8:	00000013          	nop
    19ec:	00000013          	nop
    19f0:	00000013          	nop
    19f4:	00000013          	nop
    19f8:	00000013          	nop
    19fc:	00000013          	nop
    1a00:	00000013          	nop
    1a04:	00000013          	nop
    1a08:	00000013          	nop
    1a0c:	00000013          	nop
    1a10:	00000013          	nop
    1a14:	00000013          	nop
    1a18:	00000013          	nop
    1a1c:	00000013          	nop
    1a20:	00000013          	nop
    1a24:	00000013          	nop
    1a28:	00000013          	nop
    1a2c:	00000013          	nop
    1a30:	00000013          	nop
    1a34:	00000013          	nop
    1a38:	00000013          	nop
    1a3c:	00000013          	nop
    1a40:	00000013          	nop
    1a44:	00000013          	nop
    1a48:	00000013          	nop
    1a4c:	00000013          	nop
    1a50:	00000013          	nop
    1a54:	00000013          	nop
    1a58:	00000013          	nop
    1a5c:	00000013          	nop
    1a60:	00000013          	nop
    1a64:	00000013          	nop
    1a68:	00000013          	nop
    1a6c:	00000013          	nop
    1a70:	00000013          	nop
    1a74:	00000013          	nop
    1a78:	00000013          	nop
    1a7c:	00000013          	nop
    1a80:	00000013          	nop
    1a84:	00000013          	nop
    1a88:	00000013          	nop
    1a8c:	00000013          	nop
    1a90:	00000013          	nop
    1a94:	00000013          	nop
    1a98:	00000013          	nop
    1a9c:	00000013          	nop
    1aa0:	00000013          	nop
    1aa4:	00000013          	nop
    1aa8:	00000013          	nop
    1aac:	00000013          	nop
    1ab0:	00000013          	nop
    1ab4:	00000013          	nop
    1ab8:	00000013          	nop
    1abc:	00000013          	nop
    1ac0:	00000013          	nop
    1ac4:	00000013          	nop
    1ac8:	00000013          	nop
    1acc:	00000013          	nop
    1ad0:	00000013          	nop
    1ad4:	00000013          	nop
    1ad8:	00000013          	nop
    1adc:	00000013          	nop
    1ae0:	00000013          	nop
    1ae4:	00000013          	nop
    1ae8:	00000013          	nop
    1aec:	00000013          	nop
    1af0:	00000013          	nop
    1af4:	00000013          	nop
    1af8:	00000013          	nop
    1afc:	00000013          	nop
    1b00:	00000013          	nop
    1b04:	00000013          	nop
    1b08:	00000013          	nop
    1b0c:	00000013          	nop
    1b10:	00000013          	nop
    1b14:	00000013          	nop
    1b18:	00000013          	nop
    1b1c:	00000013          	nop
    1b20:	00000013          	nop
    1b24:	00000013          	nop
    1b28:	00000013          	nop
    1b2c:	00000013          	nop
    1b30:	00000013          	nop
    1b34:	00000013          	nop
    1b38:	00000013          	nop
    1b3c:	00000013          	nop
    1b40:	00000013          	nop
    1b44:	00000013          	nop
    1b48:	00000013          	nop
    1b4c:	00000013          	nop
    1b50:	00000013          	nop
    1b54:	00000013          	nop
    1b58:	00000013          	nop
    1b5c:	00000013          	nop
    1b60:	00000013          	nop
    1b64:	00000013          	nop
    1b68:	00000013          	nop
    1b6c:	00000013          	nop
    1b70:	00000013          	nop
    1b74:	00000013          	nop
    1b78:	00000013          	nop
    1b7c:	00000013          	nop
    1b80:	00000013          	nop
    1b84:	00000013          	nop
    1b88:	00000013          	nop
    1b8c:	00000013          	nop
    1b90:	00000013          	nop
    1b94:	00000013          	nop
    1b98:	00000013          	nop
    1b9c:	00000013          	nop
    1ba0:	00000013          	nop
    1ba4:	00000013          	nop
    1ba8:	00000013          	nop
    1bac:	00000013          	nop
    1bb0:	00000013          	nop
    1bb4:	00000013          	nop
    1bb8:	00000013          	nop
    1bbc:	00000013          	nop
    1bc0:	00000013          	nop
    1bc4:	00000013          	nop
    1bc8:	00000013          	nop
    1bcc:	00000013          	nop
    1bd0:	00000013          	nop
    1bd4:	00000013          	nop
    1bd8:	00000013          	nop
    1bdc:	00000013          	nop
    1be0:	00000013          	nop
    1be4:	00000013          	nop
    1be8:	00000013          	nop
    1bec:	00000013          	nop
    1bf0:	00000013          	nop
    1bf4:	00000013          	nop
    1bf8:	00000013          	nop
    1bfc:	00000013          	nop
    1c00:	00000013          	nop
    1c04:	00000013          	nop
    1c08:	00000013          	nop
    1c0c:	00000013          	nop
    1c10:	00000013          	nop
    1c14:	00000013          	nop
    1c18:	00000013          	nop
    1c1c:	00000013          	nop
    1c20:	00000013          	nop
    1c24:	00000013          	nop
    1c28:	00000013          	nop
    1c2c:	00000013          	nop
    1c30:	00000013          	nop
    1c34:	00000013          	nop
    1c38:	00000013          	nop
    1c3c:	00000013          	nop
    1c40:	00000013          	nop
    1c44:	00000013          	nop
    1c48:	00000013          	nop
    1c4c:	00000013          	nop
    1c50:	00000013          	nop
    1c54:	00000013          	nop
    1c58:	00000013          	nop
    1c5c:	00000013          	nop
    1c60:	00000013          	nop
    1c64:	00000013          	nop
    1c68:	00000013          	nop
    1c6c:	00000013          	nop
    1c70:	00000013          	nop
    1c74:	00000013          	nop
    1c78:	00000013          	nop
    1c7c:	00000013          	nop
    1c80:	00000013          	nop
    1c84:	00000013          	nop
    1c88:	00000013          	nop
    1c8c:	00000013          	nop
    1c90:	00000013          	nop
    1c94:	00000013          	nop
    1c98:	00000013          	nop
    1c9c:	00000013          	nop
    1ca0:	00000013          	nop
    1ca4:	00000013          	nop
    1ca8:	00000013          	nop
    1cac:	00000013          	nop
    1cb0:	00000013          	nop
    1cb4:	00000013          	nop
    1cb8:	00000013          	nop
    1cbc:	00000013          	nop
    1cc0:	00000013          	nop
    1cc4:	00000013          	nop
    1cc8:	818750e3          	bge	a4,s8,14c8 <inst_6+0x14>
    1ccc:	00218193          	addi	gp,gp,2
    1cd0:	00c0006f          	j	1cdc <inst_6+0x828>
    1cd4:	00318193          	addi	gp,gp,3
    1cd8:	0040006f          	j	1cdc <inst_6+0x828>
    1cdc:	0030ac23          	sw	gp,24(ra)

00001ce0 <inst_7>:
    1ce0:	ffff5eb7          	lui	t4,0xffff5
    1ce4:	afce8e93          	addi	t4,t4,-1284 # ffff4afc <_end+0xfffb9af8>
    1ce8:	000108b7          	lui	a7,0x10
    1cec:	00000193          	li	gp,0
    1cf0:	0050006f          	j	24f4 <inst_7+0x814>
    1cf4:	00118193          	addi	gp,gp,1
    1cf8:	0110006f          	j	2508 <inst_7+0x828>
    1cfc:	00000013          	nop
    1d00:	00000013          	nop
    1d04:	00000013          	nop
    1d08:	00000013          	nop
    1d0c:	00000013          	nop
    1d10:	00000013          	nop
    1d14:	00000013          	nop
    1d18:	00000013          	nop
    1d1c:	00000013          	nop
    1d20:	00000013          	nop
    1d24:	00000013          	nop
    1d28:	00000013          	nop
    1d2c:	00000013          	nop
    1d30:	00000013          	nop
    1d34:	00000013          	nop
    1d38:	00000013          	nop
    1d3c:	00000013          	nop
    1d40:	00000013          	nop
    1d44:	00000013          	nop
    1d48:	00000013          	nop
    1d4c:	00000013          	nop
    1d50:	00000013          	nop
    1d54:	00000013          	nop
    1d58:	00000013          	nop
    1d5c:	00000013          	nop
    1d60:	00000013          	nop
    1d64:	00000013          	nop
    1d68:	00000013          	nop
    1d6c:	00000013          	nop
    1d70:	00000013          	nop
    1d74:	00000013          	nop
    1d78:	00000013          	nop
    1d7c:	00000013          	nop
    1d80:	00000013          	nop
    1d84:	00000013          	nop
    1d88:	00000013          	nop
    1d8c:	00000013          	nop
    1d90:	00000013          	nop
    1d94:	00000013          	nop
    1d98:	00000013          	nop
    1d9c:	00000013          	nop
    1da0:	00000013          	nop
    1da4:	00000013          	nop
    1da8:	00000013          	nop
    1dac:	00000013          	nop
    1db0:	00000013          	nop
    1db4:	00000013          	nop
    1db8:	00000013          	nop
    1dbc:	00000013          	nop
    1dc0:	00000013          	nop
    1dc4:	00000013          	nop
    1dc8:	00000013          	nop
    1dcc:	00000013          	nop
    1dd0:	00000013          	nop
    1dd4:	00000013          	nop
    1dd8:	00000013          	nop
    1ddc:	00000013          	nop
    1de0:	00000013          	nop
    1de4:	00000013          	nop
    1de8:	00000013          	nop
    1dec:	00000013          	nop
    1df0:	00000013          	nop
    1df4:	00000013          	nop
    1df8:	00000013          	nop
    1dfc:	00000013          	nop
    1e00:	00000013          	nop
    1e04:	00000013          	nop
    1e08:	00000013          	nop
    1e0c:	00000013          	nop
    1e10:	00000013          	nop
    1e14:	00000013          	nop
    1e18:	00000013          	nop
    1e1c:	00000013          	nop
    1e20:	00000013          	nop
    1e24:	00000013          	nop
    1e28:	00000013          	nop
    1e2c:	00000013          	nop
    1e30:	00000013          	nop
    1e34:	00000013          	nop
    1e38:	00000013          	nop
    1e3c:	00000013          	nop
    1e40:	00000013          	nop
    1e44:	00000013          	nop
    1e48:	00000013          	nop
    1e4c:	00000013          	nop
    1e50:	00000013          	nop
    1e54:	00000013          	nop
    1e58:	00000013          	nop
    1e5c:	00000013          	nop
    1e60:	00000013          	nop
    1e64:	00000013          	nop
    1e68:	00000013          	nop
    1e6c:	00000013          	nop
    1e70:	00000013          	nop
    1e74:	00000013          	nop
    1e78:	00000013          	nop
    1e7c:	00000013          	nop
    1e80:	00000013          	nop
    1e84:	00000013          	nop
    1e88:	00000013          	nop
    1e8c:	00000013          	nop
    1e90:	00000013          	nop
    1e94:	00000013          	nop
    1e98:	00000013          	nop
    1e9c:	00000013          	nop
    1ea0:	00000013          	nop
    1ea4:	00000013          	nop
    1ea8:	00000013          	nop
    1eac:	00000013          	nop
    1eb0:	00000013          	nop
    1eb4:	00000013          	nop
    1eb8:	00000013          	nop
    1ebc:	00000013          	nop
    1ec0:	00000013          	nop
    1ec4:	00000013          	nop
    1ec8:	00000013          	nop
    1ecc:	00000013          	nop
    1ed0:	00000013          	nop
    1ed4:	00000013          	nop
    1ed8:	00000013          	nop
    1edc:	00000013          	nop
    1ee0:	00000013          	nop
    1ee4:	00000013          	nop
    1ee8:	00000013          	nop
    1eec:	00000013          	nop
    1ef0:	00000013          	nop
    1ef4:	00000013          	nop
    1ef8:	00000013          	nop
    1efc:	00000013          	nop
    1f00:	00000013          	nop
    1f04:	00000013          	nop
    1f08:	00000013          	nop
    1f0c:	00000013          	nop
    1f10:	00000013          	nop
    1f14:	00000013          	nop
    1f18:	00000013          	nop
    1f1c:	00000013          	nop
    1f20:	00000013          	nop
    1f24:	00000013          	nop
    1f28:	00000013          	nop
    1f2c:	00000013          	nop
    1f30:	00000013          	nop
    1f34:	00000013          	nop
    1f38:	00000013          	nop
    1f3c:	00000013          	nop
    1f40:	00000013          	nop
    1f44:	00000013          	nop
    1f48:	00000013          	nop
    1f4c:	00000013          	nop
    1f50:	00000013          	nop
    1f54:	00000013          	nop
    1f58:	00000013          	nop
    1f5c:	00000013          	nop
    1f60:	00000013          	nop
    1f64:	00000013          	nop
    1f68:	00000013          	nop
    1f6c:	00000013          	nop
    1f70:	00000013          	nop
    1f74:	00000013          	nop
    1f78:	00000013          	nop
    1f7c:	00000013          	nop
    1f80:	00000013          	nop
    1f84:	00000013          	nop
    1f88:	00000013          	nop
    1f8c:	00000013          	nop
    1f90:	00000013          	nop
    1f94:	00000013          	nop
    1f98:	00000013          	nop
    1f9c:	00000013          	nop
    1fa0:	00000013          	nop
    1fa4:	00000013          	nop
    1fa8:	00000013          	nop
    1fac:	00000013          	nop
    1fb0:	00000013          	nop
    1fb4:	00000013          	nop
    1fb8:	00000013          	nop
    1fbc:	00000013          	nop
    1fc0:	00000013          	nop
    1fc4:	00000013          	nop
    1fc8:	00000013          	nop
    1fcc:	00000013          	nop
    1fd0:	00000013          	nop
    1fd4:	00000013          	nop
    1fd8:	00000013          	nop
    1fdc:	00000013          	nop
    1fe0:	00000013          	nop
    1fe4:	00000013          	nop
    1fe8:	00000013          	nop
    1fec:	00000013          	nop
    1ff0:	00000013          	nop
    1ff4:	00000013          	nop
    1ff8:	00000013          	nop
    1ffc:	00000013          	nop
    2000:	00000013          	nop
    2004:	00000013          	nop
    2008:	00000013          	nop
    200c:	00000013          	nop
    2010:	00000013          	nop
    2014:	00000013          	nop
    2018:	00000013          	nop
    201c:	00000013          	nop
    2020:	00000013          	nop
    2024:	00000013          	nop
    2028:	00000013          	nop
    202c:	00000013          	nop
    2030:	00000013          	nop
    2034:	00000013          	nop
    2038:	00000013          	nop
    203c:	00000013          	nop
    2040:	00000013          	nop
    2044:	00000013          	nop
    2048:	00000013          	nop
    204c:	00000013          	nop
    2050:	00000013          	nop
    2054:	00000013          	nop
    2058:	00000013          	nop
    205c:	00000013          	nop
    2060:	00000013          	nop
    2064:	00000013          	nop
    2068:	00000013          	nop
    206c:	00000013          	nop
    2070:	00000013          	nop
    2074:	00000013          	nop
    2078:	00000013          	nop
    207c:	00000013          	nop
    2080:	00000013          	nop
    2084:	00000013          	nop
    2088:	00000013          	nop
    208c:	00000013          	nop
    2090:	00000013          	nop
    2094:	00000013          	nop
    2098:	00000013          	nop
    209c:	00000013          	nop
    20a0:	00000013          	nop
    20a4:	00000013          	nop
    20a8:	00000013          	nop
    20ac:	00000013          	nop
    20b0:	00000013          	nop
    20b4:	00000013          	nop
    20b8:	00000013          	nop
    20bc:	00000013          	nop
    20c0:	00000013          	nop
    20c4:	00000013          	nop
    20c8:	00000013          	nop
    20cc:	00000013          	nop
    20d0:	00000013          	nop
    20d4:	00000013          	nop
    20d8:	00000013          	nop
    20dc:	00000013          	nop
    20e0:	00000013          	nop
    20e4:	00000013          	nop
    20e8:	00000013          	nop
    20ec:	00000013          	nop
    20f0:	00000013          	nop
    20f4:	00000013          	nop
    20f8:	00000013          	nop
    20fc:	00000013          	nop
    2100:	00000013          	nop
    2104:	00000013          	nop
    2108:	00000013          	nop
    210c:	00000013          	nop
    2110:	00000013          	nop
    2114:	00000013          	nop
    2118:	00000013          	nop
    211c:	00000013          	nop
    2120:	00000013          	nop
    2124:	00000013          	nop
    2128:	00000013          	nop
    212c:	00000013          	nop
    2130:	00000013          	nop
    2134:	00000013          	nop
    2138:	00000013          	nop
    213c:	00000013          	nop
    2140:	00000013          	nop
    2144:	00000013          	nop
    2148:	00000013          	nop
    214c:	00000013          	nop
    2150:	00000013          	nop
    2154:	00000013          	nop
    2158:	00000013          	nop
    215c:	00000013          	nop
    2160:	00000013          	nop
    2164:	00000013          	nop
    2168:	00000013          	nop
    216c:	00000013          	nop
    2170:	00000013          	nop
    2174:	00000013          	nop
    2178:	00000013          	nop
    217c:	00000013          	nop
    2180:	00000013          	nop
    2184:	00000013          	nop
    2188:	00000013          	nop
    218c:	00000013          	nop
    2190:	00000013          	nop
    2194:	00000013          	nop
    2198:	00000013          	nop
    219c:	00000013          	nop
    21a0:	00000013          	nop
    21a4:	00000013          	nop
    21a8:	00000013          	nop
    21ac:	00000013          	nop
    21b0:	00000013          	nop
    21b4:	00000013          	nop
    21b8:	00000013          	nop
    21bc:	00000013          	nop
    21c0:	00000013          	nop
    21c4:	00000013          	nop
    21c8:	00000013          	nop
    21cc:	00000013          	nop
    21d0:	00000013          	nop
    21d4:	00000013          	nop
    21d8:	00000013          	nop
    21dc:	00000013          	nop
    21e0:	00000013          	nop
    21e4:	00000013          	nop
    21e8:	00000013          	nop
    21ec:	00000013          	nop
    21f0:	00000013          	nop
    21f4:	00000013          	nop
    21f8:	00000013          	nop
    21fc:	00000013          	nop
    2200:	00000013          	nop
    2204:	00000013          	nop
    2208:	00000013          	nop
    220c:	00000013          	nop
    2210:	00000013          	nop
    2214:	00000013          	nop
    2218:	00000013          	nop
    221c:	00000013          	nop
    2220:	00000013          	nop
    2224:	00000013          	nop
    2228:	00000013          	nop
    222c:	00000013          	nop
    2230:	00000013          	nop
    2234:	00000013          	nop
    2238:	00000013          	nop
    223c:	00000013          	nop
    2240:	00000013          	nop
    2244:	00000013          	nop
    2248:	00000013          	nop
    224c:	00000013          	nop
    2250:	00000013          	nop
    2254:	00000013          	nop
    2258:	00000013          	nop
    225c:	00000013          	nop
    2260:	00000013          	nop
    2264:	00000013          	nop
    2268:	00000013          	nop
    226c:	00000013          	nop
    2270:	00000013          	nop
    2274:	00000013          	nop
    2278:	00000013          	nop
    227c:	00000013          	nop
    2280:	00000013          	nop
    2284:	00000013          	nop
    2288:	00000013          	nop
    228c:	00000013          	nop
    2290:	00000013          	nop
    2294:	00000013          	nop
    2298:	00000013          	nop
    229c:	00000013          	nop
    22a0:	00000013          	nop
    22a4:	00000013          	nop
    22a8:	00000013          	nop
    22ac:	00000013          	nop
    22b0:	00000013          	nop
    22b4:	00000013          	nop
    22b8:	00000013          	nop
    22bc:	00000013          	nop
    22c0:	00000013          	nop
    22c4:	00000013          	nop
    22c8:	00000013          	nop
    22cc:	00000013          	nop
    22d0:	00000013          	nop
    22d4:	00000013          	nop
    22d8:	00000013          	nop
    22dc:	00000013          	nop
    22e0:	00000013          	nop
    22e4:	00000013          	nop
    22e8:	00000013          	nop
    22ec:	00000013          	nop
    22f0:	00000013          	nop
    22f4:	00000013          	nop
    22f8:	00000013          	nop
    22fc:	00000013          	nop
    2300:	00000013          	nop
    2304:	00000013          	nop
    2308:	00000013          	nop
    230c:	00000013          	nop
    2310:	00000013          	nop
    2314:	00000013          	nop
    2318:	00000013          	nop
    231c:	00000013          	nop
    2320:	00000013          	nop
    2324:	00000013          	nop
    2328:	00000013          	nop
    232c:	00000013          	nop
    2330:	00000013          	nop
    2334:	00000013          	nop
    2338:	00000013          	nop
    233c:	00000013          	nop
    2340:	00000013          	nop
    2344:	00000013          	nop
    2348:	00000013          	nop
    234c:	00000013          	nop
    2350:	00000013          	nop
    2354:	00000013          	nop
    2358:	00000013          	nop
    235c:	00000013          	nop
    2360:	00000013          	nop
    2364:	00000013          	nop
    2368:	00000013          	nop
    236c:	00000013          	nop
    2370:	00000013          	nop
    2374:	00000013          	nop
    2378:	00000013          	nop
    237c:	00000013          	nop
    2380:	00000013          	nop
    2384:	00000013          	nop
    2388:	00000013          	nop
    238c:	00000013          	nop
    2390:	00000013          	nop
    2394:	00000013          	nop
    2398:	00000013          	nop
    239c:	00000013          	nop
    23a0:	00000013          	nop
    23a4:	00000013          	nop
    23a8:	00000013          	nop
    23ac:	00000013          	nop
    23b0:	00000013          	nop
    23b4:	00000013          	nop
    23b8:	00000013          	nop
    23bc:	00000013          	nop
    23c0:	00000013          	nop
    23c4:	00000013          	nop
    23c8:	00000013          	nop
    23cc:	00000013          	nop
    23d0:	00000013          	nop
    23d4:	00000013          	nop
    23d8:	00000013          	nop
    23dc:	00000013          	nop
    23e0:	00000013          	nop
    23e4:	00000013          	nop
    23e8:	00000013          	nop
    23ec:	00000013          	nop
    23f0:	00000013          	nop
    23f4:	00000013          	nop
    23f8:	00000013          	nop
    23fc:	00000013          	nop
    2400:	00000013          	nop
    2404:	00000013          	nop
    2408:	00000013          	nop
    240c:	00000013          	nop
    2410:	00000013          	nop
    2414:	00000013          	nop
    2418:	00000013          	nop
    241c:	00000013          	nop
    2420:	00000013          	nop
    2424:	00000013          	nop
    2428:	00000013          	nop
    242c:	00000013          	nop
    2430:	00000013          	nop
    2434:	00000013          	nop
    2438:	00000013          	nop
    243c:	00000013          	nop
    2440:	00000013          	nop
    2444:	00000013          	nop
    2448:	00000013          	nop
    244c:	00000013          	nop
    2450:	00000013          	nop
    2454:	00000013          	nop
    2458:	00000013          	nop
    245c:	00000013          	nop
    2460:	00000013          	nop
    2464:	00000013          	nop
    2468:	00000013          	nop
    246c:	00000013          	nop
    2470:	00000013          	nop
    2474:	00000013          	nop
    2478:	00000013          	nop
    247c:	00000013          	nop
    2480:	00000013          	nop
    2484:	00000013          	nop
    2488:	00000013          	nop
    248c:	00000013          	nop
    2490:	00000013          	nop
    2494:	00000013          	nop
    2498:	00000013          	nop
    249c:	00000013          	nop
    24a0:	00000013          	nop
    24a4:	00000013          	nop
    24a8:	00000013          	nop
    24ac:	00000013          	nop
    24b0:	00000013          	nop
    24b4:	00000013          	nop
    24b8:	00000013          	nop
    24bc:	00000013          	nop
    24c0:	00000013          	nop
    24c4:	00000013          	nop
    24c8:	00000013          	nop
    24cc:	00000013          	nop
    24d0:	00000013          	nop
    24d4:	00000013          	nop
    24d8:	00000013          	nop
    24dc:	00000013          	nop
    24e0:	00000013          	nop
    24e4:	00000013          	nop
    24e8:	00000013          	nop
    24ec:	00000013          	nop
    24f0:	00000013          	nop
    24f4:	811ed0e3          	bge	t4,a7,1cf4 <inst_7+0x14>
    24f8:	00218193          	addi	gp,gp,2
    24fc:	00c0006f          	j	2508 <inst_7+0x828>
    2500:	00318193          	addi	gp,gp,3
    2504:	0040006f          	j	2508 <inst_7+0x828>
    2508:	0030ae23          	sw	gp,28(ra)

0000250c <inst_8>:
    250c:	08000593          	li	a1,128
    2510:	00100993          	li	s3,1
    2514:	00000193          	li	gp,0
    2518:	00c0006f          	j	2524 <inst_8+0x18>
    251c:	00118193          	addi	gp,gp,1
    2520:	0180006f          	j	2538 <inst_8+0x2c>
    2524:	0135d663          	bge	a1,s3,2530 <inst_8+0x24>
    2528:	00218193          	addi	gp,gp,2
    252c:	00c0006f          	j	2538 <inst_8+0x2c>
    2530:	00318193          	addi	gp,gp,3
    2534:	0040006f          	j	2538 <inst_8+0x2c>
    2538:	0230a023          	sw	gp,32(ra)

0000253c <inst_9>:
    253c:	00400337          	lui	t1,0x400
    2540:	00800913          	li	s2,8
    2544:	00000193          	li	gp,0
    2548:	00c0006f          	j	2554 <inst_9+0x18>
    254c:	00118193          	addi	gp,gp,1
    2550:	0180006f          	j	2568 <inst_9+0x2c>
    2554:	01235663          	bge	t1,s2,2560 <inst_9+0x24>
    2558:	00218193          	addi	gp,gp,2
    255c:	00c0006f          	j	2568 <inst_9+0x2c>
    2560:	00318193          	addi	gp,gp,3
    2564:	0040006f          	j	2568 <inst_9+0x2c>
    2568:	0230a223          	sw	gp,36(ra)

0000256c <inst_10>:
    256c:	fff00e13          	li	t3,-1
    2570:	01000413          	li	s0,16
    2574:	00000193          	li	gp,0
    2578:	00c0006f          	j	2584 <inst_10+0x18>
    257c:	00118193          	addi	gp,gp,1
    2580:	40c0006f          	j	298c <inst_10+0x420>
    2584:	408e5063          	bge	t3,s0,2984 <inst_10+0x418>
    2588:	00218193          	addi	gp,gp,2
    258c:	4000006f          	j	298c <inst_10+0x420>
    2590:	00000013          	nop
    2594:	00000013          	nop
    2598:	00000013          	nop
    259c:	00000013          	nop
    25a0:	00000013          	nop
    25a4:	00000013          	nop
    25a8:	00000013          	nop
    25ac:	00000013          	nop
    25b0:	00000013          	nop
    25b4:	00000013          	nop
    25b8:	00000013          	nop
    25bc:	00000013          	nop
    25c0:	00000013          	nop
    25c4:	00000013          	nop
    25c8:	00000013          	nop
    25cc:	00000013          	nop
    25d0:	00000013          	nop
    25d4:	00000013          	nop
    25d8:	00000013          	nop
    25dc:	00000013          	nop
    25e0:	00000013          	nop
    25e4:	00000013          	nop
    25e8:	00000013          	nop
    25ec:	00000013          	nop
    25f0:	00000013          	nop
    25f4:	00000013          	nop
    25f8:	00000013          	nop
    25fc:	00000013          	nop
    2600:	00000013          	nop
    2604:	00000013          	nop
    2608:	00000013          	nop
    260c:	00000013          	nop
    2610:	00000013          	nop
    2614:	00000013          	nop
    2618:	00000013          	nop
    261c:	00000013          	nop
    2620:	00000013          	nop
    2624:	00000013          	nop
    2628:	00000013          	nop
    262c:	00000013          	nop
    2630:	00000013          	nop
    2634:	00000013          	nop
    2638:	00000013          	nop
    263c:	00000013          	nop
    2640:	00000013          	nop
    2644:	00000013          	nop
    2648:	00000013          	nop
    264c:	00000013          	nop
    2650:	00000013          	nop
    2654:	00000013          	nop
    2658:	00000013          	nop
    265c:	00000013          	nop
    2660:	00000013          	nop
    2664:	00000013          	nop
    2668:	00000013          	nop
    266c:	00000013          	nop
    2670:	00000013          	nop
    2674:	00000013          	nop
    2678:	00000013          	nop
    267c:	00000013          	nop
    2680:	00000013          	nop
    2684:	00000013          	nop
    2688:	00000013          	nop
    268c:	00000013          	nop
    2690:	00000013          	nop
    2694:	00000013          	nop
    2698:	00000013          	nop
    269c:	00000013          	nop
    26a0:	00000013          	nop
    26a4:	00000013          	nop
    26a8:	00000013          	nop
    26ac:	00000013          	nop
    26b0:	00000013          	nop
    26b4:	00000013          	nop
    26b8:	00000013          	nop
    26bc:	00000013          	nop
    26c0:	00000013          	nop
    26c4:	00000013          	nop
    26c8:	00000013          	nop
    26cc:	00000013          	nop
    26d0:	00000013          	nop
    26d4:	00000013          	nop
    26d8:	00000013          	nop
    26dc:	00000013          	nop
    26e0:	00000013          	nop
    26e4:	00000013          	nop
    26e8:	00000013          	nop
    26ec:	00000013          	nop
    26f0:	00000013          	nop
    26f4:	00000013          	nop
    26f8:	00000013          	nop
    26fc:	00000013          	nop
    2700:	00000013          	nop
    2704:	00000013          	nop
    2708:	00000013          	nop
    270c:	00000013          	nop
    2710:	00000013          	nop
    2714:	00000013          	nop
    2718:	00000013          	nop
    271c:	00000013          	nop
    2720:	00000013          	nop
    2724:	00000013          	nop
    2728:	00000013          	nop
    272c:	00000013          	nop
    2730:	00000013          	nop
    2734:	00000013          	nop
    2738:	00000013          	nop
    273c:	00000013          	nop
    2740:	00000013          	nop
    2744:	00000013          	nop
    2748:	00000013          	nop
    274c:	00000013          	nop
    2750:	00000013          	nop
    2754:	00000013          	nop
    2758:	00000013          	nop
    275c:	00000013          	nop
    2760:	00000013          	nop
    2764:	00000013          	nop
    2768:	00000013          	nop
    276c:	00000013          	nop
    2770:	00000013          	nop
    2774:	00000013          	nop
    2778:	00000013          	nop
    277c:	00000013          	nop
    2780:	00000013          	nop
    2784:	00000013          	nop
    2788:	00000013          	nop
    278c:	00000013          	nop
    2790:	00000013          	nop
    2794:	00000013          	nop
    2798:	00000013          	nop
    279c:	00000013          	nop
    27a0:	00000013          	nop
    27a4:	00000013          	nop
    27a8:	00000013          	nop
    27ac:	00000013          	nop
    27b0:	00000013          	nop
    27b4:	00000013          	nop
    27b8:	00000013          	nop
    27bc:	00000013          	nop
    27c0:	00000013          	nop
    27c4:	00000013          	nop
    27c8:	00000013          	nop
    27cc:	00000013          	nop
    27d0:	00000013          	nop
    27d4:	00000013          	nop
    27d8:	00000013          	nop
    27dc:	00000013          	nop
    27e0:	00000013          	nop
    27e4:	00000013          	nop
    27e8:	00000013          	nop
    27ec:	00000013          	nop
    27f0:	00000013          	nop
    27f4:	00000013          	nop
    27f8:	00000013          	nop
    27fc:	00000013          	nop
    2800:	00000013          	nop
    2804:	00000013          	nop
    2808:	00000013          	nop
    280c:	00000013          	nop
    2810:	00000013          	nop
    2814:	00000013          	nop
    2818:	00000013          	nop
    281c:	00000013          	nop
    2820:	00000013          	nop
    2824:	00000013          	nop
    2828:	00000013          	nop
    282c:	00000013          	nop
    2830:	00000013          	nop
    2834:	00000013          	nop
    2838:	00000013          	nop
    283c:	00000013          	nop
    2840:	00000013          	nop
    2844:	00000013          	nop
    2848:	00000013          	nop
    284c:	00000013          	nop
    2850:	00000013          	nop
    2854:	00000013          	nop
    2858:	00000013          	nop
    285c:	00000013          	nop
    2860:	00000013          	nop
    2864:	00000013          	nop
    2868:	00000013          	nop
    286c:	00000013          	nop
    2870:	00000013          	nop
    2874:	00000013          	nop
    2878:	00000013          	nop
    287c:	00000013          	nop
    2880:	00000013          	nop
    2884:	00000013          	nop
    2888:	00000013          	nop
    288c:	00000013          	nop
    2890:	00000013          	nop
    2894:	00000013          	nop
    2898:	00000013          	nop
    289c:	00000013          	nop
    28a0:	00000013          	nop
    28a4:	00000013          	nop
    28a8:	00000013          	nop
    28ac:	00000013          	nop
    28b0:	00000013          	nop
    28b4:	00000013          	nop
    28b8:	00000013          	nop
    28bc:	00000013          	nop
    28c0:	00000013          	nop
    28c4:	00000013          	nop
    28c8:	00000013          	nop
    28cc:	00000013          	nop
    28d0:	00000013          	nop
    28d4:	00000013          	nop
    28d8:	00000013          	nop
    28dc:	00000013          	nop
    28e0:	00000013          	nop
    28e4:	00000013          	nop
    28e8:	00000013          	nop
    28ec:	00000013          	nop
    28f0:	00000013          	nop
    28f4:	00000013          	nop
    28f8:	00000013          	nop
    28fc:	00000013          	nop
    2900:	00000013          	nop
    2904:	00000013          	nop
    2908:	00000013          	nop
    290c:	00000013          	nop
    2910:	00000013          	nop
    2914:	00000013          	nop
    2918:	00000013          	nop
    291c:	00000013          	nop
    2920:	00000013          	nop
    2924:	00000013          	nop
    2928:	00000013          	nop
    292c:	00000013          	nop
    2930:	00000013          	nop
    2934:	00000013          	nop
    2938:	00000013          	nop
    293c:	00000013          	nop
    2940:	00000013          	nop
    2944:	00000013          	nop
    2948:	00000013          	nop
    294c:	00000013          	nop
    2950:	00000013          	nop
    2954:	00000013          	nop
    2958:	00000013          	nop
    295c:	00000013          	nop
    2960:	00000013          	nop
    2964:	00000013          	nop
    2968:	00000013          	nop
    296c:	00000013          	nop
    2970:	00000013          	nop
    2974:	00000013          	nop
    2978:	00000013          	nop
    297c:	00000013          	nop
    2980:	00000013          	nop
    2984:	00318193          	addi	gp,gp,3
    2988:	0040006f          	j	298c <inst_10+0x420>
    298c:	0230a423          	sw	gp,40(ra)

00002990 <inst_11>:
    2990:	04000a13          	li	s4,64
    2994:	02000e93          	li	t4,32
    2998:	00000193          	li	gp,0
    299c:	00c0006f          	j	29a8 <inst_11+0x18>
    29a0:	00118193          	addi	gp,gp,1
    29a4:	01c0006f          	j	29c0 <inst_11+0x30>
    29a8:	01da5863          	bge	s4,t4,29b8 <inst_11+0x28>
    29ac:	00218193          	addi	gp,gp,2
    29b0:	0100006f          	j	29c0 <inst_11+0x30>
    29b4:	00000013          	nop
    29b8:	00318193          	addi	gp,gp,3
    29bc:	0040006f          	j	29c0 <inst_11+0x30>
    29c0:	0230a623          	sw	gp,44(ra)

000029c4 <inst_12>:
    29c4:	fff00c37          	lui	s8,0xfff00
    29c8:	fffc0c13          	addi	s8,s8,-1 # ffefffff <_end+0xffec4ffb>
    29cc:	04000213          	li	tp,64
    29d0:	00000193          	li	gp,0
    29d4:	00c0006f          	j	29e0 <inst_12+0x1c>
    29d8:	00118193          	addi	gp,gp,1
    29dc:	0180006f          	j	29f4 <inst_12+0x30>
    29e0:	004c5663          	bge	s8,tp,29ec <inst_12+0x28>
    29e4:	00218193          	addi	gp,gp,2
    29e8:	00c0006f          	j	29f4 <inst_12+0x30>
    29ec:	00318193          	addi	gp,gp,3
    29f0:	0040006f          	j	29f4 <inst_12+0x30>
    29f4:	0230a823          	sw	gp,48(ra)

000029f8 <inst_13>:
    29f8:	33333637          	lui	a2,0x33333
    29fc:	33360613          	addi	a2,a2,819 # 33333333 <_end+0x332f832f>
    2a00:	08000513          	li	a0,128
    2a04:	00000193          	li	gp,0
    2a08:	00c0006f          	j	2a14 <inst_13+0x1c>
    2a0c:	00118193          	addi	gp,gp,1
    2a10:	0180006f          	j	2a28 <inst_13+0x30>
    2a14:	fea65ce3          	bge	a2,a0,2a0c <inst_13+0x14>
    2a18:	00218193          	addi	gp,gp,2
    2a1c:	00c0006f          	j	2a28 <inst_13+0x30>
    2a20:	00318193          	addi	gp,gp,3
    2a24:	0040006f          	j	2a28 <inst_13+0x30>
    2a28:	0230aa23          	sw	gp,52(ra)

00002a2c <inst_14>:
    2a2c:	08000213          	li	tp,128
    2a30:	10000613          	li	a2,256
    2a34:	00000193          	li	gp,0
    2a38:	2b10006f          	j	34e8 <inst_14+0xabc>
    2a3c:	00118193          	addi	gp,gp,1
    2a40:	2bd0006f          	j	34fc <inst_14+0xad0>
    2a44:	00000013          	nop
    2a48:	00000013          	nop
    2a4c:	00000013          	nop
    2a50:	00000013          	nop
    2a54:	00000013          	nop
    2a58:	00000013          	nop
    2a5c:	00000013          	nop
    2a60:	00000013          	nop
    2a64:	00000013          	nop
    2a68:	00000013          	nop
    2a6c:	00000013          	nop
    2a70:	00000013          	nop
    2a74:	00000013          	nop
    2a78:	00000013          	nop
    2a7c:	00000013          	nop
    2a80:	00000013          	nop
    2a84:	00000013          	nop
    2a88:	00000013          	nop
    2a8c:	00000013          	nop
    2a90:	00000013          	nop
    2a94:	00000013          	nop
    2a98:	00000013          	nop
    2a9c:	00000013          	nop
    2aa0:	00000013          	nop
    2aa4:	00000013          	nop
    2aa8:	00000013          	nop
    2aac:	00000013          	nop
    2ab0:	00000013          	nop
    2ab4:	00000013          	nop
    2ab8:	00000013          	nop
    2abc:	00000013          	nop
    2ac0:	00000013          	nop
    2ac4:	00000013          	nop
    2ac8:	00000013          	nop
    2acc:	00000013          	nop
    2ad0:	00000013          	nop
    2ad4:	00000013          	nop
    2ad8:	00000013          	nop
    2adc:	00000013          	nop
    2ae0:	00000013          	nop
    2ae4:	00000013          	nop
    2ae8:	00000013          	nop
    2aec:	00000013          	nop
    2af0:	00000013          	nop
    2af4:	00000013          	nop
    2af8:	00000013          	nop
    2afc:	00000013          	nop
    2b00:	00000013          	nop
    2b04:	00000013          	nop
    2b08:	00000013          	nop
    2b0c:	00000013          	nop
    2b10:	00000013          	nop
    2b14:	00000013          	nop
    2b18:	00000013          	nop
    2b1c:	00000013          	nop
    2b20:	00000013          	nop
    2b24:	00000013          	nop
    2b28:	00000013          	nop
    2b2c:	00000013          	nop
    2b30:	00000013          	nop
    2b34:	00000013          	nop
    2b38:	00000013          	nop
    2b3c:	00000013          	nop
    2b40:	00000013          	nop
    2b44:	00000013          	nop
    2b48:	00000013          	nop
    2b4c:	00000013          	nop
    2b50:	00000013          	nop
    2b54:	00000013          	nop
    2b58:	00000013          	nop
    2b5c:	00000013          	nop
    2b60:	00000013          	nop
    2b64:	00000013          	nop
    2b68:	00000013          	nop
    2b6c:	00000013          	nop
    2b70:	00000013          	nop
    2b74:	00000013          	nop
    2b78:	00000013          	nop
    2b7c:	00000013          	nop
    2b80:	00000013          	nop
    2b84:	00000013          	nop
    2b88:	00000013          	nop
    2b8c:	00000013          	nop
    2b90:	00000013          	nop
    2b94:	00000013          	nop
    2b98:	00000013          	nop
    2b9c:	00000013          	nop
    2ba0:	00000013          	nop
    2ba4:	00000013          	nop
    2ba8:	00000013          	nop
    2bac:	00000013          	nop
    2bb0:	00000013          	nop
    2bb4:	00000013          	nop
    2bb8:	00000013          	nop
    2bbc:	00000013          	nop
    2bc0:	00000013          	nop
    2bc4:	00000013          	nop
    2bc8:	00000013          	nop
    2bcc:	00000013          	nop
    2bd0:	00000013          	nop
    2bd4:	00000013          	nop
    2bd8:	00000013          	nop
    2bdc:	00000013          	nop
    2be0:	00000013          	nop
    2be4:	00000013          	nop
    2be8:	00000013          	nop
    2bec:	00000013          	nop
    2bf0:	00000013          	nop
    2bf4:	00000013          	nop
    2bf8:	00000013          	nop
    2bfc:	00000013          	nop
    2c00:	00000013          	nop
    2c04:	00000013          	nop
    2c08:	00000013          	nop
    2c0c:	00000013          	nop
    2c10:	00000013          	nop
    2c14:	00000013          	nop
    2c18:	00000013          	nop
    2c1c:	00000013          	nop
    2c20:	00000013          	nop
    2c24:	00000013          	nop
    2c28:	00000013          	nop
    2c2c:	00000013          	nop
    2c30:	00000013          	nop
    2c34:	00000013          	nop
    2c38:	00000013          	nop
    2c3c:	00000013          	nop
    2c40:	00000013          	nop
    2c44:	00000013          	nop
    2c48:	00000013          	nop
    2c4c:	00000013          	nop
    2c50:	00000013          	nop
    2c54:	00000013          	nop
    2c58:	00000013          	nop
    2c5c:	00000013          	nop
    2c60:	00000013          	nop
    2c64:	00000013          	nop
    2c68:	00000013          	nop
    2c6c:	00000013          	nop
    2c70:	00000013          	nop
    2c74:	00000013          	nop
    2c78:	00000013          	nop
    2c7c:	00000013          	nop
    2c80:	00000013          	nop
    2c84:	00000013          	nop
    2c88:	00000013          	nop
    2c8c:	00000013          	nop
    2c90:	00000013          	nop
    2c94:	00000013          	nop
    2c98:	00000013          	nop
    2c9c:	00000013          	nop
    2ca0:	00000013          	nop
    2ca4:	00000013          	nop
    2ca8:	00000013          	nop
    2cac:	00000013          	nop
    2cb0:	00000013          	nop
    2cb4:	00000013          	nop
    2cb8:	00000013          	nop
    2cbc:	00000013          	nop
    2cc0:	00000013          	nop
    2cc4:	00000013          	nop
    2cc8:	00000013          	nop
    2ccc:	00000013          	nop
    2cd0:	00000013          	nop
    2cd4:	00000013          	nop
    2cd8:	00000013          	nop
    2cdc:	00000013          	nop
    2ce0:	00000013          	nop
    2ce4:	00000013          	nop
    2ce8:	00000013          	nop
    2cec:	00000013          	nop
    2cf0:	00000013          	nop
    2cf4:	00000013          	nop
    2cf8:	00000013          	nop
    2cfc:	00000013          	nop
    2d00:	00000013          	nop
    2d04:	00000013          	nop
    2d08:	00000013          	nop
    2d0c:	00000013          	nop
    2d10:	00000013          	nop
    2d14:	00000013          	nop
    2d18:	00000013          	nop
    2d1c:	00000013          	nop
    2d20:	00000013          	nop
    2d24:	00000013          	nop
    2d28:	00000013          	nop
    2d2c:	00000013          	nop
    2d30:	00000013          	nop
    2d34:	00000013          	nop
    2d38:	00000013          	nop
    2d3c:	00000013          	nop
    2d40:	00000013          	nop
    2d44:	00000013          	nop
    2d48:	00000013          	nop
    2d4c:	00000013          	nop
    2d50:	00000013          	nop
    2d54:	00000013          	nop
    2d58:	00000013          	nop
    2d5c:	00000013          	nop
    2d60:	00000013          	nop
    2d64:	00000013          	nop
    2d68:	00000013          	nop
    2d6c:	00000013          	nop
    2d70:	00000013          	nop
    2d74:	00000013          	nop
    2d78:	00000013          	nop
    2d7c:	00000013          	nop
    2d80:	00000013          	nop
    2d84:	00000013          	nop
    2d88:	00000013          	nop
    2d8c:	00000013          	nop
    2d90:	00000013          	nop
    2d94:	00000013          	nop
    2d98:	00000013          	nop
    2d9c:	00000013          	nop
    2da0:	00000013          	nop
    2da4:	00000013          	nop
    2da8:	00000013          	nop
    2dac:	00000013          	nop
    2db0:	00000013          	nop
    2db4:	00000013          	nop
    2db8:	00000013          	nop
    2dbc:	00000013          	nop
    2dc0:	00000013          	nop
    2dc4:	00000013          	nop
    2dc8:	00000013          	nop
    2dcc:	00000013          	nop
    2dd0:	00000013          	nop
    2dd4:	00000013          	nop
    2dd8:	00000013          	nop
    2ddc:	00000013          	nop
    2de0:	00000013          	nop
    2de4:	00000013          	nop
    2de8:	00000013          	nop
    2dec:	00000013          	nop
    2df0:	00000013          	nop
    2df4:	00000013          	nop
    2df8:	00000013          	nop
    2dfc:	00000013          	nop
    2e00:	00000013          	nop
    2e04:	00000013          	nop
    2e08:	00000013          	nop
    2e0c:	00000013          	nop
    2e10:	00000013          	nop
    2e14:	00000013          	nop
    2e18:	00000013          	nop
    2e1c:	00000013          	nop
    2e20:	00000013          	nop
    2e24:	00000013          	nop
    2e28:	00000013          	nop
    2e2c:	00000013          	nop
    2e30:	00000013          	nop
    2e34:	00000013          	nop
    2e38:	00000013          	nop
    2e3c:	00000013          	nop
    2e40:	00000013          	nop
    2e44:	00000013          	nop
    2e48:	00000013          	nop
    2e4c:	00000013          	nop
    2e50:	00000013          	nop
    2e54:	00000013          	nop
    2e58:	00000013          	nop
    2e5c:	00000013          	nop
    2e60:	00000013          	nop
    2e64:	00000013          	nop
    2e68:	00000013          	nop
    2e6c:	00000013          	nop
    2e70:	00000013          	nop
    2e74:	00000013          	nop
    2e78:	00000013          	nop
    2e7c:	00000013          	nop
    2e80:	00000013          	nop
    2e84:	00000013          	nop
    2e88:	00000013          	nop
    2e8c:	00000013          	nop
    2e90:	00000013          	nop
    2e94:	00000013          	nop
    2e98:	00000013          	nop
    2e9c:	00000013          	nop
    2ea0:	00000013          	nop
    2ea4:	00000013          	nop
    2ea8:	00000013          	nop
    2eac:	00000013          	nop
    2eb0:	00000013          	nop
    2eb4:	00000013          	nop
    2eb8:	00000013          	nop
    2ebc:	00000013          	nop
    2ec0:	00000013          	nop
    2ec4:	00000013          	nop
    2ec8:	00000013          	nop
    2ecc:	00000013          	nop
    2ed0:	00000013          	nop
    2ed4:	00000013          	nop
    2ed8:	00000013          	nop
    2edc:	00000013          	nop
    2ee0:	00000013          	nop
    2ee4:	00000013          	nop
    2ee8:	00000013          	nop
    2eec:	00000013          	nop
    2ef0:	00000013          	nop
    2ef4:	00000013          	nop
    2ef8:	00000013          	nop
    2efc:	00000013          	nop
    2f00:	00000013          	nop
    2f04:	00000013          	nop
    2f08:	00000013          	nop
    2f0c:	00000013          	nop
    2f10:	00000013          	nop
    2f14:	00000013          	nop
    2f18:	00000013          	nop
    2f1c:	00000013          	nop
    2f20:	00000013          	nop
    2f24:	00000013          	nop
    2f28:	00000013          	nop
    2f2c:	00000013          	nop
    2f30:	00000013          	nop
    2f34:	00000013          	nop
    2f38:	00000013          	nop
    2f3c:	00000013          	nop
    2f40:	00000013          	nop
    2f44:	00000013          	nop
    2f48:	00000013          	nop
    2f4c:	00000013          	nop
    2f50:	00000013          	nop
    2f54:	00000013          	nop
    2f58:	00000013          	nop
    2f5c:	00000013          	nop
    2f60:	00000013          	nop
    2f64:	00000013          	nop
    2f68:	00000013          	nop
    2f6c:	00000013          	nop
    2f70:	00000013          	nop
    2f74:	00000013          	nop
    2f78:	00000013          	nop
    2f7c:	00000013          	nop
    2f80:	00000013          	nop
    2f84:	00000013          	nop
    2f88:	00000013          	nop
    2f8c:	00000013          	nop
    2f90:	00000013          	nop
    2f94:	00000013          	nop
    2f98:	00000013          	nop
    2f9c:	00000013          	nop
    2fa0:	00000013          	nop
    2fa4:	00000013          	nop
    2fa8:	00000013          	nop
    2fac:	00000013          	nop
    2fb0:	00000013          	nop
    2fb4:	00000013          	nop
    2fb8:	00000013          	nop
    2fbc:	00000013          	nop
    2fc0:	00000013          	nop
    2fc4:	00000013          	nop
    2fc8:	00000013          	nop
    2fcc:	00000013          	nop
    2fd0:	00000013          	nop
    2fd4:	00000013          	nop
    2fd8:	00000013          	nop
    2fdc:	00000013          	nop
    2fe0:	00000013          	nop
    2fe4:	00000013          	nop
    2fe8:	00000013          	nop
    2fec:	00000013          	nop
    2ff0:	00000013          	nop
    2ff4:	00000013          	nop
    2ff8:	00000013          	nop
    2ffc:	00000013          	nop
    3000:	00000013          	nop
    3004:	00000013          	nop
    3008:	00000013          	nop
    300c:	00000013          	nop
    3010:	00000013          	nop
    3014:	00000013          	nop
    3018:	00000013          	nop
    301c:	00000013          	nop
    3020:	00000013          	nop
    3024:	00000013          	nop
    3028:	00000013          	nop
    302c:	00000013          	nop
    3030:	00000013          	nop
    3034:	00000013          	nop
    3038:	00000013          	nop
    303c:	00000013          	nop
    3040:	00000013          	nop
    3044:	00000013          	nop
    3048:	00000013          	nop
    304c:	00000013          	nop
    3050:	00000013          	nop
    3054:	00000013          	nop
    3058:	00000013          	nop
    305c:	00000013          	nop
    3060:	00000013          	nop
    3064:	00000013          	nop
    3068:	00000013          	nop
    306c:	00000013          	nop
    3070:	00000013          	nop
    3074:	00000013          	nop
    3078:	00000013          	nop
    307c:	00000013          	nop
    3080:	00000013          	nop
    3084:	00000013          	nop
    3088:	00000013          	nop
    308c:	00000013          	nop
    3090:	00000013          	nop
    3094:	00000013          	nop
    3098:	00000013          	nop
    309c:	00000013          	nop
    30a0:	00000013          	nop
    30a4:	00000013          	nop
    30a8:	00000013          	nop
    30ac:	00000013          	nop
    30b0:	00000013          	nop
    30b4:	00000013          	nop
    30b8:	00000013          	nop
    30bc:	00000013          	nop
    30c0:	00000013          	nop
    30c4:	00000013          	nop
    30c8:	00000013          	nop
    30cc:	00000013          	nop
    30d0:	00000013          	nop
    30d4:	00000013          	nop
    30d8:	00000013          	nop
    30dc:	00000013          	nop
    30e0:	00000013          	nop
    30e4:	00000013          	nop
    30e8:	00000013          	nop
    30ec:	00000013          	nop
    30f0:	00000013          	nop
    30f4:	00000013          	nop
    30f8:	00000013          	nop
    30fc:	00000013          	nop
    3100:	00000013          	nop
    3104:	00000013          	nop
    3108:	00000013          	nop
    310c:	00000013          	nop
    3110:	00000013          	nop
    3114:	00000013          	nop
    3118:	00000013          	nop
    311c:	00000013          	nop
    3120:	00000013          	nop
    3124:	00000013          	nop
    3128:	00000013          	nop
    312c:	00000013          	nop
    3130:	00000013          	nop
    3134:	00000013          	nop
    3138:	00000013          	nop
    313c:	00000013          	nop
    3140:	00000013          	nop
    3144:	00000013          	nop
    3148:	00000013          	nop
    314c:	00000013          	nop
    3150:	00000013          	nop
    3154:	00000013          	nop
    3158:	00000013          	nop
    315c:	00000013          	nop
    3160:	00000013          	nop
    3164:	00000013          	nop
    3168:	00000013          	nop
    316c:	00000013          	nop
    3170:	00000013          	nop
    3174:	00000013          	nop
    3178:	00000013          	nop
    317c:	00000013          	nop
    3180:	00000013          	nop
    3184:	00000013          	nop
    3188:	00000013          	nop
    318c:	00000013          	nop
    3190:	00000013          	nop
    3194:	00000013          	nop
    3198:	00000013          	nop
    319c:	00000013          	nop
    31a0:	00000013          	nop
    31a4:	00000013          	nop
    31a8:	00000013          	nop
    31ac:	00000013          	nop
    31b0:	00000013          	nop
    31b4:	00000013          	nop
    31b8:	00000013          	nop
    31bc:	00000013          	nop
    31c0:	00000013          	nop
    31c4:	00000013          	nop
    31c8:	00000013          	nop
    31cc:	00000013          	nop
    31d0:	00000013          	nop
    31d4:	00000013          	nop
    31d8:	00000013          	nop
    31dc:	00000013          	nop
    31e0:	00000013          	nop
    31e4:	00000013          	nop
    31e8:	00000013          	nop
    31ec:	00000013          	nop
    31f0:	00000013          	nop
    31f4:	00000013          	nop
    31f8:	00000013          	nop
    31fc:	00000013          	nop
    3200:	00000013          	nop
    3204:	00000013          	nop
    3208:	00000013          	nop
    320c:	00000013          	nop
    3210:	00000013          	nop
    3214:	00000013          	nop
    3218:	00000013          	nop
    321c:	00000013          	nop
    3220:	00000013          	nop
    3224:	00000013          	nop
    3228:	00000013          	nop
    322c:	00000013          	nop
    3230:	00000013          	nop
    3234:	00000013          	nop
    3238:	00000013          	nop
    323c:	00000013          	nop
    3240:	00000013          	nop
    3244:	00000013          	nop
    3248:	00000013          	nop
    324c:	00000013          	nop
    3250:	00000013          	nop
    3254:	00000013          	nop
    3258:	00000013          	nop
    325c:	00000013          	nop
    3260:	00000013          	nop
    3264:	00000013          	nop
    3268:	00000013          	nop
    326c:	00000013          	nop
    3270:	00000013          	nop
    3274:	00000013          	nop
    3278:	00000013          	nop
    327c:	00000013          	nop
    3280:	00000013          	nop
    3284:	00000013          	nop
    3288:	00000013          	nop
    328c:	00000013          	nop
    3290:	00000013          	nop
    3294:	00000013          	nop
    3298:	00000013          	nop
    329c:	00000013          	nop
    32a0:	00000013          	nop
    32a4:	00000013          	nop
    32a8:	00000013          	nop
    32ac:	00000013          	nop
    32b0:	00000013          	nop
    32b4:	00000013          	nop
    32b8:	00000013          	nop
    32bc:	00000013          	nop
    32c0:	00000013          	nop
    32c4:	00000013          	nop
    32c8:	00000013          	nop
    32cc:	00000013          	nop
    32d0:	00000013          	nop
    32d4:	00000013          	nop
    32d8:	00000013          	nop
    32dc:	00000013          	nop
    32e0:	00000013          	nop
    32e4:	00000013          	nop
    32e8:	00000013          	nop
    32ec:	00000013          	nop
    32f0:	00000013          	nop
    32f4:	00000013          	nop
    32f8:	00000013          	nop
    32fc:	00000013          	nop
    3300:	00000013          	nop
    3304:	00000013          	nop
    3308:	00000013          	nop
    330c:	00000013          	nop
    3310:	00000013          	nop
    3314:	00000013          	nop
    3318:	00000013          	nop
    331c:	00000013          	nop
    3320:	00000013          	nop
    3324:	00000013          	nop
    3328:	00000013          	nop
    332c:	00000013          	nop
    3330:	00000013          	nop
    3334:	00000013          	nop
    3338:	00000013          	nop
    333c:	00000013          	nop
    3340:	00000013          	nop
    3344:	00000013          	nop
    3348:	00000013          	nop
    334c:	00000013          	nop
    3350:	00000013          	nop
    3354:	00000013          	nop
    3358:	00000013          	nop
    335c:	00000013          	nop
    3360:	00000013          	nop
    3364:	00000013          	nop
    3368:	00000013          	nop
    336c:	00000013          	nop
    3370:	00000013          	nop
    3374:	00000013          	nop
    3378:	00000013          	nop
    337c:	00000013          	nop
    3380:	00000013          	nop
    3384:	00000013          	nop
    3388:	00000013          	nop
    338c:	00000013          	nop
    3390:	00000013          	nop
    3394:	00000013          	nop
    3398:	00000013          	nop
    339c:	00000013          	nop
    33a0:	00000013          	nop
    33a4:	00000013          	nop
    33a8:	00000013          	nop
    33ac:	00000013          	nop
    33b0:	00000013          	nop
    33b4:	00000013          	nop
    33b8:	00000013          	nop
    33bc:	00000013          	nop
    33c0:	00000013          	nop
    33c4:	00000013          	nop
    33c8:	00000013          	nop
    33cc:	00000013          	nop
    33d0:	00000013          	nop
    33d4:	00000013          	nop
    33d8:	00000013          	nop
    33dc:	00000013          	nop
    33e0:	00000013          	nop
    33e4:	00000013          	nop
    33e8:	00000013          	nop
    33ec:	00000013          	nop
    33f0:	00000013          	nop
    33f4:	00000013          	nop
    33f8:	00000013          	nop
    33fc:	00000013          	nop
    3400:	00000013          	nop
    3404:	00000013          	nop
    3408:	00000013          	nop
    340c:	00000013          	nop
    3410:	00000013          	nop
    3414:	00000013          	nop
    3418:	00000013          	nop
    341c:	00000013          	nop
    3420:	00000013          	nop
    3424:	00000013          	nop
    3428:	00000013          	nop
    342c:	00000013          	nop
    3430:	00000013          	nop
    3434:	00000013          	nop
    3438:	00000013          	nop
    343c:	00000013          	nop
    3440:	00000013          	nop
    3444:	00000013          	nop
    3448:	00000013          	nop
    344c:	00000013          	nop
    3450:	00000013          	nop
    3454:	00000013          	nop
    3458:	00000013          	nop
    345c:	00000013          	nop
    3460:	00000013          	nop
    3464:	00000013          	nop
    3468:	00000013          	nop
    346c:	00000013          	nop
    3470:	00000013          	nop
    3474:	00000013          	nop
    3478:	00000013          	nop
    347c:	00000013          	nop
    3480:	00000013          	nop
    3484:	00000013          	nop
    3488:	00000013          	nop
    348c:	00000013          	nop
    3490:	00000013          	nop
    3494:	00000013          	nop
    3498:	00000013          	nop
    349c:	00000013          	nop
    34a0:	00000013          	nop
    34a4:	00000013          	nop
    34a8:	00000013          	nop
    34ac:	00000013          	nop
    34b0:	00000013          	nop
    34b4:	00000013          	nop
    34b8:	00000013          	nop
    34bc:	00000013          	nop
    34c0:	00000013          	nop
    34c4:	00000013          	nop
    34c8:	00000013          	nop
    34cc:	00000013          	nop
    34d0:	00000013          	nop
    34d4:	00000013          	nop
    34d8:	00000013          	nop
    34dc:	00000013          	nop
    34e0:	00000013          	nop
    34e4:	00000013          	nop
    34e8:	d4c25a63          	bge	tp,a2,2a3c <inst_14+0x10>
    34ec:	00218193          	addi	gp,gp,2
    34f0:	00c0006f          	j	34fc <inst_14+0xad0>
    34f4:	00318193          	addi	gp,gp,3
    34f8:	0040006f          	j	34fc <inst_14+0xad0>
    34fc:	0230ac23          	sw	gp,56(ra)

00003500 <inst_15>:
    3500:	00000113          	li	sp,0
    3504:	00000013          	nop
    3508:	00000193          	li	gp,0
    350c:	0180006f          	j	3524 <inst_15+0x24>
    3510:	00118193          	addi	gp,gp,1
    3514:	0240006f          	j	3538 <inst_15+0x38>
    3518:	00000013          	nop
    351c:	00000013          	nop
    3520:	00000013          	nop
    3524:	fe0156e3          	bgez	sp,3510 <inst_15+0x10>
    3528:	00218193          	addi	gp,gp,2
    352c:	00c0006f          	j	3538 <inst_15+0x38>
    3530:	00318193          	addi	gp,gp,3
    3534:	0040006f          	j	3538 <inst_15+0x38>
    3538:	0230ae23          	sw	gp,60(ra)

0000353c <inst_16>:
    353c:	00800493          	li	s1,8
    3540:	40000b13          	li	s6,1024
    3544:	00000193          	li	gp,0
    3548:	0100006f          	j	3558 <inst_16+0x1c>
    354c:	00118193          	addi	gp,gp,1
    3550:	01c0006f          	j	356c <inst_16+0x30>
    3554:	00000013          	nop
    3558:	ff64dae3          	bge	s1,s6,354c <inst_16+0x10>
    355c:	00218193          	addi	gp,gp,2
    3560:	00c0006f          	j	356c <inst_16+0x30>
    3564:	00318193          	addi	gp,gp,3
    3568:	0040006f          	j	356c <inst_16+0x30>
    356c:	0430a023          	sw	gp,64(ra)

00003570 <inst_17>:
    3570:	00000893          	li	a7,0
    3574:	00001fb7          	lui	t6,0x1
    3578:	800f8f93          	addi	t6,t6,-2048 # 800 <offset+0x71c>
    357c:	00000193          	li	gp,0
    3580:	00c0006f          	j	358c <inst_17+0x1c>
    3584:	00118193          	addi	gp,gp,1
    3588:	0180006f          	j	35a0 <inst_17+0x30>
    358c:	fff8dce3          	bge	a7,t6,3584 <inst_17+0x14>
    3590:	00218193          	addi	gp,gp,2
    3594:	00c0006f          	j	35a0 <inst_17+0x30>
    3598:	00318193          	addi	gp,gp,3
    359c:	0040006f          	j	35a0 <inst_17+0x30>
    35a0:	0430a223          	sw	gp,68(ra)

000035a4 <inst_18>:
    35a4:	aaaab537          	lui	a0,0xaaaab
    35a8:	aaa50513          	addi	a0,a0,-1366 # aaaaaaaa <_end+0xaaa6faa6>
    35ac:	00001f37          	lui	t5,0x1
    35b0:	00000193          	li	gp,0
    35b4:	00c0006f          	j	35c0 <inst_18+0x1c>
    35b8:	00118193          	addi	gp,gp,1
    35bc:	02c0006f          	j	35e8 <inst_18+0x44>
    35c0:	03e55063          	bge	a0,t5,35e0 <inst_18+0x3c>
    35c4:	00218193          	addi	gp,gp,2
    35c8:	0200006f          	j	35e8 <inst_18+0x44>
    35cc:	00000013          	nop
    35d0:	00000013          	nop
    35d4:	00000013          	nop
    35d8:	00000013          	nop
    35dc:	00000013          	nop
    35e0:	00318193          	addi	gp,gp,3
    35e4:	0040006f          	j	35e8 <inst_18+0x44>
    35e8:	0430a423          	sw	gp,72(ra)

000035ec <inst_19>:
    35ec:	66666cb7          	lui	s9,0x66666
    35f0:	665c8c93          	addi	s9,s9,1637 # 66666665 <_end+0x6662b661>
    35f4:	000025b7          	lui	a1,0x2
    35f8:	00000193          	li	gp,0
    35fc:	00c0006f          	j	3608 <inst_19+0x1c>
    3600:	00118193          	addi	gp,gp,1
    3604:	0180006f          	j	361c <inst_19+0x30>
    3608:	00bcd663          	bge	s9,a1,3614 <inst_19+0x28>
    360c:	00218193          	addi	gp,gp,2
    3610:	00c0006f          	j	361c <inst_19+0x30>
    3614:	00318193          	addi	gp,gp,3
    3618:	0040006f          	j	361c <inst_19+0x30>
    361c:	0430a623          	sw	gp,76(ra)

00003620 <inst_20>:
    3620:	00500a93          	li	s5,5
    3624:	000046b7          	lui	a3,0x4
    3628:	00000613          	li	a2,0
    362c:	00c0006f          	j	3638 <inst_20+0x18>
    3630:	00160613          	addi	a2,a2,1
    3634:	10c0006f          	j	3740 <inst_20+0x120>
    3638:	10dad063          	bge	s5,a3,3738 <inst_20+0x118>
    363c:	00260613          	addi	a2,a2,2
    3640:	1000006f          	j	3740 <inst_20+0x120>
    3644:	00000013          	nop
    3648:	00000013          	nop
    364c:	00000013          	nop
    3650:	00000013          	nop
    3654:	00000013          	nop
    3658:	00000013          	nop
    365c:	00000013          	nop
    3660:	00000013          	nop
    3664:	00000013          	nop
    3668:	00000013          	nop
    366c:	00000013          	nop
    3670:	00000013          	nop
    3674:	00000013          	nop
    3678:	00000013          	nop
    367c:	00000013          	nop
    3680:	00000013          	nop
    3684:	00000013          	nop
    3688:	00000013          	nop
    368c:	00000013          	nop
    3690:	00000013          	nop
    3694:	00000013          	nop
    3698:	00000013          	nop
    369c:	00000013          	nop
    36a0:	00000013          	nop
    36a4:	00000013          	nop
    36a8:	00000013          	nop
    36ac:	00000013          	nop
    36b0:	00000013          	nop
    36b4:	00000013          	nop
    36b8:	00000013          	nop
    36bc:	00000013          	nop
    36c0:	00000013          	nop
    36c4:	00000013          	nop
    36c8:	00000013          	nop
    36cc:	00000013          	nop
    36d0:	00000013          	nop
    36d4:	00000013          	nop
    36d8:	00000013          	nop
    36dc:	00000013          	nop
    36e0:	00000013          	nop
    36e4:	00000013          	nop
    36e8:	00000013          	nop
    36ec:	00000013          	nop
    36f0:	00000013          	nop
    36f4:	00000013          	nop
    36f8:	00000013          	nop
    36fc:	00000013          	nop
    3700:	00000013          	nop
    3704:	00000013          	nop
    3708:	00000013          	nop
    370c:	00000013          	nop
    3710:	00000013          	nop
    3714:	00000013          	nop
    3718:	00000013          	nop
    371c:	00000013          	nop
    3720:	00000013          	nop
    3724:	00000013          	nop
    3728:	00000013          	nop
    372c:	00000013          	nop
    3730:	00000013          	nop
    3734:	00000013          	nop
    3738:	00360613          	addi	a2,a2,3
    373c:	0040006f          	j	3740 <inst_20+0x120>
    3740:	04c0a823          	sw	a2,80(ra)
    3744:	00037217          	auipc	tp,0x37
    3748:	92020213          	addi	tp,tp,-1760 # 3a064 <signature_x4_0>

0000374c <inst_21>:
    374c:	00080437          	lui	s0,0x80
    3750:	00008837          	lui	a6,0x8
    3754:	00000613          	li	a2,0
    3758:	00c0006f          	j	3764 <inst_21+0x18>
    375c:	00160613          	addi	a2,a2,1
    3760:	20c0006f          	j	396c <inst_21+0x220>
    3764:	21045063          	bge	s0,a6,3964 <inst_21+0x218>
    3768:	00260613          	addi	a2,a2,2
    376c:	2000006f          	j	396c <inst_21+0x220>
    3770:	00000013          	nop
    3774:	00000013          	nop
    3778:	00000013          	nop
    377c:	00000013          	nop
    3780:	00000013          	nop
    3784:	00000013          	nop
    3788:	00000013          	nop
    378c:	00000013          	nop
    3790:	00000013          	nop
    3794:	00000013          	nop
    3798:	00000013          	nop
    379c:	00000013          	nop
    37a0:	00000013          	nop
    37a4:	00000013          	nop
    37a8:	00000013          	nop
    37ac:	00000013          	nop
    37b0:	00000013          	nop
    37b4:	00000013          	nop
    37b8:	00000013          	nop
    37bc:	00000013          	nop
    37c0:	00000013          	nop
    37c4:	00000013          	nop
    37c8:	00000013          	nop
    37cc:	00000013          	nop
    37d0:	00000013          	nop
    37d4:	00000013          	nop
    37d8:	00000013          	nop
    37dc:	00000013          	nop
    37e0:	00000013          	nop
    37e4:	00000013          	nop
    37e8:	00000013          	nop
    37ec:	00000013          	nop
    37f0:	00000013          	nop
    37f4:	00000013          	nop
    37f8:	00000013          	nop
    37fc:	00000013          	nop
    3800:	00000013          	nop
    3804:	00000013          	nop
    3808:	00000013          	nop
    380c:	00000013          	nop
    3810:	00000013          	nop
    3814:	00000013          	nop
    3818:	00000013          	nop
    381c:	00000013          	nop
    3820:	00000013          	nop
    3824:	00000013          	nop
    3828:	00000013          	nop
    382c:	00000013          	nop
    3830:	00000013          	nop
    3834:	00000013          	nop
    3838:	00000013          	nop
    383c:	00000013          	nop
    3840:	00000013          	nop
    3844:	00000013          	nop
    3848:	00000013          	nop
    384c:	00000013          	nop
    3850:	00000013          	nop
    3854:	00000013          	nop
    3858:	00000013          	nop
    385c:	00000013          	nop
    3860:	00000013          	nop
    3864:	00000013          	nop
    3868:	00000013          	nop
    386c:	00000013          	nop
    3870:	00000013          	nop
    3874:	00000013          	nop
    3878:	00000013          	nop
    387c:	00000013          	nop
    3880:	00000013          	nop
    3884:	00000013          	nop
    3888:	00000013          	nop
    388c:	00000013          	nop
    3890:	00000013          	nop
    3894:	00000013          	nop
    3898:	00000013          	nop
    389c:	00000013          	nop
    38a0:	00000013          	nop
    38a4:	00000013          	nop
    38a8:	00000013          	nop
    38ac:	00000013          	nop
    38b0:	00000013          	nop
    38b4:	00000013          	nop
    38b8:	00000013          	nop
    38bc:	00000013          	nop
    38c0:	00000013          	nop
    38c4:	00000013          	nop
    38c8:	00000013          	nop
    38cc:	00000013          	nop
    38d0:	00000013          	nop
    38d4:	00000013          	nop
    38d8:	00000013          	nop
    38dc:	00000013          	nop
    38e0:	00000013          	nop
    38e4:	00000013          	nop
    38e8:	00000013          	nop
    38ec:	00000013          	nop
    38f0:	00000013          	nop
    38f4:	00000013          	nop
    38f8:	00000013          	nop
    38fc:	00000013          	nop
    3900:	00000013          	nop
    3904:	00000013          	nop
    3908:	00000013          	nop
    390c:	00000013          	nop
    3910:	00000013          	nop
    3914:	00000013          	nop
    3918:	00000013          	nop
    391c:	00000013          	nop
    3920:	00000013          	nop
    3924:	00000013          	nop
    3928:	00000013          	nop
    392c:	00000013          	nop
    3930:	00000013          	nop
    3934:	00000013          	nop
    3938:	00000013          	nop
    393c:	00000013          	nop
    3940:	00000013          	nop
    3944:	00000013          	nop
    3948:	00000013          	nop
    394c:	00000013          	nop
    3950:	00000013          	nop
    3954:	00000013          	nop
    3958:	00000013          	nop
    395c:	00000013          	nop
    3960:	00000013          	nop
    3964:	00360613          	addi	a2,a2,3
    3968:	0040006f          	j	396c <inst_21+0x220>
    396c:	00c22023          	sw	a2,0(tp) # 0 <num-0xd>

00003970 <inst_22>:
    3970:	00000913          	li	s2,0
    3974:	000200b7          	lui	ra,0x20
    3978:	00000613          	li	a2,0
    397c:	00c0006f          	j	3988 <inst_22+0x18>
    3980:	00160613          	addi	a2,a2,1
    3984:	0180006f          	j	399c <inst_22+0x2c>
    3988:	00195663          	bge	s2,ra,3994 <inst_22+0x24>
    398c:	00260613          	addi	a2,a2,2
    3990:	00c0006f          	j	399c <inst_22+0x2c>
    3994:	00360613          	addi	a2,a2,3
    3998:	0040006f          	j	399c <inst_22+0x2c>
    399c:	00c22223          	sw	a2,4(tp) # 4 <num-0x9>

000039a0 <inst_23>:
    39a0:	00800813          	li	a6,8
    39a4:	000404b7          	lui	s1,0x40
    39a8:	00000613          	li	a2,0
    39ac:	0050006f          	j	41b0 <inst_23+0x810>
    39b0:	00160613          	addi	a2,a2,1
    39b4:	0110006f          	j	41c4 <inst_23+0x824>
    39b8:	00000013          	nop
    39bc:	00000013          	nop
    39c0:	00000013          	nop
    39c4:	00000013          	nop
    39c8:	00000013          	nop
    39cc:	00000013          	nop
    39d0:	00000013          	nop
    39d4:	00000013          	nop
    39d8:	00000013          	nop
    39dc:	00000013          	nop
    39e0:	00000013          	nop
    39e4:	00000013          	nop
    39e8:	00000013          	nop
    39ec:	00000013          	nop
    39f0:	00000013          	nop
    39f4:	00000013          	nop
    39f8:	00000013          	nop
    39fc:	00000013          	nop
    3a00:	00000013          	nop
    3a04:	00000013          	nop
    3a08:	00000013          	nop
    3a0c:	00000013          	nop
    3a10:	00000013          	nop
    3a14:	00000013          	nop
    3a18:	00000013          	nop
    3a1c:	00000013          	nop
    3a20:	00000013          	nop
    3a24:	00000013          	nop
    3a28:	00000013          	nop
    3a2c:	00000013          	nop
    3a30:	00000013          	nop
    3a34:	00000013          	nop
    3a38:	00000013          	nop
    3a3c:	00000013          	nop
    3a40:	00000013          	nop
    3a44:	00000013          	nop
    3a48:	00000013          	nop
    3a4c:	00000013          	nop
    3a50:	00000013          	nop
    3a54:	00000013          	nop
    3a58:	00000013          	nop
    3a5c:	00000013          	nop
    3a60:	00000013          	nop
    3a64:	00000013          	nop
    3a68:	00000013          	nop
    3a6c:	00000013          	nop
    3a70:	00000013          	nop
    3a74:	00000013          	nop
    3a78:	00000013          	nop
    3a7c:	00000013          	nop
    3a80:	00000013          	nop
    3a84:	00000013          	nop
    3a88:	00000013          	nop
    3a8c:	00000013          	nop
    3a90:	00000013          	nop
    3a94:	00000013          	nop
    3a98:	00000013          	nop
    3a9c:	00000013          	nop
    3aa0:	00000013          	nop
    3aa4:	00000013          	nop
    3aa8:	00000013          	nop
    3aac:	00000013          	nop
    3ab0:	00000013          	nop
    3ab4:	00000013          	nop
    3ab8:	00000013          	nop
    3abc:	00000013          	nop
    3ac0:	00000013          	nop
    3ac4:	00000013          	nop
    3ac8:	00000013          	nop
    3acc:	00000013          	nop
    3ad0:	00000013          	nop
    3ad4:	00000013          	nop
    3ad8:	00000013          	nop
    3adc:	00000013          	nop
    3ae0:	00000013          	nop
    3ae4:	00000013          	nop
    3ae8:	00000013          	nop
    3aec:	00000013          	nop
    3af0:	00000013          	nop
    3af4:	00000013          	nop
    3af8:	00000013          	nop
    3afc:	00000013          	nop
    3b00:	00000013          	nop
    3b04:	00000013          	nop
    3b08:	00000013          	nop
    3b0c:	00000013          	nop
    3b10:	00000013          	nop
    3b14:	00000013          	nop
    3b18:	00000013          	nop
    3b1c:	00000013          	nop
    3b20:	00000013          	nop
    3b24:	00000013          	nop
    3b28:	00000013          	nop
    3b2c:	00000013          	nop
    3b30:	00000013          	nop
    3b34:	00000013          	nop
    3b38:	00000013          	nop
    3b3c:	00000013          	nop
    3b40:	00000013          	nop
    3b44:	00000013          	nop
    3b48:	00000013          	nop
    3b4c:	00000013          	nop
    3b50:	00000013          	nop
    3b54:	00000013          	nop
    3b58:	00000013          	nop
    3b5c:	00000013          	nop
    3b60:	00000013          	nop
    3b64:	00000013          	nop
    3b68:	00000013          	nop
    3b6c:	00000013          	nop
    3b70:	00000013          	nop
    3b74:	00000013          	nop
    3b78:	00000013          	nop
    3b7c:	00000013          	nop
    3b80:	00000013          	nop
    3b84:	00000013          	nop
    3b88:	00000013          	nop
    3b8c:	00000013          	nop
    3b90:	00000013          	nop
    3b94:	00000013          	nop
    3b98:	00000013          	nop
    3b9c:	00000013          	nop
    3ba0:	00000013          	nop
    3ba4:	00000013          	nop
    3ba8:	00000013          	nop
    3bac:	00000013          	nop
    3bb0:	00000013          	nop
    3bb4:	00000013          	nop
    3bb8:	00000013          	nop
    3bbc:	00000013          	nop
    3bc0:	00000013          	nop
    3bc4:	00000013          	nop
    3bc8:	00000013          	nop
    3bcc:	00000013          	nop
    3bd0:	00000013          	nop
    3bd4:	00000013          	nop
    3bd8:	00000013          	nop
    3bdc:	00000013          	nop
    3be0:	00000013          	nop
    3be4:	00000013          	nop
    3be8:	00000013          	nop
    3bec:	00000013          	nop
    3bf0:	00000013          	nop
    3bf4:	00000013          	nop
    3bf8:	00000013          	nop
    3bfc:	00000013          	nop
    3c00:	00000013          	nop
    3c04:	00000013          	nop
    3c08:	00000013          	nop
    3c0c:	00000013          	nop
    3c10:	00000013          	nop
    3c14:	00000013          	nop
    3c18:	00000013          	nop
    3c1c:	00000013          	nop
    3c20:	00000013          	nop
    3c24:	00000013          	nop
    3c28:	00000013          	nop
    3c2c:	00000013          	nop
    3c30:	00000013          	nop
    3c34:	00000013          	nop
    3c38:	00000013          	nop
    3c3c:	00000013          	nop
    3c40:	00000013          	nop
    3c44:	00000013          	nop
    3c48:	00000013          	nop
    3c4c:	00000013          	nop
    3c50:	00000013          	nop
    3c54:	00000013          	nop
    3c58:	00000013          	nop
    3c5c:	00000013          	nop
    3c60:	00000013          	nop
    3c64:	00000013          	nop
    3c68:	00000013          	nop
    3c6c:	00000013          	nop
    3c70:	00000013          	nop
    3c74:	00000013          	nop
    3c78:	00000013          	nop
    3c7c:	00000013          	nop
    3c80:	00000013          	nop
    3c84:	00000013          	nop
    3c88:	00000013          	nop
    3c8c:	00000013          	nop
    3c90:	00000013          	nop
    3c94:	00000013          	nop
    3c98:	00000013          	nop
    3c9c:	00000013          	nop
    3ca0:	00000013          	nop
    3ca4:	00000013          	nop
    3ca8:	00000013          	nop
    3cac:	00000013          	nop
    3cb0:	00000013          	nop
    3cb4:	00000013          	nop
    3cb8:	00000013          	nop
    3cbc:	00000013          	nop
    3cc0:	00000013          	nop
    3cc4:	00000013          	nop
    3cc8:	00000013          	nop
    3ccc:	00000013          	nop
    3cd0:	00000013          	nop
    3cd4:	00000013          	nop
    3cd8:	00000013          	nop
    3cdc:	00000013          	nop
    3ce0:	00000013          	nop
    3ce4:	00000013          	nop
    3ce8:	00000013          	nop
    3cec:	00000013          	nop
    3cf0:	00000013          	nop
    3cf4:	00000013          	nop
    3cf8:	00000013          	nop
    3cfc:	00000013          	nop
    3d00:	00000013          	nop
    3d04:	00000013          	nop
    3d08:	00000013          	nop
    3d0c:	00000013          	nop
    3d10:	00000013          	nop
    3d14:	00000013          	nop
    3d18:	00000013          	nop
    3d1c:	00000013          	nop
    3d20:	00000013          	nop
    3d24:	00000013          	nop
    3d28:	00000013          	nop
    3d2c:	00000013          	nop
    3d30:	00000013          	nop
    3d34:	00000013          	nop
    3d38:	00000013          	nop
    3d3c:	00000013          	nop
    3d40:	00000013          	nop
    3d44:	00000013          	nop
    3d48:	00000013          	nop
    3d4c:	00000013          	nop
    3d50:	00000013          	nop
    3d54:	00000013          	nop
    3d58:	00000013          	nop
    3d5c:	00000013          	nop
    3d60:	00000013          	nop
    3d64:	00000013          	nop
    3d68:	00000013          	nop
    3d6c:	00000013          	nop
    3d70:	00000013          	nop
    3d74:	00000013          	nop
    3d78:	00000013          	nop
    3d7c:	00000013          	nop
    3d80:	00000013          	nop
    3d84:	00000013          	nop
    3d88:	00000013          	nop
    3d8c:	00000013          	nop
    3d90:	00000013          	nop
    3d94:	00000013          	nop
    3d98:	00000013          	nop
    3d9c:	00000013          	nop
    3da0:	00000013          	nop
    3da4:	00000013          	nop
    3da8:	00000013          	nop
    3dac:	00000013          	nop
    3db0:	00000013          	nop
    3db4:	00000013          	nop
    3db8:	00000013          	nop
    3dbc:	00000013          	nop
    3dc0:	00000013          	nop
    3dc4:	00000013          	nop
    3dc8:	00000013          	nop
    3dcc:	00000013          	nop
    3dd0:	00000013          	nop
    3dd4:	00000013          	nop
    3dd8:	00000013          	nop
    3ddc:	00000013          	nop
    3de0:	00000013          	nop
    3de4:	00000013          	nop
    3de8:	00000013          	nop
    3dec:	00000013          	nop
    3df0:	00000013          	nop
    3df4:	00000013          	nop
    3df8:	00000013          	nop
    3dfc:	00000013          	nop
    3e00:	00000013          	nop
    3e04:	00000013          	nop
    3e08:	00000013          	nop
    3e0c:	00000013          	nop
    3e10:	00000013          	nop
    3e14:	00000013          	nop
    3e18:	00000013          	nop
    3e1c:	00000013          	nop
    3e20:	00000013          	nop
    3e24:	00000013          	nop
    3e28:	00000013          	nop
    3e2c:	00000013          	nop
    3e30:	00000013          	nop
    3e34:	00000013          	nop
    3e38:	00000013          	nop
    3e3c:	00000013          	nop
    3e40:	00000013          	nop
    3e44:	00000013          	nop
    3e48:	00000013          	nop
    3e4c:	00000013          	nop
    3e50:	00000013          	nop
    3e54:	00000013          	nop
    3e58:	00000013          	nop
    3e5c:	00000013          	nop
    3e60:	00000013          	nop
    3e64:	00000013          	nop
    3e68:	00000013          	nop
    3e6c:	00000013          	nop
    3e70:	00000013          	nop
    3e74:	00000013          	nop
    3e78:	00000013          	nop
    3e7c:	00000013          	nop
    3e80:	00000013          	nop
    3e84:	00000013          	nop
    3e88:	00000013          	nop
    3e8c:	00000013          	nop
    3e90:	00000013          	nop
    3e94:	00000013          	nop
    3e98:	00000013          	nop
    3e9c:	00000013          	nop
    3ea0:	00000013          	nop
    3ea4:	00000013          	nop
    3ea8:	00000013          	nop
    3eac:	00000013          	nop
    3eb0:	00000013          	nop
    3eb4:	00000013          	nop
    3eb8:	00000013          	nop
    3ebc:	00000013          	nop
    3ec0:	00000013          	nop
    3ec4:	00000013          	nop
    3ec8:	00000013          	nop
    3ecc:	00000013          	nop
    3ed0:	00000013          	nop
    3ed4:	00000013          	nop
    3ed8:	00000013          	nop
    3edc:	00000013          	nop
    3ee0:	00000013          	nop
    3ee4:	00000013          	nop
    3ee8:	00000013          	nop
    3eec:	00000013          	nop
    3ef0:	00000013          	nop
    3ef4:	00000013          	nop
    3ef8:	00000013          	nop
    3efc:	00000013          	nop
    3f00:	00000013          	nop
    3f04:	00000013          	nop
    3f08:	00000013          	nop
    3f0c:	00000013          	nop
    3f10:	00000013          	nop
    3f14:	00000013          	nop
    3f18:	00000013          	nop
    3f1c:	00000013          	nop
    3f20:	00000013          	nop
    3f24:	00000013          	nop
    3f28:	00000013          	nop
    3f2c:	00000013          	nop
    3f30:	00000013          	nop
    3f34:	00000013          	nop
    3f38:	00000013          	nop
    3f3c:	00000013          	nop
    3f40:	00000013          	nop
    3f44:	00000013          	nop
    3f48:	00000013          	nop
    3f4c:	00000013          	nop
    3f50:	00000013          	nop
    3f54:	00000013          	nop
    3f58:	00000013          	nop
    3f5c:	00000013          	nop
    3f60:	00000013          	nop
    3f64:	00000013          	nop
    3f68:	00000013          	nop
    3f6c:	00000013          	nop
    3f70:	00000013          	nop
    3f74:	00000013          	nop
    3f78:	00000013          	nop
    3f7c:	00000013          	nop
    3f80:	00000013          	nop
    3f84:	00000013          	nop
    3f88:	00000013          	nop
    3f8c:	00000013          	nop
    3f90:	00000013          	nop
    3f94:	00000013          	nop
    3f98:	00000013          	nop
    3f9c:	00000013          	nop
    3fa0:	00000013          	nop
    3fa4:	00000013          	nop
    3fa8:	00000013          	nop
    3fac:	00000013          	nop
    3fb0:	00000013          	nop
    3fb4:	00000013          	nop
    3fb8:	00000013          	nop
    3fbc:	00000013          	nop
    3fc0:	00000013          	nop
    3fc4:	00000013          	nop
    3fc8:	00000013          	nop
    3fcc:	00000013          	nop
    3fd0:	00000013          	nop
    3fd4:	00000013          	nop
    3fd8:	00000013          	nop
    3fdc:	00000013          	nop
    3fe0:	00000013          	nop
    3fe4:	00000013          	nop
    3fe8:	00000013          	nop
    3fec:	00000013          	nop
    3ff0:	00000013          	nop
    3ff4:	00000013          	nop
    3ff8:	00000013          	nop
    3ffc:	00000013          	nop
    4000:	00000013          	nop
    4004:	00000013          	nop
    4008:	00000013          	nop
    400c:	00000013          	nop
    4010:	00000013          	nop
    4014:	00000013          	nop
    4018:	00000013          	nop
    401c:	00000013          	nop
    4020:	00000013          	nop
    4024:	00000013          	nop
    4028:	00000013          	nop
    402c:	00000013          	nop
    4030:	00000013          	nop
    4034:	00000013          	nop
    4038:	00000013          	nop
    403c:	00000013          	nop
    4040:	00000013          	nop
    4044:	00000013          	nop
    4048:	00000013          	nop
    404c:	00000013          	nop
    4050:	00000013          	nop
    4054:	00000013          	nop
    4058:	00000013          	nop
    405c:	00000013          	nop
    4060:	00000013          	nop
    4064:	00000013          	nop
    4068:	00000013          	nop
    406c:	00000013          	nop
    4070:	00000013          	nop
    4074:	00000013          	nop
    4078:	00000013          	nop
    407c:	00000013          	nop
    4080:	00000013          	nop
    4084:	00000013          	nop
    4088:	00000013          	nop
    408c:	00000013          	nop
    4090:	00000013          	nop
    4094:	00000013          	nop
    4098:	00000013          	nop
    409c:	00000013          	nop
    40a0:	00000013          	nop
    40a4:	00000013          	nop
    40a8:	00000013          	nop
    40ac:	00000013          	nop
    40b0:	00000013          	nop
    40b4:	00000013          	nop
    40b8:	00000013          	nop
    40bc:	00000013          	nop
    40c0:	00000013          	nop
    40c4:	00000013          	nop
    40c8:	00000013          	nop
    40cc:	00000013          	nop
    40d0:	00000013          	nop
    40d4:	00000013          	nop
    40d8:	00000013          	nop
    40dc:	00000013          	nop
    40e0:	00000013          	nop
    40e4:	00000013          	nop
    40e8:	00000013          	nop
    40ec:	00000013          	nop
    40f0:	00000013          	nop
    40f4:	00000013          	nop
    40f8:	00000013          	nop
    40fc:	00000013          	nop
    4100:	00000013          	nop
    4104:	00000013          	nop
    4108:	00000013          	nop
    410c:	00000013          	nop
    4110:	00000013          	nop
    4114:	00000013          	nop
    4118:	00000013          	nop
    411c:	00000013          	nop
    4120:	00000013          	nop
    4124:	00000013          	nop
    4128:	00000013          	nop
    412c:	00000013          	nop
    4130:	00000013          	nop
    4134:	00000013          	nop
    4138:	00000013          	nop
    413c:	00000013          	nop
    4140:	00000013          	nop
    4144:	00000013          	nop
    4148:	00000013          	nop
    414c:	00000013          	nop
    4150:	00000013          	nop
    4154:	00000013          	nop
    4158:	00000013          	nop
    415c:	00000013          	nop
    4160:	00000013          	nop
    4164:	00000013          	nop
    4168:	00000013          	nop
    416c:	00000013          	nop
    4170:	00000013          	nop
    4174:	00000013          	nop
    4178:	00000013          	nop
    417c:	00000013          	nop
    4180:	00000013          	nop
    4184:	00000013          	nop
    4188:	00000013          	nop
    418c:	00000013          	nop
    4190:	00000013          	nop
    4194:	00000013          	nop
    4198:	00000013          	nop
    419c:	00000013          	nop
    41a0:	00000013          	nop
    41a4:	00000013          	nop
    41a8:	00000013          	nop
    41ac:	00000013          	nop
    41b0:	809850e3          	bge	a6,s1,39b0 <inst_23+0x10>
    41b4:	00260613          	addi	a2,a2,2
    41b8:	00c0006f          	j	41c4 <inst_23+0x824>
    41bc:	00360613          	addi	a2,a2,3
    41c0:	0040006f          	j	41c4 <inst_23+0x824>
    41c4:	00c22423          	sw	a2,8(tp) # 8 <num-0x5>

000041c8 <inst_24>:
    41c8:	f80002b7          	lui	t0,0xf8000
    41cc:	fff28293          	addi	t0,t0,-1 # f7ffffff <_end+0xf7fc4ffb>
    41d0:	00080137          	lui	sp,0x80
    41d4:	00000613          	li	a2,0
    41d8:	00c0006f          	j	41e4 <inst_24+0x1c>
    41dc:	00160613          	addi	a2,a2,1
    41e0:	0180006f          	j	41f8 <inst_24+0x30>
    41e4:	fe22dce3          	bge	t0,sp,41dc <inst_24+0x14>
    41e8:	00260613          	addi	a2,a2,2
    41ec:	00c0006f          	j	41f8 <inst_24+0x30>
    41f0:	00360613          	addi	a2,a2,3
    41f4:	0040006f          	j	41f8 <inst_24+0x30>
    41f8:	00c22623          	sw	a2,12(tp) # c <num-0x1>

000041fc <inst_25>:
    41fc:	fffc0d37          	lui	s10,0xfffc0
    4200:	fffd0d13          	addi	s10,s10,-1 # fffbffff <_end+0xfff84ffb>
    4204:	00100ab7          	lui	s5,0x100
    4208:	00000613          	li	a2,0
    420c:	00c0006f          	j	4218 <inst_25+0x1c>
    4210:	00160613          	addi	a2,a2,1
    4214:	02c0006f          	j	4240 <inst_25+0x44>
    4218:	035d5063          	bge	s10,s5,4238 <inst_25+0x3c>
    421c:	00260613          	addi	a2,a2,2
    4220:	0200006f          	j	4240 <inst_25+0x44>
    4224:	00000013          	nop
    4228:	00000013          	nop
    422c:	00000013          	nop
    4230:	00000013          	nop
    4234:	00000013          	nop
    4238:	00360613          	addi	a2,a2,3
    423c:	0040006f          	j	4240 <inst_25+0x44>
    4240:	00c22823          	sw	a2,16(tp) # 10 <num+0x3>

00004244 <inst_26>:
    4244:	fff00f13          	li	t5,-1
    4248:	002003b7          	lui	t2,0x200
    424c:	00000613          	li	a2,0
    4250:	00c0006f          	j	425c <inst_26+0x18>
    4254:	00160613          	addi	a2,a2,1
    4258:	10c0006f          	j	4364 <inst_26+0x120>
    425c:	107f5063          	bge	t5,t2,435c <inst_26+0x118>
    4260:	00260613          	addi	a2,a2,2
    4264:	1000006f          	j	4364 <inst_26+0x120>
    4268:	00000013          	nop
    426c:	00000013          	nop
    4270:	00000013          	nop
    4274:	00000013          	nop
    4278:	00000013          	nop
    427c:	00000013          	nop
    4280:	00000013          	nop
    4284:	00000013          	nop
    4288:	00000013          	nop
    428c:	00000013          	nop
    4290:	00000013          	nop
    4294:	00000013          	nop
    4298:	00000013          	nop
    429c:	00000013          	nop
    42a0:	00000013          	nop
    42a4:	00000013          	nop
    42a8:	00000013          	nop
    42ac:	00000013          	nop
    42b0:	00000013          	nop
    42b4:	00000013          	nop
    42b8:	00000013          	nop
    42bc:	00000013          	nop
    42c0:	00000013          	nop
    42c4:	00000013          	nop
    42c8:	00000013          	nop
    42cc:	00000013          	nop
    42d0:	00000013          	nop
    42d4:	00000013          	nop
    42d8:	00000013          	nop
    42dc:	00000013          	nop
    42e0:	00000013          	nop
    42e4:	00000013          	nop
    42e8:	00000013          	nop
    42ec:	00000013          	nop
    42f0:	00000013          	nop
    42f4:	00000013          	nop
    42f8:	00000013          	nop
    42fc:	00000013          	nop
    4300:	00000013          	nop
    4304:	00000013          	nop
    4308:	00000013          	nop
    430c:	00000013          	nop
    4310:	00000013          	nop
    4314:	00000013          	nop
    4318:	00000013          	nop
    431c:	00000013          	nop
    4320:	00000013          	nop
    4324:	00000013          	nop
    4328:	00000013          	nop
    432c:	00000013          	nop
    4330:	00000013          	nop
    4334:	00000013          	nop
    4338:	00000013          	nop
    433c:	00000013          	nop
    4340:	00000013          	nop
    4344:	00000013          	nop
    4348:	00000013          	nop
    434c:	00000013          	nop
    4350:	00000013          	nop
    4354:	00000013          	nop
    4358:	00000013          	nop
    435c:	00360613          	addi	a2,a2,3
    4360:	0040006f          	j	4364 <inst_26+0x120>
    4364:	00c22a23          	sw	a2,20(tp) # 14 <num+0x7>

00004368 <inst_27>:
    4368:	00000013          	nop
    436c:	00400337          	lui	t1,0x400
    4370:	00000613          	li	a2,0
    4374:	00c0006f          	j	4380 <inst_27+0x18>
    4378:	00160613          	addi	a2,a2,1
    437c:	04c0006f          	j	43c8 <inst_27+0x60>
    4380:	04605063          	blez	t1,43c0 <inst_27+0x58>
    4384:	00260613          	addi	a2,a2,2
    4388:	0400006f          	j	43c8 <inst_27+0x60>
    438c:	00000013          	nop
    4390:	00000013          	nop
    4394:	00000013          	nop
    4398:	00000013          	nop
    439c:	00000013          	nop
    43a0:	00000013          	nop
    43a4:	00000013          	nop
    43a8:	00000013          	nop
    43ac:	00000013          	nop
    43b0:	00000013          	nop
    43b4:	00000013          	nop
    43b8:	00000013          	nop
    43bc:	00000013          	nop
    43c0:	00360613          	addi	a2,a2,3
    43c4:	0040006f          	j	43c8 <inst_27+0x60>
    43c8:	00c22c23          	sw	a2,24(tp) # 18 <num+0xb>

000043cc <inst_28>:
    43cc:	ffffe1b7          	lui	gp,0xffffe
    43d0:	fff18193          	addi	gp,gp,-1 # ffffdfff <_end+0xfffc2ffb>
    43d4:	00800bb7          	lui	s7,0x800
    43d8:	00000613          	li	a2,0
    43dc:	0180006f          	j	43f4 <inst_28+0x28>
    43e0:	00160613          	addi	a2,a2,1
    43e4:	0240006f          	j	4408 <inst_28+0x3c>
    43e8:	00000013          	nop
    43ec:	00000013          	nop
    43f0:	00000013          	nop
    43f4:	ff71d6e3          	bge	gp,s7,43e0 <inst_28+0x14>
    43f8:	00260613          	addi	a2,a2,2
    43fc:	00c0006f          	j	4408 <inst_28+0x3c>
    4400:	00360613          	addi	a2,a2,3
    4404:	0040006f          	j	4408 <inst_28+0x3c>
    4408:	00c22e23          	sw	a2,28(tp) # 1c <num+0xf>

0000440c <inst_29>:
    440c:	0000b0b7          	lui	ra,0xb
    4410:	50508093          	addi	ra,ra,1285 # b505 <inst_119+0x2c1>
    4414:	01000cb7          	lui	s9,0x1000
    4418:	00000613          	li	a2,0
    441c:	00c0006f          	j	4428 <inst_29+0x1c>
    4420:	00160613          	addi	a2,a2,1
    4424:	02c0006f          	j	4450 <inst_29+0x44>
    4428:	0390d063          	bge	ra,s9,4448 <inst_29+0x3c>
    442c:	00260613          	addi	a2,a2,2
    4430:	0200006f          	j	4450 <inst_29+0x44>
    4434:	00000013          	nop
    4438:	00000013          	nop
    443c:	00000013          	nop
    4440:	00000013          	nop
    4444:	00000013          	nop
    4448:	00360613          	addi	a2,a2,3
    444c:	0040006f          	j	4450 <inst_29+0x44>
    4450:	02c22023          	sw	a2,32(tp) # 20 <num+0x13>

00004454 <inst_30>:
    4454:	ff800993          	li	s3,-8
    4458:	02000e37          	lui	t3,0x2000
    445c:	00000613          	li	a2,0
    4460:	00c0006f          	j	446c <inst_30+0x18>
    4464:	00160613          	addi	a2,a2,1
    4468:	40c0006f          	j	4874 <inst_30+0x420>
    446c:	41c9d063          	bge	s3,t3,486c <inst_30+0x418>
    4470:	00260613          	addi	a2,a2,2
    4474:	4000006f          	j	4874 <inst_30+0x420>
    4478:	00000013          	nop
    447c:	00000013          	nop
    4480:	00000013          	nop
    4484:	00000013          	nop
    4488:	00000013          	nop
    448c:	00000013          	nop
    4490:	00000013          	nop
    4494:	00000013          	nop
    4498:	00000013          	nop
    449c:	00000013          	nop
    44a0:	00000013          	nop
    44a4:	00000013          	nop
    44a8:	00000013          	nop
    44ac:	00000013          	nop
    44b0:	00000013          	nop
    44b4:	00000013          	nop
    44b8:	00000013          	nop
    44bc:	00000013          	nop
    44c0:	00000013          	nop
    44c4:	00000013          	nop
    44c8:	00000013          	nop
    44cc:	00000013          	nop
    44d0:	00000013          	nop
    44d4:	00000013          	nop
    44d8:	00000013          	nop
    44dc:	00000013          	nop
    44e0:	00000013          	nop
    44e4:	00000013          	nop
    44e8:	00000013          	nop
    44ec:	00000013          	nop
    44f0:	00000013          	nop
    44f4:	00000013          	nop
    44f8:	00000013          	nop
    44fc:	00000013          	nop
    4500:	00000013          	nop
    4504:	00000013          	nop
    4508:	00000013          	nop
    450c:	00000013          	nop
    4510:	00000013          	nop
    4514:	00000013          	nop
    4518:	00000013          	nop
    451c:	00000013          	nop
    4520:	00000013          	nop
    4524:	00000013          	nop
    4528:	00000013          	nop
    452c:	00000013          	nop
    4530:	00000013          	nop
    4534:	00000013          	nop
    4538:	00000013          	nop
    453c:	00000013          	nop
    4540:	00000013          	nop
    4544:	00000013          	nop
    4548:	00000013          	nop
    454c:	00000013          	nop
    4550:	00000013          	nop
    4554:	00000013          	nop
    4558:	00000013          	nop
    455c:	00000013          	nop
    4560:	00000013          	nop
    4564:	00000013          	nop
    4568:	00000013          	nop
    456c:	00000013          	nop
    4570:	00000013          	nop
    4574:	00000013          	nop
    4578:	00000013          	nop
    457c:	00000013          	nop
    4580:	00000013          	nop
    4584:	00000013          	nop
    4588:	00000013          	nop
    458c:	00000013          	nop
    4590:	00000013          	nop
    4594:	00000013          	nop
    4598:	00000013          	nop
    459c:	00000013          	nop
    45a0:	00000013          	nop
    45a4:	00000013          	nop
    45a8:	00000013          	nop
    45ac:	00000013          	nop
    45b0:	00000013          	nop
    45b4:	00000013          	nop
    45b8:	00000013          	nop
    45bc:	00000013          	nop
    45c0:	00000013          	nop
    45c4:	00000013          	nop
    45c8:	00000013          	nop
    45cc:	00000013          	nop
    45d0:	00000013          	nop
    45d4:	00000013          	nop
    45d8:	00000013          	nop
    45dc:	00000013          	nop
    45e0:	00000013          	nop
    45e4:	00000013          	nop
    45e8:	00000013          	nop
    45ec:	00000013          	nop
    45f0:	00000013          	nop
    45f4:	00000013          	nop
    45f8:	00000013          	nop
    45fc:	00000013          	nop
    4600:	00000013          	nop
    4604:	00000013          	nop
    4608:	00000013          	nop
    460c:	00000013          	nop
    4610:	00000013          	nop
    4614:	00000013          	nop
    4618:	00000013          	nop
    461c:	00000013          	nop
    4620:	00000013          	nop
    4624:	00000013          	nop
    4628:	00000013          	nop
    462c:	00000013          	nop
    4630:	00000013          	nop
    4634:	00000013          	nop
    4638:	00000013          	nop
    463c:	00000013          	nop
    4640:	00000013          	nop
    4644:	00000013          	nop
    4648:	00000013          	nop
    464c:	00000013          	nop
    4650:	00000013          	nop
    4654:	00000013          	nop
    4658:	00000013          	nop
    465c:	00000013          	nop
    4660:	00000013          	nop
    4664:	00000013          	nop
    4668:	00000013          	nop
    466c:	00000013          	nop
    4670:	00000013          	nop
    4674:	00000013          	nop
    4678:	00000013          	nop
    467c:	00000013          	nop
    4680:	00000013          	nop
    4684:	00000013          	nop
    4688:	00000013          	nop
    468c:	00000013          	nop
    4690:	00000013          	nop
    4694:	00000013          	nop
    4698:	00000013          	nop
    469c:	00000013          	nop
    46a0:	00000013          	nop
    46a4:	00000013          	nop
    46a8:	00000013          	nop
    46ac:	00000013          	nop
    46b0:	00000013          	nop
    46b4:	00000013          	nop
    46b8:	00000013          	nop
    46bc:	00000013          	nop
    46c0:	00000013          	nop
    46c4:	00000013          	nop
    46c8:	00000013          	nop
    46cc:	00000013          	nop
    46d0:	00000013          	nop
    46d4:	00000013          	nop
    46d8:	00000013          	nop
    46dc:	00000013          	nop
    46e0:	00000013          	nop
    46e4:	00000013          	nop
    46e8:	00000013          	nop
    46ec:	00000013          	nop
    46f0:	00000013          	nop
    46f4:	00000013          	nop
    46f8:	00000013          	nop
    46fc:	00000013          	nop
    4700:	00000013          	nop
    4704:	00000013          	nop
    4708:	00000013          	nop
    470c:	00000013          	nop
    4710:	00000013          	nop
    4714:	00000013          	nop
    4718:	00000013          	nop
    471c:	00000013          	nop
    4720:	00000013          	nop
    4724:	00000013          	nop
    4728:	00000013          	nop
    472c:	00000013          	nop
    4730:	00000013          	nop
    4734:	00000013          	nop
    4738:	00000013          	nop
    473c:	00000013          	nop
    4740:	00000013          	nop
    4744:	00000013          	nop
    4748:	00000013          	nop
    474c:	00000013          	nop
    4750:	00000013          	nop
    4754:	00000013          	nop
    4758:	00000013          	nop
    475c:	00000013          	nop
    4760:	00000013          	nop
    4764:	00000013          	nop
    4768:	00000013          	nop
    476c:	00000013          	nop
    4770:	00000013          	nop
    4774:	00000013          	nop
    4778:	00000013          	nop
    477c:	00000013          	nop
    4780:	00000013          	nop
    4784:	00000013          	nop
    4788:	00000013          	nop
    478c:	00000013          	nop
    4790:	00000013          	nop
    4794:	00000013          	nop
    4798:	00000013          	nop
    479c:	00000013          	nop
    47a0:	00000013          	nop
    47a4:	00000013          	nop
    47a8:	00000013          	nop
    47ac:	00000013          	nop
    47b0:	00000013          	nop
    47b4:	00000013          	nop
    47b8:	00000013          	nop
    47bc:	00000013          	nop
    47c0:	00000013          	nop
    47c4:	00000013          	nop
    47c8:	00000013          	nop
    47cc:	00000013          	nop
    47d0:	00000013          	nop
    47d4:	00000013          	nop
    47d8:	00000013          	nop
    47dc:	00000013          	nop
    47e0:	00000013          	nop
    47e4:	00000013          	nop
    47e8:	00000013          	nop
    47ec:	00000013          	nop
    47f0:	00000013          	nop
    47f4:	00000013          	nop
    47f8:	00000013          	nop
    47fc:	00000013          	nop
    4800:	00000013          	nop
    4804:	00000013          	nop
    4808:	00000013          	nop
    480c:	00000013          	nop
    4810:	00000013          	nop
    4814:	00000013          	nop
    4818:	00000013          	nop
    481c:	00000013          	nop
    4820:	00000013          	nop
    4824:	00000013          	nop
    4828:	00000013          	nop
    482c:	00000013          	nop
    4830:	00000013          	nop
    4834:	00000013          	nop
    4838:	00000013          	nop
    483c:	00000013          	nop
    4840:	00000013          	nop
    4844:	00000013          	nop
    4848:	00000013          	nop
    484c:	00000013          	nop
    4850:	00000013          	nop
    4854:	00000013          	nop
    4858:	00000013          	nop
    485c:	00000013          	nop
    4860:	00000013          	nop
    4864:	00000013          	nop
    4868:	00000013          	nop
    486c:	00360613          	addi	a2,a2,3
    4870:	0040006f          	j	4874 <inst_30+0x420>
    4874:	02c22223          	sw	a2,36(tp) # 24 <num+0x17>

00004878 <inst_31>:
    4878:	00000f93          	li	t6,0
    487c:	040001b7          	lui	gp,0x4000
    4880:	00000613          	li	a2,0
    4884:	00c0006f          	j	4890 <inst_31+0x18>
    4888:	00160613          	addi	a2,a2,1
    488c:	40c0006f          	j	4c98 <inst_31+0x420>
    4890:	403fd063          	bge	t6,gp,4c90 <inst_31+0x418>
    4894:	00260613          	addi	a2,a2,2
    4898:	4000006f          	j	4c98 <inst_31+0x420>
    489c:	00000013          	nop
    48a0:	00000013          	nop
    48a4:	00000013          	nop
    48a8:	00000013          	nop
    48ac:	00000013          	nop
    48b0:	00000013          	nop
    48b4:	00000013          	nop
    48b8:	00000013          	nop
    48bc:	00000013          	nop
    48c0:	00000013          	nop
    48c4:	00000013          	nop
    48c8:	00000013          	nop
    48cc:	00000013          	nop
    48d0:	00000013          	nop
    48d4:	00000013          	nop
    48d8:	00000013          	nop
    48dc:	00000013          	nop
    48e0:	00000013          	nop
    48e4:	00000013          	nop
    48e8:	00000013          	nop
    48ec:	00000013          	nop
    48f0:	00000013          	nop
    48f4:	00000013          	nop
    48f8:	00000013          	nop
    48fc:	00000013          	nop
    4900:	00000013          	nop
    4904:	00000013          	nop
    4908:	00000013          	nop
    490c:	00000013          	nop
    4910:	00000013          	nop
    4914:	00000013          	nop
    4918:	00000013          	nop
    491c:	00000013          	nop
    4920:	00000013          	nop
    4924:	00000013          	nop
    4928:	00000013          	nop
    492c:	00000013          	nop
    4930:	00000013          	nop
    4934:	00000013          	nop
    4938:	00000013          	nop
    493c:	00000013          	nop
    4940:	00000013          	nop
    4944:	00000013          	nop
    4948:	00000013          	nop
    494c:	00000013          	nop
    4950:	00000013          	nop
    4954:	00000013          	nop
    4958:	00000013          	nop
    495c:	00000013          	nop
    4960:	00000013          	nop
    4964:	00000013          	nop
    4968:	00000013          	nop
    496c:	00000013          	nop
    4970:	00000013          	nop
    4974:	00000013          	nop
    4978:	00000013          	nop
    497c:	00000013          	nop
    4980:	00000013          	nop
    4984:	00000013          	nop
    4988:	00000013          	nop
    498c:	00000013          	nop
    4990:	00000013          	nop
    4994:	00000013          	nop
    4998:	00000013          	nop
    499c:	00000013          	nop
    49a0:	00000013          	nop
    49a4:	00000013          	nop
    49a8:	00000013          	nop
    49ac:	00000013          	nop
    49b0:	00000013          	nop
    49b4:	00000013          	nop
    49b8:	00000013          	nop
    49bc:	00000013          	nop
    49c0:	00000013          	nop
    49c4:	00000013          	nop
    49c8:	00000013          	nop
    49cc:	00000013          	nop
    49d0:	00000013          	nop
    49d4:	00000013          	nop
    49d8:	00000013          	nop
    49dc:	00000013          	nop
    49e0:	00000013          	nop
    49e4:	00000013          	nop
    49e8:	00000013          	nop
    49ec:	00000013          	nop
    49f0:	00000013          	nop
    49f4:	00000013          	nop
    49f8:	00000013          	nop
    49fc:	00000013          	nop
    4a00:	00000013          	nop
    4a04:	00000013          	nop
    4a08:	00000013          	nop
    4a0c:	00000013          	nop
    4a10:	00000013          	nop
    4a14:	00000013          	nop
    4a18:	00000013          	nop
    4a1c:	00000013          	nop
    4a20:	00000013          	nop
    4a24:	00000013          	nop
    4a28:	00000013          	nop
    4a2c:	00000013          	nop
    4a30:	00000013          	nop
    4a34:	00000013          	nop
    4a38:	00000013          	nop
    4a3c:	00000013          	nop
    4a40:	00000013          	nop
    4a44:	00000013          	nop
    4a48:	00000013          	nop
    4a4c:	00000013          	nop
    4a50:	00000013          	nop
    4a54:	00000013          	nop
    4a58:	00000013          	nop
    4a5c:	00000013          	nop
    4a60:	00000013          	nop
    4a64:	00000013          	nop
    4a68:	00000013          	nop
    4a6c:	00000013          	nop
    4a70:	00000013          	nop
    4a74:	00000013          	nop
    4a78:	00000013          	nop
    4a7c:	00000013          	nop
    4a80:	00000013          	nop
    4a84:	00000013          	nop
    4a88:	00000013          	nop
    4a8c:	00000013          	nop
    4a90:	00000013          	nop
    4a94:	00000013          	nop
    4a98:	00000013          	nop
    4a9c:	00000013          	nop
    4aa0:	00000013          	nop
    4aa4:	00000013          	nop
    4aa8:	00000013          	nop
    4aac:	00000013          	nop
    4ab0:	00000013          	nop
    4ab4:	00000013          	nop
    4ab8:	00000013          	nop
    4abc:	00000013          	nop
    4ac0:	00000013          	nop
    4ac4:	00000013          	nop
    4ac8:	00000013          	nop
    4acc:	00000013          	nop
    4ad0:	00000013          	nop
    4ad4:	00000013          	nop
    4ad8:	00000013          	nop
    4adc:	00000013          	nop
    4ae0:	00000013          	nop
    4ae4:	00000013          	nop
    4ae8:	00000013          	nop
    4aec:	00000013          	nop
    4af0:	00000013          	nop
    4af4:	00000013          	nop
    4af8:	00000013          	nop
    4afc:	00000013          	nop
    4b00:	00000013          	nop
    4b04:	00000013          	nop
    4b08:	00000013          	nop
    4b0c:	00000013          	nop
    4b10:	00000013          	nop
    4b14:	00000013          	nop
    4b18:	00000013          	nop
    4b1c:	00000013          	nop
    4b20:	00000013          	nop
    4b24:	00000013          	nop
    4b28:	00000013          	nop
    4b2c:	00000013          	nop
    4b30:	00000013          	nop
    4b34:	00000013          	nop
    4b38:	00000013          	nop
    4b3c:	00000013          	nop
    4b40:	00000013          	nop
    4b44:	00000013          	nop
    4b48:	00000013          	nop
    4b4c:	00000013          	nop
    4b50:	00000013          	nop
    4b54:	00000013          	nop
    4b58:	00000013          	nop
    4b5c:	00000013          	nop
    4b60:	00000013          	nop
    4b64:	00000013          	nop
    4b68:	00000013          	nop
    4b6c:	00000013          	nop
    4b70:	00000013          	nop
    4b74:	00000013          	nop
    4b78:	00000013          	nop
    4b7c:	00000013          	nop
    4b80:	00000013          	nop
    4b84:	00000013          	nop
    4b88:	00000013          	nop
    4b8c:	00000013          	nop
    4b90:	00000013          	nop
    4b94:	00000013          	nop
    4b98:	00000013          	nop
    4b9c:	00000013          	nop
    4ba0:	00000013          	nop
    4ba4:	00000013          	nop
    4ba8:	00000013          	nop
    4bac:	00000013          	nop
    4bb0:	00000013          	nop
    4bb4:	00000013          	nop
    4bb8:	00000013          	nop
    4bbc:	00000013          	nop
    4bc0:	00000013          	nop
    4bc4:	00000013          	nop
    4bc8:	00000013          	nop
    4bcc:	00000013          	nop
    4bd0:	00000013          	nop
    4bd4:	00000013          	nop
    4bd8:	00000013          	nop
    4bdc:	00000013          	nop
    4be0:	00000013          	nop
    4be4:	00000013          	nop
    4be8:	00000013          	nop
    4bec:	00000013          	nop
    4bf0:	00000013          	nop
    4bf4:	00000013          	nop
    4bf8:	00000013          	nop
    4bfc:	00000013          	nop
    4c00:	00000013          	nop
    4c04:	00000013          	nop
    4c08:	00000013          	nop
    4c0c:	00000013          	nop
    4c10:	00000013          	nop
    4c14:	00000013          	nop
    4c18:	00000013          	nop
    4c1c:	00000013          	nop
    4c20:	00000013          	nop
    4c24:	00000013          	nop
    4c28:	00000013          	nop
    4c2c:	00000013          	nop
    4c30:	00000013          	nop
    4c34:	00000013          	nop
    4c38:	00000013          	nop
    4c3c:	00000013          	nop
    4c40:	00000013          	nop
    4c44:	00000013          	nop
    4c48:	00000013          	nop
    4c4c:	00000013          	nop
    4c50:	00000013          	nop
    4c54:	00000013          	nop
    4c58:	00000013          	nop
    4c5c:	00000013          	nop
    4c60:	00000013          	nop
    4c64:	00000013          	nop
    4c68:	00000013          	nop
    4c6c:	00000013          	nop
    4c70:	00000013          	nop
    4c74:	00000013          	nop
    4c78:	00000013          	nop
    4c7c:	00000013          	nop
    4c80:	00000013          	nop
    4c84:	00000013          	nop
    4c88:	00000013          	nop
    4c8c:	00000013          	nop
    4c90:	00360613          	addi	a2,a2,3
    4c94:	0040006f          	j	4c98 <inst_31+0x420>
    4c98:	02c22423          	sw	a2,40(tp) # 28 <num+0x1b>

00004c9c <inst_32>:
    4c9c:	aaaab537          	lui	a0,0xaaaab
    4ca0:	aaa50513          	addi	a0,a0,-1366 # aaaaaaaa <_end+0xaaa6faa6>
    4ca4:	080005b7          	lui	a1,0x8000
    4ca8:	00000613          	li	a2,0
    4cac:	00c0006f          	j	4cb8 <inst_32+0x1c>
    4cb0:	00160613          	addi	a2,a2,1
    4cb4:	0180006f          	j	4ccc <inst_32+0x30>
    4cb8:	feb55ce3          	bge	a0,a1,4cb0 <inst_32+0x14>
    4cbc:	00260613          	addi	a2,a2,2
    4cc0:	00c0006f          	j	4ccc <inst_32+0x30>
    4cc4:	00360613          	addi	a2,a2,3
    4cc8:	0040006f          	j	4ccc <inst_32+0x30>
    4ccc:	02c22623          	sw	a2,44(tp) # 2c <num+0x1f>

00004cd0 <inst_33>:
    4cd0:	fff80537          	lui	a0,0xfff80
    4cd4:	fff50513          	addi	a0,a0,-1 # fff7ffff <_end+0xfff44ffb>
    4cd8:	100005b7          	lui	a1,0x10000
    4cdc:	00000613          	li	a2,0
    4ce0:	00c0006f          	j	4cec <inst_33+0x1c>
    4ce4:	00160613          	addi	a2,a2,1
    4ce8:	40c0006f          	j	50f4 <inst_33+0x424>
    4cec:	40b55063          	bge	a0,a1,50ec <inst_33+0x41c>
    4cf0:	00260613          	addi	a2,a2,2
    4cf4:	4000006f          	j	50f4 <inst_33+0x424>
    4cf8:	00000013          	nop
    4cfc:	00000013          	nop
    4d00:	00000013          	nop
    4d04:	00000013          	nop
    4d08:	00000013          	nop
    4d0c:	00000013          	nop
    4d10:	00000013          	nop
    4d14:	00000013          	nop
    4d18:	00000013          	nop
    4d1c:	00000013          	nop
    4d20:	00000013          	nop
    4d24:	00000013          	nop
    4d28:	00000013          	nop
    4d2c:	00000013          	nop
    4d30:	00000013          	nop
    4d34:	00000013          	nop
    4d38:	00000013          	nop
    4d3c:	00000013          	nop
    4d40:	00000013          	nop
    4d44:	00000013          	nop
    4d48:	00000013          	nop
    4d4c:	00000013          	nop
    4d50:	00000013          	nop
    4d54:	00000013          	nop
    4d58:	00000013          	nop
    4d5c:	00000013          	nop
    4d60:	00000013          	nop
    4d64:	00000013          	nop
    4d68:	00000013          	nop
    4d6c:	00000013          	nop
    4d70:	00000013          	nop
    4d74:	00000013          	nop
    4d78:	00000013          	nop
    4d7c:	00000013          	nop
    4d80:	00000013          	nop
    4d84:	00000013          	nop
    4d88:	00000013          	nop
    4d8c:	00000013          	nop
    4d90:	00000013          	nop
    4d94:	00000013          	nop
    4d98:	00000013          	nop
    4d9c:	00000013          	nop
    4da0:	00000013          	nop
    4da4:	00000013          	nop
    4da8:	00000013          	nop
    4dac:	00000013          	nop
    4db0:	00000013          	nop
    4db4:	00000013          	nop
    4db8:	00000013          	nop
    4dbc:	00000013          	nop
    4dc0:	00000013          	nop
    4dc4:	00000013          	nop
    4dc8:	00000013          	nop
    4dcc:	00000013          	nop
    4dd0:	00000013          	nop
    4dd4:	00000013          	nop
    4dd8:	00000013          	nop
    4ddc:	00000013          	nop
    4de0:	00000013          	nop
    4de4:	00000013          	nop
    4de8:	00000013          	nop
    4dec:	00000013          	nop
    4df0:	00000013          	nop
    4df4:	00000013          	nop
    4df8:	00000013          	nop
    4dfc:	00000013          	nop
    4e00:	00000013          	nop
    4e04:	00000013          	nop
    4e08:	00000013          	nop
    4e0c:	00000013          	nop
    4e10:	00000013          	nop
    4e14:	00000013          	nop
    4e18:	00000013          	nop
    4e1c:	00000013          	nop
    4e20:	00000013          	nop
    4e24:	00000013          	nop
    4e28:	00000013          	nop
    4e2c:	00000013          	nop
    4e30:	00000013          	nop
    4e34:	00000013          	nop
    4e38:	00000013          	nop
    4e3c:	00000013          	nop
    4e40:	00000013          	nop
    4e44:	00000013          	nop
    4e48:	00000013          	nop
    4e4c:	00000013          	nop
    4e50:	00000013          	nop
    4e54:	00000013          	nop
    4e58:	00000013          	nop
    4e5c:	00000013          	nop
    4e60:	00000013          	nop
    4e64:	00000013          	nop
    4e68:	00000013          	nop
    4e6c:	00000013          	nop
    4e70:	00000013          	nop
    4e74:	00000013          	nop
    4e78:	00000013          	nop
    4e7c:	00000013          	nop
    4e80:	00000013          	nop
    4e84:	00000013          	nop
    4e88:	00000013          	nop
    4e8c:	00000013          	nop
    4e90:	00000013          	nop
    4e94:	00000013          	nop
    4e98:	00000013          	nop
    4e9c:	00000013          	nop
    4ea0:	00000013          	nop
    4ea4:	00000013          	nop
    4ea8:	00000013          	nop
    4eac:	00000013          	nop
    4eb0:	00000013          	nop
    4eb4:	00000013          	nop
    4eb8:	00000013          	nop
    4ebc:	00000013          	nop
    4ec0:	00000013          	nop
    4ec4:	00000013          	nop
    4ec8:	00000013          	nop
    4ecc:	00000013          	nop
    4ed0:	00000013          	nop
    4ed4:	00000013          	nop
    4ed8:	00000013          	nop
    4edc:	00000013          	nop
    4ee0:	00000013          	nop
    4ee4:	00000013          	nop
    4ee8:	00000013          	nop
    4eec:	00000013          	nop
    4ef0:	00000013          	nop
    4ef4:	00000013          	nop
    4ef8:	00000013          	nop
    4efc:	00000013          	nop
    4f00:	00000013          	nop
    4f04:	00000013          	nop
    4f08:	00000013          	nop
    4f0c:	00000013          	nop
    4f10:	00000013          	nop
    4f14:	00000013          	nop
    4f18:	00000013          	nop
    4f1c:	00000013          	nop
    4f20:	00000013          	nop
    4f24:	00000013          	nop
    4f28:	00000013          	nop
    4f2c:	00000013          	nop
    4f30:	00000013          	nop
    4f34:	00000013          	nop
    4f38:	00000013          	nop
    4f3c:	00000013          	nop
    4f40:	00000013          	nop
    4f44:	00000013          	nop
    4f48:	00000013          	nop
    4f4c:	00000013          	nop
    4f50:	00000013          	nop
    4f54:	00000013          	nop
    4f58:	00000013          	nop
    4f5c:	00000013          	nop
    4f60:	00000013          	nop
    4f64:	00000013          	nop
    4f68:	00000013          	nop
    4f6c:	00000013          	nop
    4f70:	00000013          	nop
    4f74:	00000013          	nop
    4f78:	00000013          	nop
    4f7c:	00000013          	nop
    4f80:	00000013          	nop
    4f84:	00000013          	nop
    4f88:	00000013          	nop
    4f8c:	00000013          	nop
    4f90:	00000013          	nop
    4f94:	00000013          	nop
    4f98:	00000013          	nop
    4f9c:	00000013          	nop
    4fa0:	00000013          	nop
    4fa4:	00000013          	nop
    4fa8:	00000013          	nop
    4fac:	00000013          	nop
    4fb0:	00000013          	nop
    4fb4:	00000013          	nop
    4fb8:	00000013          	nop
    4fbc:	00000013          	nop
    4fc0:	00000013          	nop
    4fc4:	00000013          	nop
    4fc8:	00000013          	nop
    4fcc:	00000013          	nop
    4fd0:	00000013          	nop
    4fd4:	00000013          	nop
    4fd8:	00000013          	nop
    4fdc:	00000013          	nop
    4fe0:	00000013          	nop
    4fe4:	00000013          	nop
    4fe8:	00000013          	nop
    4fec:	00000013          	nop
    4ff0:	00000013          	nop
    4ff4:	00000013          	nop
    4ff8:	00000013          	nop
    4ffc:	00000013          	nop
    5000:	00000013          	nop
    5004:	00000013          	nop
    5008:	00000013          	nop
    500c:	00000013          	nop
    5010:	00000013          	nop
    5014:	00000013          	nop
    5018:	00000013          	nop
    501c:	00000013          	nop
    5020:	00000013          	nop
    5024:	00000013          	nop
    5028:	00000013          	nop
    502c:	00000013          	nop
    5030:	00000013          	nop
    5034:	00000013          	nop
    5038:	00000013          	nop
    503c:	00000013          	nop
    5040:	00000013          	nop
    5044:	00000013          	nop
    5048:	00000013          	nop
    504c:	00000013          	nop
    5050:	00000013          	nop
    5054:	00000013          	nop
    5058:	00000013          	nop
    505c:	00000013          	nop
    5060:	00000013          	nop
    5064:	00000013          	nop
    5068:	00000013          	nop
    506c:	00000013          	nop
    5070:	00000013          	nop
    5074:	00000013          	nop
    5078:	00000013          	nop
    507c:	00000013          	nop
    5080:	00000013          	nop
    5084:	00000013          	nop
    5088:	00000013          	nop
    508c:	00000013          	nop
    5090:	00000013          	nop
    5094:	00000013          	nop
    5098:	00000013          	nop
    509c:	00000013          	nop
    50a0:	00000013          	nop
    50a4:	00000013          	nop
    50a8:	00000013          	nop
    50ac:	00000013          	nop
    50b0:	00000013          	nop
    50b4:	00000013          	nop
    50b8:	00000013          	nop
    50bc:	00000013          	nop
    50c0:	00000013          	nop
    50c4:	00000013          	nop
    50c8:	00000013          	nop
    50cc:	00000013          	nop
    50d0:	00000013          	nop
    50d4:	00000013          	nop
    50d8:	00000013          	nop
    50dc:	00000013          	nop
    50e0:	00000013          	nop
    50e4:	00000013          	nop
    50e8:	00000013          	nop
    50ec:	00360613          	addi	a2,a2,3
    50f0:	0040006f          	j	50f4 <inst_33+0x424>
    50f4:	02c22823          	sw	a2,48(tp) # 30 <num+0x23>

000050f8 <inst_34>:
    50f8:	fffff537          	lui	a0,0xfffff
    50fc:	fff50513          	addi	a0,a0,-1 # ffffefff <_end+0xfffc3ffb>
    5100:	200005b7          	lui	a1,0x20000
    5104:	00000613          	li	a2,0
    5108:	0180006f          	j	5120 <inst_34+0x28>
    510c:	00160613          	addi	a2,a2,1
    5110:	0240006f          	j	5134 <inst_34+0x3c>
    5114:	00000013          	nop
    5118:	00000013          	nop
    511c:	00000013          	nop
    5120:	feb556e3          	bge	a0,a1,510c <inst_34+0x14>
    5124:	00260613          	addi	a2,a2,2
    5128:	00c0006f          	j	5134 <inst_34+0x3c>
    512c:	00360613          	addi	a2,a2,3
    5130:	0040006f          	j	5134 <inst_34+0x3c>
    5134:	02c22a23          	sw	a2,52(tp) # 34 <num+0x27>

00005138 <inst_35>:
    5138:	00000513          	li	a0,0
    513c:	400005b7          	lui	a1,0x40000
    5140:	00000613          	li	a2,0
    5144:	00c0006f          	j	5150 <inst_35+0x18>
    5148:	00160613          	addi	a2,a2,1
    514c:	0180006f          	j	5164 <inst_35+0x2c>
    5150:	feb55ce3          	bge	a0,a1,5148 <inst_35+0x10>
    5154:	00260613          	addi	a2,a2,2
    5158:	00c0006f          	j	5164 <inst_35+0x2c>
    515c:	00360613          	addi	a2,a2,3
    5160:	0040006f          	j	5164 <inst_35+0x2c>
    5164:	02c22c23          	sw	a2,56(tp) # 38 <num+0x2b>

00005168 <inst_36>:
    5168:	ffa00513          	li	a0,-6
    516c:	800005b7          	lui	a1,0x80000
    5170:	00000613          	li	a2,0
    5174:	00c0006f          	j	5180 <inst_36+0x18>
    5178:	00160613          	addi	a2,a2,1
    517c:	10c0006f          	j	5288 <inst_36+0x120>
    5180:	10b55063          	bge	a0,a1,5280 <inst_36+0x118>
    5184:	00260613          	addi	a2,a2,2
    5188:	1000006f          	j	5288 <inst_36+0x120>
    518c:	00000013          	nop
    5190:	00000013          	nop
    5194:	00000013          	nop
    5198:	00000013          	nop
    519c:	00000013          	nop
    51a0:	00000013          	nop
    51a4:	00000013          	nop
    51a8:	00000013          	nop
    51ac:	00000013          	nop
    51b0:	00000013          	nop
    51b4:	00000013          	nop
    51b8:	00000013          	nop
    51bc:	00000013          	nop
    51c0:	00000013          	nop
    51c4:	00000013          	nop
    51c8:	00000013          	nop
    51cc:	00000013          	nop
    51d0:	00000013          	nop
    51d4:	00000013          	nop
    51d8:	00000013          	nop
    51dc:	00000013          	nop
    51e0:	00000013          	nop
    51e4:	00000013          	nop
    51e8:	00000013          	nop
    51ec:	00000013          	nop
    51f0:	00000013          	nop
    51f4:	00000013          	nop
    51f8:	00000013          	nop
    51fc:	00000013          	nop
    5200:	00000013          	nop
    5204:	00000013          	nop
    5208:	00000013          	nop
    520c:	00000013          	nop
    5210:	00000013          	nop
    5214:	00000013          	nop
    5218:	00000013          	nop
    521c:	00000013          	nop
    5220:	00000013          	nop
    5224:	00000013          	nop
    5228:	00000013          	nop
    522c:	00000013          	nop
    5230:	00000013          	nop
    5234:	00000013          	nop
    5238:	00000013          	nop
    523c:	00000013          	nop
    5240:	00000013          	nop
    5244:	00000013          	nop
    5248:	00000013          	nop
    524c:	00000013          	nop
    5250:	00000013          	nop
    5254:	00000013          	nop
    5258:	00000013          	nop
    525c:	00000013          	nop
    5260:	00000013          	nop
    5264:	00000013          	nop
    5268:	00000013          	nop
    526c:	00000013          	nop
    5270:	00000013          	nop
    5274:	00000013          	nop
    5278:	00000013          	nop
    527c:	00000013          	nop
    5280:	00360613          	addi	a2,a2,3
    5284:	0040006f          	j	5288 <inst_36+0x120>
    5288:	02c22e23          	sw	a2,60(tp) # 3c <num+0x2f>

0000528c <inst_37>:
    528c:	00040537          	lui	a0,0x40
    5290:	ffe00593          	li	a1,-2
    5294:	00000613          	li	a2,0
    5298:	00c0006f          	j	52a4 <inst_37+0x18>
    529c:	00160613          	addi	a2,a2,1
    52a0:	0180006f          	j	52b8 <inst_37+0x2c>
    52a4:	feb55ce3          	bge	a0,a1,529c <inst_37+0x10>
    52a8:	00260613          	addi	a2,a2,2
    52ac:	00c0006f          	j	52b8 <inst_37+0x2c>
    52b0:	00360613          	addi	a2,a2,3
    52b4:	0040006f          	j	52b8 <inst_37+0x2c>
    52b8:	04c22023          	sw	a2,64(tp) # 40 <num+0x33>

000052bc <inst_38>:
    52bc:	10000537          	lui	a0,0x10000
    52c0:	ffd00593          	li	a1,-3
    52c4:	00000613          	li	a2,0
    52c8:	0140006f          	j	52dc <inst_38+0x20>
    52cc:	00160613          	addi	a2,a2,1
    52d0:	0200006f          	j	52f0 <inst_38+0x34>
    52d4:	00000013          	nop
    52d8:	00000013          	nop
    52dc:	feb558e3          	bge	a0,a1,52cc <inst_38+0x10>
    52e0:	00260613          	addi	a2,a2,2
    52e4:	00c0006f          	j	52f0 <inst_38+0x34>
    52e8:	00360613          	addi	a2,a2,3
    52ec:	0040006f          	j	52f0 <inst_38+0x34>
    52f0:	04c22223          	sw	a2,68(tp) # 44 <num+0x37>

000052f4 <inst_39>:
    52f4:	ffe00513          	li	a0,-2
    52f8:	ff700593          	li	a1,-9
    52fc:	00000613          	li	a2,0
    5300:	00c0006f          	j	530c <inst_39+0x18>
    5304:	00160613          	addi	a2,a2,1
    5308:	0180006f          	j	5320 <inst_39+0x2c>
    530c:	feb55ce3          	bge	a0,a1,5304 <inst_39+0x10>
    5310:	00260613          	addi	a2,a2,2
    5314:	00c0006f          	j	5320 <inst_39+0x2c>
    5318:	00360613          	addi	a2,a2,3
    531c:	0040006f          	j	5320 <inst_39+0x2c>
    5320:	04c22423          	sw	a2,72(tp) # 48 <num+0x3b>

00005324 <inst_40>:
    5324:	80000537          	lui	a0,0x80000
    5328:	fef00593          	li	a1,-17
    532c:	00000613          	li	a2,0
    5330:	00c0006f          	j	533c <inst_40+0x18>
    5334:	00160613          	addi	a2,a2,1
    5338:	04c0006f          	j	5384 <inst_40+0x60>
    533c:	04b55063          	bge	a0,a1,537c <inst_40+0x58>
    5340:	00260613          	addi	a2,a2,2
    5344:	0400006f          	j	5384 <inst_40+0x60>
    5348:	00000013          	nop
    534c:	00000013          	nop
    5350:	00000013          	nop
    5354:	00000013          	nop
    5358:	00000013          	nop
    535c:	00000013          	nop
    5360:	00000013          	nop
    5364:	00000013          	nop
    5368:	00000013          	nop
    536c:	00000013          	nop
    5370:	00000013          	nop
    5374:	00000013          	nop
    5378:	00000013          	nop
    537c:	00360613          	addi	a2,a2,3
    5380:	0040006f          	j	5384 <inst_40+0x60>
    5384:	04c22623          	sw	a2,76(tp) # 4c <num+0x3f>

00005388 <inst_41>:
    5388:	ffff5537          	lui	a0,0xffff5
    538c:	afc50513          	addi	a0,a0,-1284 # ffff4afc <_end+0xfffb9af8>
    5390:	fdf00593          	li	a1,-33
    5394:	00000613          	li	a2,0
    5398:	00c0006f          	j	53a4 <inst_41+0x1c>
    539c:	00160613          	addi	a2,a2,1
    53a0:	0180006f          	j	53b8 <inst_41+0x30>
    53a4:	00b55663          	bge	a0,a1,53b0 <inst_41+0x28>
    53a8:	00260613          	addi	a2,a2,2
    53ac:	00c0006f          	j	53b8 <inst_41+0x30>
    53b0:	00360613          	addi	a2,a2,3
    53b4:	0040006f          	j	53b8 <inst_41+0x30>
    53b8:	04c22823          	sw	a2,80(tp) # 50 <num+0x43>

000053bc <inst_42>:
    53bc:	ff600513          	li	a0,-10
    53c0:	fbf00593          	li	a1,-65
    53c4:	00000613          	li	a2,0
    53c8:	00c0006f          	j	53d4 <inst_42+0x18>
    53cc:	00160613          	addi	a2,a2,1
    53d0:	0180006f          	j	53e8 <inst_42+0x2c>
    53d4:	00b55663          	bge	a0,a1,53e0 <inst_42+0x24>
    53d8:	00260613          	addi	a2,a2,2
    53dc:	00c0006f          	j	53e8 <inst_42+0x2c>
    53e0:	00360613          	addi	a2,a2,3
    53e4:	0040006f          	j	53e8 <inst_42+0x2c>
    53e8:	04c22a23          	sw	a2,84(tp) # 54 <num+0x47>

000053ec <inst_43>:
    53ec:	f8000537          	lui	a0,0xf8000
    53f0:	fff50513          	addi	a0,a0,-1 # f7ffffff <_end+0xf7fc4ffb>
    53f4:	f7f00593          	li	a1,-129
    53f8:	00000613          	li	a2,0
    53fc:	0050006f          	j	5c00 <inst_43+0x814>
    5400:	00160613          	addi	a2,a2,1
    5404:	0110006f          	j	5c14 <inst_43+0x828>
    5408:	00000013          	nop
    540c:	00000013          	nop
    5410:	00000013          	nop
    5414:	00000013          	nop
    5418:	00000013          	nop
    541c:	00000013          	nop
    5420:	00000013          	nop
    5424:	00000013          	nop
    5428:	00000013          	nop
    542c:	00000013          	nop
    5430:	00000013          	nop
    5434:	00000013          	nop
    5438:	00000013          	nop
    543c:	00000013          	nop
    5440:	00000013          	nop
    5444:	00000013          	nop
    5448:	00000013          	nop
    544c:	00000013          	nop
    5450:	00000013          	nop
    5454:	00000013          	nop
    5458:	00000013          	nop
    545c:	00000013          	nop
    5460:	00000013          	nop
    5464:	00000013          	nop
    5468:	00000013          	nop
    546c:	00000013          	nop
    5470:	00000013          	nop
    5474:	00000013          	nop
    5478:	00000013          	nop
    547c:	00000013          	nop
    5480:	00000013          	nop
    5484:	00000013          	nop
    5488:	00000013          	nop
    548c:	00000013          	nop
    5490:	00000013          	nop
    5494:	00000013          	nop
    5498:	00000013          	nop
    549c:	00000013          	nop
    54a0:	00000013          	nop
    54a4:	00000013          	nop
    54a8:	00000013          	nop
    54ac:	00000013          	nop
    54b0:	00000013          	nop
    54b4:	00000013          	nop
    54b8:	00000013          	nop
    54bc:	00000013          	nop
    54c0:	00000013          	nop
    54c4:	00000013          	nop
    54c8:	00000013          	nop
    54cc:	00000013          	nop
    54d0:	00000013          	nop
    54d4:	00000013          	nop
    54d8:	00000013          	nop
    54dc:	00000013          	nop
    54e0:	00000013          	nop
    54e4:	00000013          	nop
    54e8:	00000013          	nop
    54ec:	00000013          	nop
    54f0:	00000013          	nop
    54f4:	00000013          	nop
    54f8:	00000013          	nop
    54fc:	00000013          	nop
    5500:	00000013          	nop
    5504:	00000013          	nop
    5508:	00000013          	nop
    550c:	00000013          	nop
    5510:	00000013          	nop
    5514:	00000013          	nop
    5518:	00000013          	nop
    551c:	00000013          	nop
    5520:	00000013          	nop
    5524:	00000013          	nop
    5528:	00000013          	nop
    552c:	00000013          	nop
    5530:	00000013          	nop
    5534:	00000013          	nop
    5538:	00000013          	nop
    553c:	00000013          	nop
    5540:	00000013          	nop
    5544:	00000013          	nop
    5548:	00000013          	nop
    554c:	00000013          	nop
    5550:	00000013          	nop
    5554:	00000013          	nop
    5558:	00000013          	nop
    555c:	00000013          	nop
    5560:	00000013          	nop
    5564:	00000013          	nop
    5568:	00000013          	nop
    556c:	00000013          	nop
    5570:	00000013          	nop
    5574:	00000013          	nop
    5578:	00000013          	nop
    557c:	00000013          	nop
    5580:	00000013          	nop
    5584:	00000013          	nop
    5588:	00000013          	nop
    558c:	00000013          	nop
    5590:	00000013          	nop
    5594:	00000013          	nop
    5598:	00000013          	nop
    559c:	00000013          	nop
    55a0:	00000013          	nop
    55a4:	00000013          	nop
    55a8:	00000013          	nop
    55ac:	00000013          	nop
    55b0:	00000013          	nop
    55b4:	00000013          	nop
    55b8:	00000013          	nop
    55bc:	00000013          	nop
    55c0:	00000013          	nop
    55c4:	00000013          	nop
    55c8:	00000013          	nop
    55cc:	00000013          	nop
    55d0:	00000013          	nop
    55d4:	00000013          	nop
    55d8:	00000013          	nop
    55dc:	00000013          	nop
    55e0:	00000013          	nop
    55e4:	00000013          	nop
    55e8:	00000013          	nop
    55ec:	00000013          	nop
    55f0:	00000013          	nop
    55f4:	00000013          	nop
    55f8:	00000013          	nop
    55fc:	00000013          	nop
    5600:	00000013          	nop
    5604:	00000013          	nop
    5608:	00000013          	nop
    560c:	00000013          	nop
    5610:	00000013          	nop
    5614:	00000013          	nop
    5618:	00000013          	nop
    561c:	00000013          	nop
    5620:	00000013          	nop
    5624:	00000013          	nop
    5628:	00000013          	nop
    562c:	00000013          	nop
    5630:	00000013          	nop
    5634:	00000013          	nop
    5638:	00000013          	nop
    563c:	00000013          	nop
    5640:	00000013          	nop
    5644:	00000013          	nop
    5648:	00000013          	nop
    564c:	00000013          	nop
    5650:	00000013          	nop
    5654:	00000013          	nop
    5658:	00000013          	nop
    565c:	00000013          	nop
    5660:	00000013          	nop
    5664:	00000013          	nop
    5668:	00000013          	nop
    566c:	00000013          	nop
    5670:	00000013          	nop
    5674:	00000013          	nop
    5678:	00000013          	nop
    567c:	00000013          	nop
    5680:	00000013          	nop
    5684:	00000013          	nop
    5688:	00000013          	nop
    568c:	00000013          	nop
    5690:	00000013          	nop
    5694:	00000013          	nop
    5698:	00000013          	nop
    569c:	00000013          	nop
    56a0:	00000013          	nop
    56a4:	00000013          	nop
    56a8:	00000013          	nop
    56ac:	00000013          	nop
    56b0:	00000013          	nop
    56b4:	00000013          	nop
    56b8:	00000013          	nop
    56bc:	00000013          	nop
    56c0:	00000013          	nop
    56c4:	00000013          	nop
    56c8:	00000013          	nop
    56cc:	00000013          	nop
    56d0:	00000013          	nop
    56d4:	00000013          	nop
    56d8:	00000013          	nop
    56dc:	00000013          	nop
    56e0:	00000013          	nop
    56e4:	00000013          	nop
    56e8:	00000013          	nop
    56ec:	00000013          	nop
    56f0:	00000013          	nop
    56f4:	00000013          	nop
    56f8:	00000013          	nop
    56fc:	00000013          	nop
    5700:	00000013          	nop
    5704:	00000013          	nop
    5708:	00000013          	nop
    570c:	00000013          	nop
    5710:	00000013          	nop
    5714:	00000013          	nop
    5718:	00000013          	nop
    571c:	00000013          	nop
    5720:	00000013          	nop
    5724:	00000013          	nop
    5728:	00000013          	nop
    572c:	00000013          	nop
    5730:	00000013          	nop
    5734:	00000013          	nop
    5738:	00000013          	nop
    573c:	00000013          	nop
    5740:	00000013          	nop
    5744:	00000013          	nop
    5748:	00000013          	nop
    574c:	00000013          	nop
    5750:	00000013          	nop
    5754:	00000013          	nop
    5758:	00000013          	nop
    575c:	00000013          	nop
    5760:	00000013          	nop
    5764:	00000013          	nop
    5768:	00000013          	nop
    576c:	00000013          	nop
    5770:	00000013          	nop
    5774:	00000013          	nop
    5778:	00000013          	nop
    577c:	00000013          	nop
    5780:	00000013          	nop
    5784:	00000013          	nop
    5788:	00000013          	nop
    578c:	00000013          	nop
    5790:	00000013          	nop
    5794:	00000013          	nop
    5798:	00000013          	nop
    579c:	00000013          	nop
    57a0:	00000013          	nop
    57a4:	00000013          	nop
    57a8:	00000013          	nop
    57ac:	00000013          	nop
    57b0:	00000013          	nop
    57b4:	00000013          	nop
    57b8:	00000013          	nop
    57bc:	00000013          	nop
    57c0:	00000013          	nop
    57c4:	00000013          	nop
    57c8:	00000013          	nop
    57cc:	00000013          	nop
    57d0:	00000013          	nop
    57d4:	00000013          	nop
    57d8:	00000013          	nop
    57dc:	00000013          	nop
    57e0:	00000013          	nop
    57e4:	00000013          	nop
    57e8:	00000013          	nop
    57ec:	00000013          	nop
    57f0:	00000013          	nop
    57f4:	00000013          	nop
    57f8:	00000013          	nop
    57fc:	00000013          	nop
    5800:	00000013          	nop
    5804:	00000013          	nop
    5808:	00000013          	nop
    580c:	00000013          	nop
    5810:	00000013          	nop
    5814:	00000013          	nop
    5818:	00000013          	nop
    581c:	00000013          	nop
    5820:	00000013          	nop
    5824:	00000013          	nop
    5828:	00000013          	nop
    582c:	00000013          	nop
    5830:	00000013          	nop
    5834:	00000013          	nop
    5838:	00000013          	nop
    583c:	00000013          	nop
    5840:	00000013          	nop
    5844:	00000013          	nop
    5848:	00000013          	nop
    584c:	00000013          	nop
    5850:	00000013          	nop
    5854:	00000013          	nop
    5858:	00000013          	nop
    585c:	00000013          	nop
    5860:	00000013          	nop
    5864:	00000013          	nop
    5868:	00000013          	nop
    586c:	00000013          	nop
    5870:	00000013          	nop
    5874:	00000013          	nop
    5878:	00000013          	nop
    587c:	00000013          	nop
    5880:	00000013          	nop
    5884:	00000013          	nop
    5888:	00000013          	nop
    588c:	00000013          	nop
    5890:	00000013          	nop
    5894:	00000013          	nop
    5898:	00000013          	nop
    589c:	00000013          	nop
    58a0:	00000013          	nop
    58a4:	00000013          	nop
    58a8:	00000013          	nop
    58ac:	00000013          	nop
    58b0:	00000013          	nop
    58b4:	00000013          	nop
    58b8:	00000013          	nop
    58bc:	00000013          	nop
    58c0:	00000013          	nop
    58c4:	00000013          	nop
    58c8:	00000013          	nop
    58cc:	00000013          	nop
    58d0:	00000013          	nop
    58d4:	00000013          	nop
    58d8:	00000013          	nop
    58dc:	00000013          	nop
    58e0:	00000013          	nop
    58e4:	00000013          	nop
    58e8:	00000013          	nop
    58ec:	00000013          	nop
    58f0:	00000013          	nop
    58f4:	00000013          	nop
    58f8:	00000013          	nop
    58fc:	00000013          	nop
    5900:	00000013          	nop
    5904:	00000013          	nop
    5908:	00000013          	nop
    590c:	00000013          	nop
    5910:	00000013          	nop
    5914:	00000013          	nop
    5918:	00000013          	nop
    591c:	00000013          	nop
    5920:	00000013          	nop
    5924:	00000013          	nop
    5928:	00000013          	nop
    592c:	00000013          	nop
    5930:	00000013          	nop
    5934:	00000013          	nop
    5938:	00000013          	nop
    593c:	00000013          	nop
    5940:	00000013          	nop
    5944:	00000013          	nop
    5948:	00000013          	nop
    594c:	00000013          	nop
    5950:	00000013          	nop
    5954:	00000013          	nop
    5958:	00000013          	nop
    595c:	00000013          	nop
    5960:	00000013          	nop
    5964:	00000013          	nop
    5968:	00000013          	nop
    596c:	00000013          	nop
    5970:	00000013          	nop
    5974:	00000013          	nop
    5978:	00000013          	nop
    597c:	00000013          	nop
    5980:	00000013          	nop
    5984:	00000013          	nop
    5988:	00000013          	nop
    598c:	00000013          	nop
    5990:	00000013          	nop
    5994:	00000013          	nop
    5998:	00000013          	nop
    599c:	00000013          	nop
    59a0:	00000013          	nop
    59a4:	00000013          	nop
    59a8:	00000013          	nop
    59ac:	00000013          	nop
    59b0:	00000013          	nop
    59b4:	00000013          	nop
    59b8:	00000013          	nop
    59bc:	00000013          	nop
    59c0:	00000013          	nop
    59c4:	00000013          	nop
    59c8:	00000013          	nop
    59cc:	00000013          	nop
    59d0:	00000013          	nop
    59d4:	00000013          	nop
    59d8:	00000013          	nop
    59dc:	00000013          	nop
    59e0:	00000013          	nop
    59e4:	00000013          	nop
    59e8:	00000013          	nop
    59ec:	00000013          	nop
    59f0:	00000013          	nop
    59f4:	00000013          	nop
    59f8:	00000013          	nop
    59fc:	00000013          	nop
    5a00:	00000013          	nop
    5a04:	00000013          	nop
    5a08:	00000013          	nop
    5a0c:	00000013          	nop
    5a10:	00000013          	nop
    5a14:	00000013          	nop
    5a18:	00000013          	nop
    5a1c:	00000013          	nop
    5a20:	00000013          	nop
    5a24:	00000013          	nop
    5a28:	00000013          	nop
    5a2c:	00000013          	nop
    5a30:	00000013          	nop
    5a34:	00000013          	nop
    5a38:	00000013          	nop
    5a3c:	00000013          	nop
    5a40:	00000013          	nop
    5a44:	00000013          	nop
    5a48:	00000013          	nop
    5a4c:	00000013          	nop
    5a50:	00000013          	nop
    5a54:	00000013          	nop
    5a58:	00000013          	nop
    5a5c:	00000013          	nop
    5a60:	00000013          	nop
    5a64:	00000013          	nop
    5a68:	00000013          	nop
    5a6c:	00000013          	nop
    5a70:	00000013          	nop
    5a74:	00000013          	nop
    5a78:	00000013          	nop
    5a7c:	00000013          	nop
    5a80:	00000013          	nop
    5a84:	00000013          	nop
    5a88:	00000013          	nop
    5a8c:	00000013          	nop
    5a90:	00000013          	nop
    5a94:	00000013          	nop
    5a98:	00000013          	nop
    5a9c:	00000013          	nop
    5aa0:	00000013          	nop
    5aa4:	00000013          	nop
    5aa8:	00000013          	nop
    5aac:	00000013          	nop
    5ab0:	00000013          	nop
    5ab4:	00000013          	nop
    5ab8:	00000013          	nop
    5abc:	00000013          	nop
    5ac0:	00000013          	nop
    5ac4:	00000013          	nop
    5ac8:	00000013          	nop
    5acc:	00000013          	nop
    5ad0:	00000013          	nop
    5ad4:	00000013          	nop
    5ad8:	00000013          	nop
    5adc:	00000013          	nop
    5ae0:	00000013          	nop
    5ae4:	00000013          	nop
    5ae8:	00000013          	nop
    5aec:	00000013          	nop
    5af0:	00000013          	nop
    5af4:	00000013          	nop
    5af8:	00000013          	nop
    5afc:	00000013          	nop
    5b00:	00000013          	nop
    5b04:	00000013          	nop
    5b08:	00000013          	nop
    5b0c:	00000013          	nop
    5b10:	00000013          	nop
    5b14:	00000013          	nop
    5b18:	00000013          	nop
    5b1c:	00000013          	nop
    5b20:	00000013          	nop
    5b24:	00000013          	nop
    5b28:	00000013          	nop
    5b2c:	00000013          	nop
    5b30:	00000013          	nop
    5b34:	00000013          	nop
    5b38:	00000013          	nop
    5b3c:	00000013          	nop
    5b40:	00000013          	nop
    5b44:	00000013          	nop
    5b48:	00000013          	nop
    5b4c:	00000013          	nop
    5b50:	00000013          	nop
    5b54:	00000013          	nop
    5b58:	00000013          	nop
    5b5c:	00000013          	nop
    5b60:	00000013          	nop
    5b64:	00000013          	nop
    5b68:	00000013          	nop
    5b6c:	00000013          	nop
    5b70:	00000013          	nop
    5b74:	00000013          	nop
    5b78:	00000013          	nop
    5b7c:	00000013          	nop
    5b80:	00000013          	nop
    5b84:	00000013          	nop
    5b88:	00000013          	nop
    5b8c:	00000013          	nop
    5b90:	00000013          	nop
    5b94:	00000013          	nop
    5b98:	00000013          	nop
    5b9c:	00000013          	nop
    5ba0:	00000013          	nop
    5ba4:	00000013          	nop
    5ba8:	00000013          	nop
    5bac:	00000013          	nop
    5bb0:	00000013          	nop
    5bb4:	00000013          	nop
    5bb8:	00000013          	nop
    5bbc:	00000013          	nop
    5bc0:	00000013          	nop
    5bc4:	00000013          	nop
    5bc8:	00000013          	nop
    5bcc:	00000013          	nop
    5bd0:	00000013          	nop
    5bd4:	00000013          	nop
    5bd8:	00000013          	nop
    5bdc:	00000013          	nop
    5be0:	00000013          	nop
    5be4:	00000013          	nop
    5be8:	00000013          	nop
    5bec:	00000013          	nop
    5bf0:	00000013          	nop
    5bf4:	00000013          	nop
    5bf8:	00000013          	nop
    5bfc:	00000013          	nop
    5c00:	80b550e3          	bge	a0,a1,5400 <inst_43+0x14>
    5c04:	00260613          	addi	a2,a2,2
    5c08:	00c0006f          	j	5c14 <inst_43+0x828>
    5c0c:	00360613          	addi	a2,a2,3
    5c10:	0040006f          	j	5c14 <inst_43+0x828>
    5c14:	04c22c23          	sw	a2,88(tp) # 58 <num+0x4b>

00005c18 <inst_44>:
    5c18:	40000537          	lui	a0,0x40000
    5c1c:	fff50513          	addi	a0,a0,-1 # 3fffffff <_end+0x3ffc4ffb>
    5c20:	eff00593          	li	a1,-257
    5c24:	00000613          	li	a2,0
    5c28:	0140006f          	j	5c3c <inst_44+0x24>
    5c2c:	00160613          	addi	a2,a2,1
    5c30:	0200006f          	j	5c50 <inst_44+0x38>
    5c34:	00000013          	nop
    5c38:	00000013          	nop
    5c3c:	feb558e3          	bge	a0,a1,5c2c <inst_44+0x14>
    5c40:	00260613          	addi	a2,a2,2
    5c44:	00c0006f          	j	5c50 <inst_44+0x38>
    5c48:	00360613          	addi	a2,a2,3
    5c4c:	0040006f          	j	5c50 <inst_44+0x38>
    5c50:	04c22e23          	sw	a2,92(tp) # 5c <num+0x4f>

00005c54 <inst_45>:
    5c54:	ffc00513          	li	a0,-4
    5c58:	dff00593          	li	a1,-513
    5c5c:	00000613          	li	a2,0
    5c60:	00c0006f          	j	5c6c <inst_45+0x18>
    5c64:	00160613          	addi	a2,a2,1
    5c68:	02c0006f          	j	5c94 <inst_45+0x40>
    5c6c:	02b55063          	bge	a0,a1,5c8c <inst_45+0x38>
    5c70:	00260613          	addi	a2,a2,2
    5c74:	0200006f          	j	5c94 <inst_45+0x40>
    5c78:	00000013          	nop
    5c7c:	00000013          	nop
    5c80:	00000013          	nop
    5c84:	00000013          	nop
    5c88:	00000013          	nop
    5c8c:	00360613          	addi	a2,a2,3
    5c90:	0040006f          	j	5c94 <inst_45+0x40>
    5c94:	06c22023          	sw	a2,96(tp) # 60 <num+0x53>

00005c98 <inst_46>:
    5c98:	00040537          	lui	a0,0x40
    5c9c:	bff00593          	li	a1,-1025
    5ca0:	00000613          	li	a2,0
    5ca4:	00c0006f          	j	5cb0 <inst_46+0x18>
    5ca8:	00160613          	addi	a2,a2,1
    5cac:	0180006f          	j	5cc4 <inst_46+0x2c>
    5cb0:	00b55663          	bge	a0,a1,5cbc <inst_46+0x24>
    5cb4:	00260613          	addi	a2,a2,2
    5cb8:	00c0006f          	j	5cc4 <inst_46+0x2c>
    5cbc:	00360613          	addi	a2,a2,3
    5cc0:	0040006f          	j	5cc4 <inst_46+0x2c>
    5cc4:	06c22223          	sw	a2,100(tp) # 64 <num+0x57>

00005cc8 <inst_47>:
    5cc8:	ffe00513          	li	a0,-2
    5ccc:	fffff5b7          	lui	a1,0xfffff
    5cd0:	7ff58593          	addi	a1,a1,2047 # fffff7ff <_end+0xfffc47fb>
    5cd4:	00000613          	li	a2,0
    5cd8:	2b10006f          	j	6788 <inst_47+0xac0>
    5cdc:	00160613          	addi	a2,a2,1
    5ce0:	2bd0006f          	j	679c <inst_47+0xad4>
    5ce4:	00000013          	nop
    5ce8:	00000013          	nop
    5cec:	00000013          	nop
    5cf0:	00000013          	nop
    5cf4:	00000013          	nop
    5cf8:	00000013          	nop
    5cfc:	00000013          	nop
    5d00:	00000013          	nop
    5d04:	00000013          	nop
    5d08:	00000013          	nop
    5d0c:	00000013          	nop
    5d10:	00000013          	nop
    5d14:	00000013          	nop
    5d18:	00000013          	nop
    5d1c:	00000013          	nop
    5d20:	00000013          	nop
    5d24:	00000013          	nop
    5d28:	00000013          	nop
    5d2c:	00000013          	nop
    5d30:	00000013          	nop
    5d34:	00000013          	nop
    5d38:	00000013          	nop
    5d3c:	00000013          	nop
    5d40:	00000013          	nop
    5d44:	00000013          	nop
    5d48:	00000013          	nop
    5d4c:	00000013          	nop
    5d50:	00000013          	nop
    5d54:	00000013          	nop
    5d58:	00000013          	nop
    5d5c:	00000013          	nop
    5d60:	00000013          	nop
    5d64:	00000013          	nop
    5d68:	00000013          	nop
    5d6c:	00000013          	nop
    5d70:	00000013          	nop
    5d74:	00000013          	nop
    5d78:	00000013          	nop
    5d7c:	00000013          	nop
    5d80:	00000013          	nop
    5d84:	00000013          	nop
    5d88:	00000013          	nop
    5d8c:	00000013          	nop
    5d90:	00000013          	nop
    5d94:	00000013          	nop
    5d98:	00000013          	nop
    5d9c:	00000013          	nop
    5da0:	00000013          	nop
    5da4:	00000013          	nop
    5da8:	00000013          	nop
    5dac:	00000013          	nop
    5db0:	00000013          	nop
    5db4:	00000013          	nop
    5db8:	00000013          	nop
    5dbc:	00000013          	nop
    5dc0:	00000013          	nop
    5dc4:	00000013          	nop
    5dc8:	00000013          	nop
    5dcc:	00000013          	nop
    5dd0:	00000013          	nop
    5dd4:	00000013          	nop
    5dd8:	00000013          	nop
    5ddc:	00000013          	nop
    5de0:	00000013          	nop
    5de4:	00000013          	nop
    5de8:	00000013          	nop
    5dec:	00000013          	nop
    5df0:	00000013          	nop
    5df4:	00000013          	nop
    5df8:	00000013          	nop
    5dfc:	00000013          	nop
    5e00:	00000013          	nop
    5e04:	00000013          	nop
    5e08:	00000013          	nop
    5e0c:	00000013          	nop
    5e10:	00000013          	nop
    5e14:	00000013          	nop
    5e18:	00000013          	nop
    5e1c:	00000013          	nop
    5e20:	00000013          	nop
    5e24:	00000013          	nop
    5e28:	00000013          	nop
    5e2c:	00000013          	nop
    5e30:	00000013          	nop
    5e34:	00000013          	nop
    5e38:	00000013          	nop
    5e3c:	00000013          	nop
    5e40:	00000013          	nop
    5e44:	00000013          	nop
    5e48:	00000013          	nop
    5e4c:	00000013          	nop
    5e50:	00000013          	nop
    5e54:	00000013          	nop
    5e58:	00000013          	nop
    5e5c:	00000013          	nop
    5e60:	00000013          	nop
    5e64:	00000013          	nop
    5e68:	00000013          	nop
    5e6c:	00000013          	nop
    5e70:	00000013          	nop
    5e74:	00000013          	nop
    5e78:	00000013          	nop
    5e7c:	00000013          	nop
    5e80:	00000013          	nop
    5e84:	00000013          	nop
    5e88:	00000013          	nop
    5e8c:	00000013          	nop
    5e90:	00000013          	nop
    5e94:	00000013          	nop
    5e98:	00000013          	nop
    5e9c:	00000013          	nop
    5ea0:	00000013          	nop
    5ea4:	00000013          	nop
    5ea8:	00000013          	nop
    5eac:	00000013          	nop
    5eb0:	00000013          	nop
    5eb4:	00000013          	nop
    5eb8:	00000013          	nop
    5ebc:	00000013          	nop
    5ec0:	00000013          	nop
    5ec4:	00000013          	nop
    5ec8:	00000013          	nop
    5ecc:	00000013          	nop
    5ed0:	00000013          	nop
    5ed4:	00000013          	nop
    5ed8:	00000013          	nop
    5edc:	00000013          	nop
    5ee0:	00000013          	nop
    5ee4:	00000013          	nop
    5ee8:	00000013          	nop
    5eec:	00000013          	nop
    5ef0:	00000013          	nop
    5ef4:	00000013          	nop
    5ef8:	00000013          	nop
    5efc:	00000013          	nop
    5f00:	00000013          	nop
    5f04:	00000013          	nop
    5f08:	00000013          	nop
    5f0c:	00000013          	nop
    5f10:	00000013          	nop
    5f14:	00000013          	nop
    5f18:	00000013          	nop
    5f1c:	00000013          	nop
    5f20:	00000013          	nop
    5f24:	00000013          	nop
    5f28:	00000013          	nop
    5f2c:	00000013          	nop
    5f30:	00000013          	nop
    5f34:	00000013          	nop
    5f38:	00000013          	nop
    5f3c:	00000013          	nop
    5f40:	00000013          	nop
    5f44:	00000013          	nop
    5f48:	00000013          	nop
    5f4c:	00000013          	nop
    5f50:	00000013          	nop
    5f54:	00000013          	nop
    5f58:	00000013          	nop
    5f5c:	00000013          	nop
    5f60:	00000013          	nop
    5f64:	00000013          	nop
    5f68:	00000013          	nop
    5f6c:	00000013          	nop
    5f70:	00000013          	nop
    5f74:	00000013          	nop
    5f78:	00000013          	nop
    5f7c:	00000013          	nop
    5f80:	00000013          	nop
    5f84:	00000013          	nop
    5f88:	00000013          	nop
    5f8c:	00000013          	nop
    5f90:	00000013          	nop
    5f94:	00000013          	nop
    5f98:	00000013          	nop
    5f9c:	00000013          	nop
    5fa0:	00000013          	nop
    5fa4:	00000013          	nop
    5fa8:	00000013          	nop
    5fac:	00000013          	nop
    5fb0:	00000013          	nop
    5fb4:	00000013          	nop
    5fb8:	00000013          	nop
    5fbc:	00000013          	nop
    5fc0:	00000013          	nop
    5fc4:	00000013          	nop
    5fc8:	00000013          	nop
    5fcc:	00000013          	nop
    5fd0:	00000013          	nop
    5fd4:	00000013          	nop
    5fd8:	00000013          	nop
    5fdc:	00000013          	nop
    5fe0:	00000013          	nop
    5fe4:	00000013          	nop
    5fe8:	00000013          	nop
    5fec:	00000013          	nop
    5ff0:	00000013          	nop
    5ff4:	00000013          	nop
    5ff8:	00000013          	nop
    5ffc:	00000013          	nop
    6000:	00000013          	nop
    6004:	00000013          	nop
    6008:	00000013          	nop
    600c:	00000013          	nop
    6010:	00000013          	nop
    6014:	00000013          	nop
    6018:	00000013          	nop
    601c:	00000013          	nop
    6020:	00000013          	nop
    6024:	00000013          	nop
    6028:	00000013          	nop
    602c:	00000013          	nop
    6030:	00000013          	nop
    6034:	00000013          	nop
    6038:	00000013          	nop
    603c:	00000013          	nop
    6040:	00000013          	nop
    6044:	00000013          	nop
    6048:	00000013          	nop
    604c:	00000013          	nop
    6050:	00000013          	nop
    6054:	00000013          	nop
    6058:	00000013          	nop
    605c:	00000013          	nop
    6060:	00000013          	nop
    6064:	00000013          	nop
    6068:	00000013          	nop
    606c:	00000013          	nop
    6070:	00000013          	nop
    6074:	00000013          	nop
    6078:	00000013          	nop
    607c:	00000013          	nop
    6080:	00000013          	nop
    6084:	00000013          	nop
    6088:	00000013          	nop
    608c:	00000013          	nop
    6090:	00000013          	nop
    6094:	00000013          	nop
    6098:	00000013          	nop
    609c:	00000013          	nop
    60a0:	00000013          	nop
    60a4:	00000013          	nop
    60a8:	00000013          	nop
    60ac:	00000013          	nop
    60b0:	00000013          	nop
    60b4:	00000013          	nop
    60b8:	00000013          	nop
    60bc:	00000013          	nop
    60c0:	00000013          	nop
    60c4:	00000013          	nop
    60c8:	00000013          	nop
    60cc:	00000013          	nop
    60d0:	00000013          	nop
    60d4:	00000013          	nop
    60d8:	00000013          	nop
    60dc:	00000013          	nop
    60e0:	00000013          	nop
    60e4:	00000013          	nop
    60e8:	00000013          	nop
    60ec:	00000013          	nop
    60f0:	00000013          	nop
    60f4:	00000013          	nop
    60f8:	00000013          	nop
    60fc:	00000013          	nop
    6100:	00000013          	nop
    6104:	00000013          	nop
    6108:	00000013          	nop
    610c:	00000013          	nop
    6110:	00000013          	nop
    6114:	00000013          	nop
    6118:	00000013          	nop
    611c:	00000013          	nop
    6120:	00000013          	nop
    6124:	00000013          	nop
    6128:	00000013          	nop
    612c:	00000013          	nop
    6130:	00000013          	nop
    6134:	00000013          	nop
    6138:	00000013          	nop
    613c:	00000013          	nop
    6140:	00000013          	nop
    6144:	00000013          	nop
    6148:	00000013          	nop
    614c:	00000013          	nop
    6150:	00000013          	nop
    6154:	00000013          	nop
    6158:	00000013          	nop
    615c:	00000013          	nop
    6160:	00000013          	nop
    6164:	00000013          	nop
    6168:	00000013          	nop
    616c:	00000013          	nop
    6170:	00000013          	nop
    6174:	00000013          	nop
    6178:	00000013          	nop
    617c:	00000013          	nop
    6180:	00000013          	nop
    6184:	00000013          	nop
    6188:	00000013          	nop
    618c:	00000013          	nop
    6190:	00000013          	nop
    6194:	00000013          	nop
    6198:	00000013          	nop
    619c:	00000013          	nop
    61a0:	00000013          	nop
    61a4:	00000013          	nop
    61a8:	00000013          	nop
    61ac:	00000013          	nop
    61b0:	00000013          	nop
    61b4:	00000013          	nop
    61b8:	00000013          	nop
    61bc:	00000013          	nop
    61c0:	00000013          	nop
    61c4:	00000013          	nop
    61c8:	00000013          	nop
    61cc:	00000013          	nop
    61d0:	00000013          	nop
    61d4:	00000013          	nop
    61d8:	00000013          	nop
    61dc:	00000013          	nop
    61e0:	00000013          	nop
    61e4:	00000013          	nop
    61e8:	00000013          	nop
    61ec:	00000013          	nop
    61f0:	00000013          	nop
    61f4:	00000013          	nop
    61f8:	00000013          	nop
    61fc:	00000013          	nop
    6200:	00000013          	nop
    6204:	00000013          	nop
    6208:	00000013          	nop
    620c:	00000013          	nop
    6210:	00000013          	nop
    6214:	00000013          	nop
    6218:	00000013          	nop
    621c:	00000013          	nop
    6220:	00000013          	nop
    6224:	00000013          	nop
    6228:	00000013          	nop
    622c:	00000013          	nop
    6230:	00000013          	nop
    6234:	00000013          	nop
    6238:	00000013          	nop
    623c:	00000013          	nop
    6240:	00000013          	nop
    6244:	00000013          	nop
    6248:	00000013          	nop
    624c:	00000013          	nop
    6250:	00000013          	nop
    6254:	00000013          	nop
    6258:	00000013          	nop
    625c:	00000013          	nop
    6260:	00000013          	nop
    6264:	00000013          	nop
    6268:	00000013          	nop
    626c:	00000013          	nop
    6270:	00000013          	nop
    6274:	00000013          	nop
    6278:	00000013          	nop
    627c:	00000013          	nop
    6280:	00000013          	nop
    6284:	00000013          	nop
    6288:	00000013          	nop
    628c:	00000013          	nop
    6290:	00000013          	nop
    6294:	00000013          	nop
    6298:	00000013          	nop
    629c:	00000013          	nop
    62a0:	00000013          	nop
    62a4:	00000013          	nop
    62a8:	00000013          	nop
    62ac:	00000013          	nop
    62b0:	00000013          	nop
    62b4:	00000013          	nop
    62b8:	00000013          	nop
    62bc:	00000013          	nop
    62c0:	00000013          	nop
    62c4:	00000013          	nop
    62c8:	00000013          	nop
    62cc:	00000013          	nop
    62d0:	00000013          	nop
    62d4:	00000013          	nop
    62d8:	00000013          	nop
    62dc:	00000013          	nop
    62e0:	00000013          	nop
    62e4:	00000013          	nop
    62e8:	00000013          	nop
    62ec:	00000013          	nop
    62f0:	00000013          	nop
    62f4:	00000013          	nop
    62f8:	00000013          	nop
    62fc:	00000013          	nop
    6300:	00000013          	nop
    6304:	00000013          	nop
    6308:	00000013          	nop
    630c:	00000013          	nop
    6310:	00000013          	nop
    6314:	00000013          	nop
    6318:	00000013          	nop
    631c:	00000013          	nop
    6320:	00000013          	nop
    6324:	00000013          	nop
    6328:	00000013          	nop
    632c:	00000013          	nop
    6330:	00000013          	nop
    6334:	00000013          	nop
    6338:	00000013          	nop
    633c:	00000013          	nop
    6340:	00000013          	nop
    6344:	00000013          	nop
    6348:	00000013          	nop
    634c:	00000013          	nop
    6350:	00000013          	nop
    6354:	00000013          	nop
    6358:	00000013          	nop
    635c:	00000013          	nop
    6360:	00000013          	nop
    6364:	00000013          	nop
    6368:	00000013          	nop
    636c:	00000013          	nop
    6370:	00000013          	nop
    6374:	00000013          	nop
    6378:	00000013          	nop
    637c:	00000013          	nop
    6380:	00000013          	nop
    6384:	00000013          	nop
    6388:	00000013          	nop
    638c:	00000013          	nop
    6390:	00000013          	nop
    6394:	00000013          	nop
    6398:	00000013          	nop
    639c:	00000013          	nop
    63a0:	00000013          	nop
    63a4:	00000013          	nop
    63a8:	00000013          	nop
    63ac:	00000013          	nop
    63b0:	00000013          	nop
    63b4:	00000013          	nop
    63b8:	00000013          	nop
    63bc:	00000013          	nop
    63c0:	00000013          	nop
    63c4:	00000013          	nop
    63c8:	00000013          	nop
    63cc:	00000013          	nop
    63d0:	00000013          	nop
    63d4:	00000013          	nop
    63d8:	00000013          	nop
    63dc:	00000013          	nop
    63e0:	00000013          	nop
    63e4:	00000013          	nop
    63e8:	00000013          	nop
    63ec:	00000013          	nop
    63f0:	00000013          	nop
    63f4:	00000013          	nop
    63f8:	00000013          	nop
    63fc:	00000013          	nop
    6400:	00000013          	nop
    6404:	00000013          	nop
    6408:	00000013          	nop
    640c:	00000013          	nop
    6410:	00000013          	nop
    6414:	00000013          	nop
    6418:	00000013          	nop
    641c:	00000013          	nop
    6420:	00000013          	nop
    6424:	00000013          	nop
    6428:	00000013          	nop
    642c:	00000013          	nop
    6430:	00000013          	nop
    6434:	00000013          	nop
    6438:	00000013          	nop
    643c:	00000013          	nop
    6440:	00000013          	nop
    6444:	00000013          	nop
    6448:	00000013          	nop
    644c:	00000013          	nop
    6450:	00000013          	nop
    6454:	00000013          	nop
    6458:	00000013          	nop
    645c:	00000013          	nop
    6460:	00000013          	nop
    6464:	00000013          	nop
    6468:	00000013          	nop
    646c:	00000013          	nop
    6470:	00000013          	nop
    6474:	00000013          	nop
    6478:	00000013          	nop
    647c:	00000013          	nop
    6480:	00000013          	nop
    6484:	00000013          	nop
    6488:	00000013          	nop
    648c:	00000013          	nop
    6490:	00000013          	nop
    6494:	00000013          	nop
    6498:	00000013          	nop
    649c:	00000013          	nop
    64a0:	00000013          	nop
    64a4:	00000013          	nop
    64a8:	00000013          	nop
    64ac:	00000013          	nop
    64b0:	00000013          	nop
    64b4:	00000013          	nop
    64b8:	00000013          	nop
    64bc:	00000013          	nop
    64c0:	00000013          	nop
    64c4:	00000013          	nop
    64c8:	00000013          	nop
    64cc:	00000013          	nop
    64d0:	00000013          	nop
    64d4:	00000013          	nop
    64d8:	00000013          	nop
    64dc:	00000013          	nop
    64e0:	00000013          	nop
    64e4:	00000013          	nop
    64e8:	00000013          	nop
    64ec:	00000013          	nop
    64f0:	00000013          	nop
    64f4:	00000013          	nop
    64f8:	00000013          	nop
    64fc:	00000013          	nop
    6500:	00000013          	nop
    6504:	00000013          	nop
    6508:	00000013          	nop
    650c:	00000013          	nop
    6510:	00000013          	nop
    6514:	00000013          	nop
    6518:	00000013          	nop
    651c:	00000013          	nop
    6520:	00000013          	nop
    6524:	00000013          	nop
    6528:	00000013          	nop
    652c:	00000013          	nop
    6530:	00000013          	nop
    6534:	00000013          	nop
    6538:	00000013          	nop
    653c:	00000013          	nop
    6540:	00000013          	nop
    6544:	00000013          	nop
    6548:	00000013          	nop
    654c:	00000013          	nop
    6550:	00000013          	nop
    6554:	00000013          	nop
    6558:	00000013          	nop
    655c:	00000013          	nop
    6560:	00000013          	nop
    6564:	00000013          	nop
    6568:	00000013          	nop
    656c:	00000013          	nop
    6570:	00000013          	nop
    6574:	00000013          	nop
    6578:	00000013          	nop
    657c:	00000013          	nop
    6580:	00000013          	nop
    6584:	00000013          	nop
    6588:	00000013          	nop
    658c:	00000013          	nop
    6590:	00000013          	nop
    6594:	00000013          	nop
    6598:	00000013          	nop
    659c:	00000013          	nop
    65a0:	00000013          	nop
    65a4:	00000013          	nop
    65a8:	00000013          	nop
    65ac:	00000013          	nop
    65b0:	00000013          	nop
    65b4:	00000013          	nop
    65b8:	00000013          	nop
    65bc:	00000013          	nop
    65c0:	00000013          	nop
    65c4:	00000013          	nop
    65c8:	00000013          	nop
    65cc:	00000013          	nop
    65d0:	00000013          	nop
    65d4:	00000013          	nop
    65d8:	00000013          	nop
    65dc:	00000013          	nop
    65e0:	00000013          	nop
    65e4:	00000013          	nop
    65e8:	00000013          	nop
    65ec:	00000013          	nop
    65f0:	00000013          	nop
    65f4:	00000013          	nop
    65f8:	00000013          	nop
    65fc:	00000013          	nop
    6600:	00000013          	nop
    6604:	00000013          	nop
    6608:	00000013          	nop
    660c:	00000013          	nop
    6610:	00000013          	nop
    6614:	00000013          	nop
    6618:	00000013          	nop
    661c:	00000013          	nop
    6620:	00000013          	nop
    6624:	00000013          	nop
    6628:	00000013          	nop
    662c:	00000013          	nop
    6630:	00000013          	nop
    6634:	00000013          	nop
    6638:	00000013          	nop
    663c:	00000013          	nop
    6640:	00000013          	nop
    6644:	00000013          	nop
    6648:	00000013          	nop
    664c:	00000013          	nop
    6650:	00000013          	nop
    6654:	00000013          	nop
    6658:	00000013          	nop
    665c:	00000013          	nop
    6660:	00000013          	nop
    6664:	00000013          	nop
    6668:	00000013          	nop
    666c:	00000013          	nop
    6670:	00000013          	nop
    6674:	00000013          	nop
    6678:	00000013          	nop
    667c:	00000013          	nop
    6680:	00000013          	nop
    6684:	00000013          	nop
    6688:	00000013          	nop
    668c:	00000013          	nop
    6690:	00000013          	nop
    6694:	00000013          	nop
    6698:	00000013          	nop
    669c:	00000013          	nop
    66a0:	00000013          	nop
    66a4:	00000013          	nop
    66a8:	00000013          	nop
    66ac:	00000013          	nop
    66b0:	00000013          	nop
    66b4:	00000013          	nop
    66b8:	00000013          	nop
    66bc:	00000013          	nop
    66c0:	00000013          	nop
    66c4:	00000013          	nop
    66c8:	00000013          	nop
    66cc:	00000013          	nop
    66d0:	00000013          	nop
    66d4:	00000013          	nop
    66d8:	00000013          	nop
    66dc:	00000013          	nop
    66e0:	00000013          	nop
    66e4:	00000013          	nop
    66e8:	00000013          	nop
    66ec:	00000013          	nop
    66f0:	00000013          	nop
    66f4:	00000013          	nop
    66f8:	00000013          	nop
    66fc:	00000013          	nop
    6700:	00000013          	nop
    6704:	00000013          	nop
    6708:	00000013          	nop
    670c:	00000013          	nop
    6710:	00000013          	nop
    6714:	00000013          	nop
    6718:	00000013          	nop
    671c:	00000013          	nop
    6720:	00000013          	nop
    6724:	00000013          	nop
    6728:	00000013          	nop
    672c:	00000013          	nop
    6730:	00000013          	nop
    6734:	00000013          	nop
    6738:	00000013          	nop
    673c:	00000013          	nop
    6740:	00000013          	nop
    6744:	00000013          	nop
    6748:	00000013          	nop
    674c:	00000013          	nop
    6750:	00000013          	nop
    6754:	00000013          	nop
    6758:	00000013          	nop
    675c:	00000013          	nop
    6760:	00000013          	nop
    6764:	00000013          	nop
    6768:	00000013          	nop
    676c:	00000013          	nop
    6770:	00000013          	nop
    6774:	00000013          	nop
    6778:	00000013          	nop
    677c:	00000013          	nop
    6780:	00000013          	nop
    6784:	00000013          	nop
    6788:	d4b55a63          	bge	a0,a1,5cdc <inst_47+0x14>
    678c:	00260613          	addi	a2,a2,2
    6790:	00c0006f          	j	679c <inst_47+0xad4>
    6794:	00360613          	addi	a2,a2,3
    6798:	0040006f          	j	679c <inst_47+0xad4>
    679c:	06c22423          	sw	a2,104(tp) # 68 <num+0x5b>

000067a0 <inst_48>:
    67a0:	ffc00513          	li	a0,-4
    67a4:	fffff5b7          	lui	a1,0xfffff
    67a8:	fff58593          	addi	a1,a1,-1 # ffffefff <_end+0xfffc3ffb>
    67ac:	00000613          	li	a2,0
    67b0:	00c0006f          	j	67bc <inst_48+0x1c>
    67b4:	00160613          	addi	a2,a2,1
    67b8:	0180006f          	j	67d0 <inst_48+0x30>
    67bc:	00b55663          	bge	a0,a1,67c8 <inst_48+0x28>
    67c0:	00260613          	addi	a2,a2,2
    67c4:	00c0006f          	j	67d0 <inst_48+0x30>
    67c8:	00360613          	addi	a2,a2,3
    67cc:	0040006f          	j	67d0 <inst_48+0x30>
    67d0:	06c22623          	sw	a2,108(tp) # 6c <num+0x5f>

000067d4 <inst_49>:
    67d4:	fc000537          	lui	a0,0xfc000
    67d8:	fff50513          	addi	a0,a0,-1 # fbffffff <_end+0xfbfc4ffb>
    67dc:	ffffe5b7          	lui	a1,0xffffe
    67e0:	fff58593          	addi	a1,a1,-1 # ffffdfff <_end+0xfffc2ffb>
    67e4:	00000613          	li	a2,0
    67e8:	00c0006f          	j	67f4 <inst_49+0x20>
    67ec:	00160613          	addi	a2,a2,1
    67f0:	0180006f          	j	6808 <inst_49+0x34>
    67f4:	00b55663          	bge	a0,a1,6800 <inst_49+0x2c>
    67f8:	00260613          	addi	a2,a2,2
    67fc:	00c0006f          	j	6808 <inst_49+0x34>
    6800:	00360613          	addi	a2,a2,3
    6804:	0040006f          	j	6808 <inst_49+0x34>
    6808:	06c22823          	sw	a2,112(tp) # 70 <num+0x63>

0000680c <inst_50>:
    680c:	04000513          	li	a0,64
    6810:	ffffc5b7          	lui	a1,0xffffc
    6814:	fff58593          	addi	a1,a1,-1 # ffffbfff <_end+0xfffc0ffb>
    6818:	00000613          	li	a2,0
    681c:	0100006f          	j	682c <inst_50+0x20>
    6820:	00160613          	addi	a2,a2,1
    6824:	01c0006f          	j	6840 <inst_50+0x34>
    6828:	00000013          	nop
    682c:	feb55ae3          	bge	a0,a1,6820 <inst_50+0x14>
    6830:	00260613          	addi	a2,a2,2
    6834:	00c0006f          	j	6840 <inst_50+0x34>
    6838:	00360613          	addi	a2,a2,3
    683c:	0040006f          	j	6840 <inst_50+0x34>
    6840:	06c22a23          	sw	a2,116(tp) # 74 <num+0x67>

00006844 <inst_51>:
    6844:	ffff5537          	lui	a0,0xffff5
    6848:	afd50513          	addi	a0,a0,-1283 # ffff4afd <_end+0xfffb9af9>
    684c:	ffff85b7          	lui	a1,0xffff8
    6850:	fff58593          	addi	a1,a1,-1 # ffff7fff <_end+0xfffbcffb>
    6854:	00000613          	li	a2,0
    6858:	00c0006f          	j	6864 <inst_51+0x20>
    685c:	00160613          	addi	a2,a2,1
    6860:	0180006f          	j	6878 <inst_51+0x34>
    6864:	00b55663          	bge	a0,a1,6870 <inst_51+0x2c>
    6868:	00260613          	addi	a2,a2,2
    686c:	00c0006f          	j	6878 <inst_51+0x34>
    6870:	00360613          	addi	a2,a2,3
    6874:	0040006f          	j	6878 <inst_51+0x34>
    6878:	06c22c23          	sw	a2,120(tp) # 78 <num+0x6b>

0000687c <inst_52>:
    687c:	00004537          	lui	a0,0x4
    6880:	ffff05b7          	lui	a1,0xffff0
    6884:	fff58593          	addi	a1,a1,-1 # fffeffff <_end+0xfffb4ffb>
    6888:	00000613          	li	a2,0
    688c:	00c0006f          	j	6898 <inst_52+0x1c>
    6890:	00160613          	addi	a2,a2,1
    6894:	08c0006f          	j	6920 <inst_52+0xa4>
    6898:	08b55063          	bge	a0,a1,6918 <inst_52+0x9c>
    689c:	00260613          	addi	a2,a2,2
    68a0:	0800006f          	j	6920 <inst_52+0xa4>
    68a4:	00000013          	nop
    68a8:	00000013          	nop
    68ac:	00000013          	nop
    68b0:	00000013          	nop
    68b4:	00000013          	nop
    68b8:	00000013          	nop
    68bc:	00000013          	nop
    68c0:	00000013          	nop
    68c4:	00000013          	nop
    68c8:	00000013          	nop
    68cc:	00000013          	nop
    68d0:	00000013          	nop
    68d4:	00000013          	nop
    68d8:	00000013          	nop
    68dc:	00000013          	nop
    68e0:	00000013          	nop
    68e4:	00000013          	nop
    68e8:	00000013          	nop
    68ec:	00000013          	nop
    68f0:	00000013          	nop
    68f4:	00000013          	nop
    68f8:	00000013          	nop
    68fc:	00000013          	nop
    6900:	00000013          	nop
    6904:	00000013          	nop
    6908:	00000013          	nop
    690c:	00000013          	nop
    6910:	00000013          	nop
    6914:	00000013          	nop
    6918:	00360613          	addi	a2,a2,3
    691c:	0040006f          	j	6920 <inst_52+0xa4>
    6920:	06c22e23          	sw	a2,124(tp) # 7c <num+0x6f>

00006924 <inst_53>:
    6924:	80000537          	lui	a0,0x80000
    6928:	fffe05b7          	lui	a1,0xfffe0
    692c:	fff58593          	addi	a1,a1,-1 # fffdffff <_end+0xfffa4ffb>
    6930:	00000613          	li	a2,0
    6934:	00c0006f          	j	6940 <inst_53+0x1c>
    6938:	00160613          	addi	a2,a2,1
    693c:	40c0006f          	j	6d48 <inst_53+0x424>
    6940:	40b55063          	bge	a0,a1,6d40 <inst_53+0x41c>
    6944:	00260613          	addi	a2,a2,2
    6948:	4000006f          	j	6d48 <inst_53+0x424>
    694c:	00000013          	nop
    6950:	00000013          	nop
    6954:	00000013          	nop
    6958:	00000013          	nop
    695c:	00000013          	nop
    6960:	00000013          	nop
    6964:	00000013          	nop
    6968:	00000013          	nop
    696c:	00000013          	nop
    6970:	00000013          	nop
    6974:	00000013          	nop
    6978:	00000013          	nop
    697c:	00000013          	nop
    6980:	00000013          	nop
    6984:	00000013          	nop
    6988:	00000013          	nop
    698c:	00000013          	nop
    6990:	00000013          	nop
    6994:	00000013          	nop
    6998:	00000013          	nop
    699c:	00000013          	nop
    69a0:	00000013          	nop
    69a4:	00000013          	nop
    69a8:	00000013          	nop
    69ac:	00000013          	nop
    69b0:	00000013          	nop
    69b4:	00000013          	nop
    69b8:	00000013          	nop
    69bc:	00000013          	nop
    69c0:	00000013          	nop
    69c4:	00000013          	nop
    69c8:	00000013          	nop
    69cc:	00000013          	nop
    69d0:	00000013          	nop
    69d4:	00000013          	nop
    69d8:	00000013          	nop
    69dc:	00000013          	nop
    69e0:	00000013          	nop
    69e4:	00000013          	nop
    69e8:	00000013          	nop
    69ec:	00000013          	nop
    69f0:	00000013          	nop
    69f4:	00000013          	nop
    69f8:	00000013          	nop
    69fc:	00000013          	nop
    6a00:	00000013          	nop
    6a04:	00000013          	nop
    6a08:	00000013          	nop
    6a0c:	00000013          	nop
    6a10:	00000013          	nop
    6a14:	00000013          	nop
    6a18:	00000013          	nop
    6a1c:	00000013          	nop
    6a20:	00000013          	nop
    6a24:	00000013          	nop
    6a28:	00000013          	nop
    6a2c:	00000013          	nop
    6a30:	00000013          	nop
    6a34:	00000013          	nop
    6a38:	00000013          	nop
    6a3c:	00000013          	nop
    6a40:	00000013          	nop
    6a44:	00000013          	nop
    6a48:	00000013          	nop
    6a4c:	00000013          	nop
    6a50:	00000013          	nop
    6a54:	00000013          	nop
    6a58:	00000013          	nop
    6a5c:	00000013          	nop
    6a60:	00000013          	nop
    6a64:	00000013          	nop
    6a68:	00000013          	nop
    6a6c:	00000013          	nop
    6a70:	00000013          	nop
    6a74:	00000013          	nop
    6a78:	00000013          	nop
    6a7c:	00000013          	nop
    6a80:	00000013          	nop
    6a84:	00000013          	nop
    6a88:	00000013          	nop
    6a8c:	00000013          	nop
    6a90:	00000013          	nop
    6a94:	00000013          	nop
    6a98:	00000013          	nop
    6a9c:	00000013          	nop
    6aa0:	00000013          	nop
    6aa4:	00000013          	nop
    6aa8:	00000013          	nop
    6aac:	00000013          	nop
    6ab0:	00000013          	nop
    6ab4:	00000013          	nop
    6ab8:	00000013          	nop
    6abc:	00000013          	nop
    6ac0:	00000013          	nop
    6ac4:	00000013          	nop
    6ac8:	00000013          	nop
    6acc:	00000013          	nop
    6ad0:	00000013          	nop
    6ad4:	00000013          	nop
    6ad8:	00000013          	nop
    6adc:	00000013          	nop
    6ae0:	00000013          	nop
    6ae4:	00000013          	nop
    6ae8:	00000013          	nop
    6aec:	00000013          	nop
    6af0:	00000013          	nop
    6af4:	00000013          	nop
    6af8:	00000013          	nop
    6afc:	00000013          	nop
    6b00:	00000013          	nop
    6b04:	00000013          	nop
    6b08:	00000013          	nop
    6b0c:	00000013          	nop
    6b10:	00000013          	nop
    6b14:	00000013          	nop
    6b18:	00000013          	nop
    6b1c:	00000013          	nop
    6b20:	00000013          	nop
    6b24:	00000013          	nop
    6b28:	00000013          	nop
    6b2c:	00000013          	nop
    6b30:	00000013          	nop
    6b34:	00000013          	nop
    6b38:	00000013          	nop
    6b3c:	00000013          	nop
    6b40:	00000013          	nop
    6b44:	00000013          	nop
    6b48:	00000013          	nop
    6b4c:	00000013          	nop
    6b50:	00000013          	nop
    6b54:	00000013          	nop
    6b58:	00000013          	nop
    6b5c:	00000013          	nop
    6b60:	00000013          	nop
    6b64:	00000013          	nop
    6b68:	00000013          	nop
    6b6c:	00000013          	nop
    6b70:	00000013          	nop
    6b74:	00000013          	nop
    6b78:	00000013          	nop
    6b7c:	00000013          	nop
    6b80:	00000013          	nop
    6b84:	00000013          	nop
    6b88:	00000013          	nop
    6b8c:	00000013          	nop
    6b90:	00000013          	nop
    6b94:	00000013          	nop
    6b98:	00000013          	nop
    6b9c:	00000013          	nop
    6ba0:	00000013          	nop
    6ba4:	00000013          	nop
    6ba8:	00000013          	nop
    6bac:	00000013          	nop
    6bb0:	00000013          	nop
    6bb4:	00000013          	nop
    6bb8:	00000013          	nop
    6bbc:	00000013          	nop
    6bc0:	00000013          	nop
    6bc4:	00000013          	nop
    6bc8:	00000013          	nop
    6bcc:	00000013          	nop
    6bd0:	00000013          	nop
    6bd4:	00000013          	nop
    6bd8:	00000013          	nop
    6bdc:	00000013          	nop
    6be0:	00000013          	nop
    6be4:	00000013          	nop
    6be8:	00000013          	nop
    6bec:	00000013          	nop
    6bf0:	00000013          	nop
    6bf4:	00000013          	nop
    6bf8:	00000013          	nop
    6bfc:	00000013          	nop
    6c00:	00000013          	nop
    6c04:	00000013          	nop
    6c08:	00000013          	nop
    6c0c:	00000013          	nop
    6c10:	00000013          	nop
    6c14:	00000013          	nop
    6c18:	00000013          	nop
    6c1c:	00000013          	nop
    6c20:	00000013          	nop
    6c24:	00000013          	nop
    6c28:	00000013          	nop
    6c2c:	00000013          	nop
    6c30:	00000013          	nop
    6c34:	00000013          	nop
    6c38:	00000013          	nop
    6c3c:	00000013          	nop
    6c40:	00000013          	nop
    6c44:	00000013          	nop
    6c48:	00000013          	nop
    6c4c:	00000013          	nop
    6c50:	00000013          	nop
    6c54:	00000013          	nop
    6c58:	00000013          	nop
    6c5c:	00000013          	nop
    6c60:	00000013          	nop
    6c64:	00000013          	nop
    6c68:	00000013          	nop
    6c6c:	00000013          	nop
    6c70:	00000013          	nop
    6c74:	00000013          	nop
    6c78:	00000013          	nop
    6c7c:	00000013          	nop
    6c80:	00000013          	nop
    6c84:	00000013          	nop
    6c88:	00000013          	nop
    6c8c:	00000013          	nop
    6c90:	00000013          	nop
    6c94:	00000013          	nop
    6c98:	00000013          	nop
    6c9c:	00000013          	nop
    6ca0:	00000013          	nop
    6ca4:	00000013          	nop
    6ca8:	00000013          	nop
    6cac:	00000013          	nop
    6cb0:	00000013          	nop
    6cb4:	00000013          	nop
    6cb8:	00000013          	nop
    6cbc:	00000013          	nop
    6cc0:	00000013          	nop
    6cc4:	00000013          	nop
    6cc8:	00000013          	nop
    6ccc:	00000013          	nop
    6cd0:	00000013          	nop
    6cd4:	00000013          	nop
    6cd8:	00000013          	nop
    6cdc:	00000013          	nop
    6ce0:	00000013          	nop
    6ce4:	00000013          	nop
    6ce8:	00000013          	nop
    6cec:	00000013          	nop
    6cf0:	00000013          	nop
    6cf4:	00000013          	nop
    6cf8:	00000013          	nop
    6cfc:	00000013          	nop
    6d00:	00000013          	nop
    6d04:	00000013          	nop
    6d08:	00000013          	nop
    6d0c:	00000013          	nop
    6d10:	00000013          	nop
    6d14:	00000013          	nop
    6d18:	00000013          	nop
    6d1c:	00000013          	nop
    6d20:	00000013          	nop
    6d24:	00000013          	nop
    6d28:	00000013          	nop
    6d2c:	00000013          	nop
    6d30:	00000013          	nop
    6d34:	00000013          	nop
    6d38:	00000013          	nop
    6d3c:	00000013          	nop
    6d40:	00360613          	addi	a2,a2,3
    6d44:	0040006f          	j	6d48 <inst_53+0x424>
    6d48:	08c22023          	sw	a2,128(tp) # 80 <num+0x73>

00006d4c <inst_54>:
    6d4c:	55555537          	lui	a0,0x55555
    6d50:	55650513          	addi	a0,a0,1366 # 55555556 <_end+0x5551a552>
    6d54:	fffc05b7          	lui	a1,0xfffc0
    6d58:	fff58593          	addi	a1,a1,-1 # fffbffff <_end+0xfff84ffb>
    6d5c:	00000613          	li	a2,0
    6d60:	0050006f          	j	7564 <inst_54+0x818>
    6d64:	00160613          	addi	a2,a2,1
    6d68:	0110006f          	j	7578 <inst_54+0x82c>
    6d6c:	00000013          	nop
    6d70:	00000013          	nop
    6d74:	00000013          	nop
    6d78:	00000013          	nop
    6d7c:	00000013          	nop
    6d80:	00000013          	nop
    6d84:	00000013          	nop
    6d88:	00000013          	nop
    6d8c:	00000013          	nop
    6d90:	00000013          	nop
    6d94:	00000013          	nop
    6d98:	00000013          	nop
    6d9c:	00000013          	nop
    6da0:	00000013          	nop
    6da4:	00000013          	nop
    6da8:	00000013          	nop
    6dac:	00000013          	nop
    6db0:	00000013          	nop
    6db4:	00000013          	nop
    6db8:	00000013          	nop
    6dbc:	00000013          	nop
    6dc0:	00000013          	nop
    6dc4:	00000013          	nop
    6dc8:	00000013          	nop
    6dcc:	00000013          	nop
    6dd0:	00000013          	nop
    6dd4:	00000013          	nop
    6dd8:	00000013          	nop
    6ddc:	00000013          	nop
    6de0:	00000013          	nop
    6de4:	00000013          	nop
    6de8:	00000013          	nop
    6dec:	00000013          	nop
    6df0:	00000013          	nop
    6df4:	00000013          	nop
    6df8:	00000013          	nop
    6dfc:	00000013          	nop
    6e00:	00000013          	nop
    6e04:	00000013          	nop
    6e08:	00000013          	nop
    6e0c:	00000013          	nop
    6e10:	00000013          	nop
    6e14:	00000013          	nop
    6e18:	00000013          	nop
    6e1c:	00000013          	nop
    6e20:	00000013          	nop
    6e24:	00000013          	nop
    6e28:	00000013          	nop
    6e2c:	00000013          	nop
    6e30:	00000013          	nop
    6e34:	00000013          	nop
    6e38:	00000013          	nop
    6e3c:	00000013          	nop
    6e40:	00000013          	nop
    6e44:	00000013          	nop
    6e48:	00000013          	nop
    6e4c:	00000013          	nop
    6e50:	00000013          	nop
    6e54:	00000013          	nop
    6e58:	00000013          	nop
    6e5c:	00000013          	nop
    6e60:	00000013          	nop
    6e64:	00000013          	nop
    6e68:	00000013          	nop
    6e6c:	00000013          	nop
    6e70:	00000013          	nop
    6e74:	00000013          	nop
    6e78:	00000013          	nop
    6e7c:	00000013          	nop
    6e80:	00000013          	nop
    6e84:	00000013          	nop
    6e88:	00000013          	nop
    6e8c:	00000013          	nop
    6e90:	00000013          	nop
    6e94:	00000013          	nop
    6e98:	00000013          	nop
    6e9c:	00000013          	nop
    6ea0:	00000013          	nop
    6ea4:	00000013          	nop
    6ea8:	00000013          	nop
    6eac:	00000013          	nop
    6eb0:	00000013          	nop
    6eb4:	00000013          	nop
    6eb8:	00000013          	nop
    6ebc:	00000013          	nop
    6ec0:	00000013          	nop
    6ec4:	00000013          	nop
    6ec8:	00000013          	nop
    6ecc:	00000013          	nop
    6ed0:	00000013          	nop
    6ed4:	00000013          	nop
    6ed8:	00000013          	nop
    6edc:	00000013          	nop
    6ee0:	00000013          	nop
    6ee4:	00000013          	nop
    6ee8:	00000013          	nop
    6eec:	00000013          	nop
    6ef0:	00000013          	nop
    6ef4:	00000013          	nop
    6ef8:	00000013          	nop
    6efc:	00000013          	nop
    6f00:	00000013          	nop
    6f04:	00000013          	nop
    6f08:	00000013          	nop
    6f0c:	00000013          	nop
    6f10:	00000013          	nop
    6f14:	00000013          	nop
    6f18:	00000013          	nop
    6f1c:	00000013          	nop
    6f20:	00000013          	nop
    6f24:	00000013          	nop
    6f28:	00000013          	nop
    6f2c:	00000013          	nop
    6f30:	00000013          	nop
    6f34:	00000013          	nop
    6f38:	00000013          	nop
    6f3c:	00000013          	nop
    6f40:	00000013          	nop
    6f44:	00000013          	nop
    6f48:	00000013          	nop
    6f4c:	00000013          	nop
    6f50:	00000013          	nop
    6f54:	00000013          	nop
    6f58:	00000013          	nop
    6f5c:	00000013          	nop
    6f60:	00000013          	nop
    6f64:	00000013          	nop
    6f68:	00000013          	nop
    6f6c:	00000013          	nop
    6f70:	00000013          	nop
    6f74:	00000013          	nop
    6f78:	00000013          	nop
    6f7c:	00000013          	nop
    6f80:	00000013          	nop
    6f84:	00000013          	nop
    6f88:	00000013          	nop
    6f8c:	00000013          	nop
    6f90:	00000013          	nop
    6f94:	00000013          	nop
    6f98:	00000013          	nop
    6f9c:	00000013          	nop
    6fa0:	00000013          	nop
    6fa4:	00000013          	nop
    6fa8:	00000013          	nop
    6fac:	00000013          	nop
    6fb0:	00000013          	nop
    6fb4:	00000013          	nop
    6fb8:	00000013          	nop
    6fbc:	00000013          	nop
    6fc0:	00000013          	nop
    6fc4:	00000013          	nop
    6fc8:	00000013          	nop
    6fcc:	00000013          	nop
    6fd0:	00000013          	nop
    6fd4:	00000013          	nop
    6fd8:	00000013          	nop
    6fdc:	00000013          	nop
    6fe0:	00000013          	nop
    6fe4:	00000013          	nop
    6fe8:	00000013          	nop
    6fec:	00000013          	nop
    6ff0:	00000013          	nop
    6ff4:	00000013          	nop
    6ff8:	00000013          	nop
    6ffc:	00000013          	nop
    7000:	00000013          	nop
    7004:	00000013          	nop
    7008:	00000013          	nop
    700c:	00000013          	nop
    7010:	00000013          	nop
    7014:	00000013          	nop
    7018:	00000013          	nop
    701c:	00000013          	nop
    7020:	00000013          	nop
    7024:	00000013          	nop
    7028:	00000013          	nop
    702c:	00000013          	nop
    7030:	00000013          	nop
    7034:	00000013          	nop
    7038:	00000013          	nop
    703c:	00000013          	nop
    7040:	00000013          	nop
    7044:	00000013          	nop
    7048:	00000013          	nop
    704c:	00000013          	nop
    7050:	00000013          	nop
    7054:	00000013          	nop
    7058:	00000013          	nop
    705c:	00000013          	nop
    7060:	00000013          	nop
    7064:	00000013          	nop
    7068:	00000013          	nop
    706c:	00000013          	nop
    7070:	00000013          	nop
    7074:	00000013          	nop
    7078:	00000013          	nop
    707c:	00000013          	nop
    7080:	00000013          	nop
    7084:	00000013          	nop
    7088:	00000013          	nop
    708c:	00000013          	nop
    7090:	00000013          	nop
    7094:	00000013          	nop
    7098:	00000013          	nop
    709c:	00000013          	nop
    70a0:	00000013          	nop
    70a4:	00000013          	nop
    70a8:	00000013          	nop
    70ac:	00000013          	nop
    70b0:	00000013          	nop
    70b4:	00000013          	nop
    70b8:	00000013          	nop
    70bc:	00000013          	nop
    70c0:	00000013          	nop
    70c4:	00000013          	nop
    70c8:	00000013          	nop
    70cc:	00000013          	nop
    70d0:	00000013          	nop
    70d4:	00000013          	nop
    70d8:	00000013          	nop
    70dc:	00000013          	nop
    70e0:	00000013          	nop
    70e4:	00000013          	nop
    70e8:	00000013          	nop
    70ec:	00000013          	nop
    70f0:	00000013          	nop
    70f4:	00000013          	nop
    70f8:	00000013          	nop
    70fc:	00000013          	nop
    7100:	00000013          	nop
    7104:	00000013          	nop
    7108:	00000013          	nop
    710c:	00000013          	nop
    7110:	00000013          	nop
    7114:	00000013          	nop
    7118:	00000013          	nop
    711c:	00000013          	nop
    7120:	00000013          	nop
    7124:	00000013          	nop
    7128:	00000013          	nop
    712c:	00000013          	nop
    7130:	00000013          	nop
    7134:	00000013          	nop
    7138:	00000013          	nop
    713c:	00000013          	nop
    7140:	00000013          	nop
    7144:	00000013          	nop
    7148:	00000013          	nop
    714c:	00000013          	nop
    7150:	00000013          	nop
    7154:	00000013          	nop
    7158:	00000013          	nop
    715c:	00000013          	nop
    7160:	00000013          	nop
    7164:	00000013          	nop
    7168:	00000013          	nop
    716c:	00000013          	nop
    7170:	00000013          	nop
    7174:	00000013          	nop
    7178:	00000013          	nop
    717c:	00000013          	nop
    7180:	00000013          	nop
    7184:	00000013          	nop
    7188:	00000013          	nop
    718c:	00000013          	nop
    7190:	00000013          	nop
    7194:	00000013          	nop
    7198:	00000013          	nop
    719c:	00000013          	nop
    71a0:	00000013          	nop
    71a4:	00000013          	nop
    71a8:	00000013          	nop
    71ac:	00000013          	nop
    71b0:	00000013          	nop
    71b4:	00000013          	nop
    71b8:	00000013          	nop
    71bc:	00000013          	nop
    71c0:	00000013          	nop
    71c4:	00000013          	nop
    71c8:	00000013          	nop
    71cc:	00000013          	nop
    71d0:	00000013          	nop
    71d4:	00000013          	nop
    71d8:	00000013          	nop
    71dc:	00000013          	nop
    71e0:	00000013          	nop
    71e4:	00000013          	nop
    71e8:	00000013          	nop
    71ec:	00000013          	nop
    71f0:	00000013          	nop
    71f4:	00000013          	nop
    71f8:	00000013          	nop
    71fc:	00000013          	nop
    7200:	00000013          	nop
    7204:	00000013          	nop
    7208:	00000013          	nop
    720c:	00000013          	nop
    7210:	00000013          	nop
    7214:	00000013          	nop
    7218:	00000013          	nop
    721c:	00000013          	nop
    7220:	00000013          	nop
    7224:	00000013          	nop
    7228:	00000013          	nop
    722c:	00000013          	nop
    7230:	00000013          	nop
    7234:	00000013          	nop
    7238:	00000013          	nop
    723c:	00000013          	nop
    7240:	00000013          	nop
    7244:	00000013          	nop
    7248:	00000013          	nop
    724c:	00000013          	nop
    7250:	00000013          	nop
    7254:	00000013          	nop
    7258:	00000013          	nop
    725c:	00000013          	nop
    7260:	00000013          	nop
    7264:	00000013          	nop
    7268:	00000013          	nop
    726c:	00000013          	nop
    7270:	00000013          	nop
    7274:	00000013          	nop
    7278:	00000013          	nop
    727c:	00000013          	nop
    7280:	00000013          	nop
    7284:	00000013          	nop
    7288:	00000013          	nop
    728c:	00000013          	nop
    7290:	00000013          	nop
    7294:	00000013          	nop
    7298:	00000013          	nop
    729c:	00000013          	nop
    72a0:	00000013          	nop
    72a4:	00000013          	nop
    72a8:	00000013          	nop
    72ac:	00000013          	nop
    72b0:	00000013          	nop
    72b4:	00000013          	nop
    72b8:	00000013          	nop
    72bc:	00000013          	nop
    72c0:	00000013          	nop
    72c4:	00000013          	nop
    72c8:	00000013          	nop
    72cc:	00000013          	nop
    72d0:	00000013          	nop
    72d4:	00000013          	nop
    72d8:	00000013          	nop
    72dc:	00000013          	nop
    72e0:	00000013          	nop
    72e4:	00000013          	nop
    72e8:	00000013          	nop
    72ec:	00000013          	nop
    72f0:	00000013          	nop
    72f4:	00000013          	nop
    72f8:	00000013          	nop
    72fc:	00000013          	nop
    7300:	00000013          	nop
    7304:	00000013          	nop
    7308:	00000013          	nop
    730c:	00000013          	nop
    7310:	00000013          	nop
    7314:	00000013          	nop
    7318:	00000013          	nop
    731c:	00000013          	nop
    7320:	00000013          	nop
    7324:	00000013          	nop
    7328:	00000013          	nop
    732c:	00000013          	nop
    7330:	00000013          	nop
    7334:	00000013          	nop
    7338:	00000013          	nop
    733c:	00000013          	nop
    7340:	00000013          	nop
    7344:	00000013          	nop
    7348:	00000013          	nop
    734c:	00000013          	nop
    7350:	00000013          	nop
    7354:	00000013          	nop
    7358:	00000013          	nop
    735c:	00000013          	nop
    7360:	00000013          	nop
    7364:	00000013          	nop
    7368:	00000013          	nop
    736c:	00000013          	nop
    7370:	00000013          	nop
    7374:	00000013          	nop
    7378:	00000013          	nop
    737c:	00000013          	nop
    7380:	00000013          	nop
    7384:	00000013          	nop
    7388:	00000013          	nop
    738c:	00000013          	nop
    7390:	00000013          	nop
    7394:	00000013          	nop
    7398:	00000013          	nop
    739c:	00000013          	nop
    73a0:	00000013          	nop
    73a4:	00000013          	nop
    73a8:	00000013          	nop
    73ac:	00000013          	nop
    73b0:	00000013          	nop
    73b4:	00000013          	nop
    73b8:	00000013          	nop
    73bc:	00000013          	nop
    73c0:	00000013          	nop
    73c4:	00000013          	nop
    73c8:	00000013          	nop
    73cc:	00000013          	nop
    73d0:	00000013          	nop
    73d4:	00000013          	nop
    73d8:	00000013          	nop
    73dc:	00000013          	nop
    73e0:	00000013          	nop
    73e4:	00000013          	nop
    73e8:	00000013          	nop
    73ec:	00000013          	nop
    73f0:	00000013          	nop
    73f4:	00000013          	nop
    73f8:	00000013          	nop
    73fc:	00000013          	nop
    7400:	00000013          	nop
    7404:	00000013          	nop
    7408:	00000013          	nop
    740c:	00000013          	nop
    7410:	00000013          	nop
    7414:	00000013          	nop
    7418:	00000013          	nop
    741c:	00000013          	nop
    7420:	00000013          	nop
    7424:	00000013          	nop
    7428:	00000013          	nop
    742c:	00000013          	nop
    7430:	00000013          	nop
    7434:	00000013          	nop
    7438:	00000013          	nop
    743c:	00000013          	nop
    7440:	00000013          	nop
    7444:	00000013          	nop
    7448:	00000013          	nop
    744c:	00000013          	nop
    7450:	00000013          	nop
    7454:	00000013          	nop
    7458:	00000013          	nop
    745c:	00000013          	nop
    7460:	00000013          	nop
    7464:	00000013          	nop
    7468:	00000013          	nop
    746c:	00000013          	nop
    7470:	00000013          	nop
    7474:	00000013          	nop
    7478:	00000013          	nop
    747c:	00000013          	nop
    7480:	00000013          	nop
    7484:	00000013          	nop
    7488:	00000013          	nop
    748c:	00000013          	nop
    7490:	00000013          	nop
    7494:	00000013          	nop
    7498:	00000013          	nop
    749c:	00000013          	nop
    74a0:	00000013          	nop
    74a4:	00000013          	nop
    74a8:	00000013          	nop
    74ac:	00000013          	nop
    74b0:	00000013          	nop
    74b4:	00000013          	nop
    74b8:	00000013          	nop
    74bc:	00000013          	nop
    74c0:	00000013          	nop
    74c4:	00000013          	nop
    74c8:	00000013          	nop
    74cc:	00000013          	nop
    74d0:	00000013          	nop
    74d4:	00000013          	nop
    74d8:	00000013          	nop
    74dc:	00000013          	nop
    74e0:	00000013          	nop
    74e4:	00000013          	nop
    74e8:	00000013          	nop
    74ec:	00000013          	nop
    74f0:	00000013          	nop
    74f4:	00000013          	nop
    74f8:	00000013          	nop
    74fc:	00000013          	nop
    7500:	00000013          	nop
    7504:	00000013          	nop
    7508:	00000013          	nop
    750c:	00000013          	nop
    7510:	00000013          	nop
    7514:	00000013          	nop
    7518:	00000013          	nop
    751c:	00000013          	nop
    7520:	00000013          	nop
    7524:	00000013          	nop
    7528:	00000013          	nop
    752c:	00000013          	nop
    7530:	00000013          	nop
    7534:	00000013          	nop
    7538:	00000013          	nop
    753c:	00000013          	nop
    7540:	00000013          	nop
    7544:	00000013          	nop
    7548:	00000013          	nop
    754c:	00000013          	nop
    7550:	00000013          	nop
    7554:	00000013          	nop
    7558:	00000013          	nop
    755c:	00000013          	nop
    7560:	00000013          	nop
    7564:	80b550e3          	bge	a0,a1,6d64 <inst_54+0x18>
    7568:	00260613          	addi	a2,a2,2
    756c:	00c0006f          	j	7578 <inst_54+0x82c>
    7570:	00360613          	addi	a2,a2,3
    7574:	0040006f          	j	7578 <inst_54+0x82c>
    7578:	08c22223          	sw	a2,132(tp) # 84 <num+0x77>

0000757c <inst_55>:
    757c:	08000537          	lui	a0,0x8000
    7580:	fff805b7          	lui	a1,0xfff80
    7584:	fff58593          	addi	a1,a1,-1 # fff7ffff <_end+0xfff44ffb>
    7588:	00000613          	li	a2,0
    758c:	00c0006f          	j	7598 <inst_55+0x1c>
    7590:	00160613          	addi	a2,a2,1
    7594:	01c0006f          	j	75b0 <inst_55+0x34>
    7598:	00b55863          	bge	a0,a1,75a8 <inst_55+0x2c>
    759c:	00260613          	addi	a2,a2,2
    75a0:	0100006f          	j	75b0 <inst_55+0x34>
    75a4:	00000013          	nop
    75a8:	00360613          	addi	a2,a2,3
    75ac:	0040006f          	j	75b0 <inst_55+0x34>
    75b0:	08c22423          	sw	a2,136(tp) # 88 <num+0x7b>

000075b4 <inst_56>:
    75b4:	00000513          	li	a0,0
    75b8:	fff005b7          	lui	a1,0xfff00
    75bc:	fff58593          	addi	a1,a1,-1 # ffefffff <_end+0xffec4ffb>
    75c0:	00000613          	li	a2,0
    75c4:	00c0006f          	j	75d0 <inst_56+0x1c>
    75c8:	00160613          	addi	a2,a2,1
    75cc:	0180006f          	j	75e4 <inst_56+0x30>
    75d0:	00b55663          	bge	a0,a1,75dc <inst_56+0x28>
    75d4:	00260613          	addi	a2,a2,2
    75d8:	00c0006f          	j	75e4 <inst_56+0x30>
    75dc:	00360613          	addi	a2,a2,3
    75e0:	0040006f          	j	75e4 <inst_56+0x30>
    75e4:	08c22623          	sw	a2,140(tp) # 8c <num+0x7f>

000075e8 <inst_57>:
    75e8:	ff900513          	li	a0,-7
    75ec:	ffe005b7          	lui	a1,0xffe00
    75f0:	fff58593          	addi	a1,a1,-1 # ffdfffff <_end+0xffdc4ffb>
    75f4:	00000613          	li	a2,0
    75f8:	0180006f          	j	7610 <inst_57+0x28>
    75fc:	00160613          	addi	a2,a2,1
    7600:	0240006f          	j	7624 <inst_57+0x3c>
    7604:	00000013          	nop
    7608:	00000013          	nop
    760c:	00000013          	nop
    7610:	feb556e3          	bge	a0,a1,75fc <inst_57+0x14>
    7614:	00260613          	addi	a2,a2,2
    7618:	00c0006f          	j	7624 <inst_57+0x3c>
    761c:	00360613          	addi	a2,a2,3
    7620:	0040006f          	j	7624 <inst_57+0x3c>
    7624:	08c22823          	sw	a2,144(tp) # 90 <num+0x83>

00007628 <inst_58>:
    7628:	ff900513          	li	a0,-7
    762c:	ffc005b7          	lui	a1,0xffc00
    7630:	fff58593          	addi	a1,a1,-1 # ffbfffff <_end+0xffbc4ffb>
    7634:	00000613          	li	a2,0
    7638:	00c0006f          	j	7644 <inst_58+0x1c>
    763c:	00160613          	addi	a2,a2,1
    7640:	0180006f          	j	7658 <inst_58+0x30>
    7644:	00b55663          	bge	a0,a1,7650 <inst_58+0x28>
    7648:	00260613          	addi	a2,a2,2
    764c:	00c0006f          	j	7658 <inst_58+0x30>
    7650:	00360613          	addi	a2,a2,3
    7654:	0040006f          	j	7658 <inst_58+0x30>
    7658:	08c22a23          	sw	a2,148(tp) # 94 <num+0x87>

0000765c <inst_59>:
    765c:	fdf00513          	li	a0,-33
    7660:	ff0005b7          	lui	a1,0xff000
    7664:	fff58593          	addi	a1,a1,-1 # feffffff <_end+0xfefc4ffb>
    7668:	00000613          	li	a2,0
    766c:	00c0006f          	j	7678 <inst_59+0x1c>
    7670:	00160613          	addi	a2,a2,1
    7674:	01c0006f          	j	7690 <inst_59+0x34>
    7678:	00b55863          	bge	a0,a1,7688 <inst_59+0x2c>
    767c:	00260613          	addi	a2,a2,2
    7680:	0100006f          	j	7690 <inst_59+0x34>
    7684:	00000013          	nop
    7688:	00360613          	addi	a2,a2,3
    768c:	0040006f          	j	7690 <inst_59+0x34>
    7690:	08c22c23          	sw	a2,152(tp) # 98 <num+0x8b>

00007694 <inst_60>:
    7694:	00004537          	lui	a0,0x4
    7698:	fc0005b7          	lui	a1,0xfc000
    769c:	fff58593          	addi	a1,a1,-1 # fbffffff <_end+0xfbfc4ffb>
    76a0:	00000613          	li	a2,0
    76a4:	00c0006f          	j	76b0 <inst_60+0x1c>
    76a8:	00160613          	addi	a2,a2,1
    76ac:	0180006f          	j	76c4 <inst_60+0x30>
    76b0:	00b55663          	bge	a0,a1,76bc <inst_60+0x28>
    76b4:	00260613          	addi	a2,a2,2
    76b8:	00c0006f          	j	76c4 <inst_60+0x30>
    76bc:	00360613          	addi	a2,a2,3
    76c0:	0040006f          	j	76c4 <inst_60+0x30>
    76c4:	08c22e23          	sw	a2,156(tp) # 9c <num+0x8f>

000076c8 <inst_61>:
    76c8:	ffd00513          	li	a0,-3
    76cc:	f80005b7          	lui	a1,0xf8000
    76d0:	fff58593          	addi	a1,a1,-1 # f7ffffff <_end+0xf7fc4ffb>
    76d4:	00000613          	li	a2,0
    76d8:	00c0006f          	j	76e4 <inst_61+0x1c>
    76dc:	00160613          	addi	a2,a2,1
    76e0:	01c0006f          	j	76fc <inst_61+0x34>
    76e4:	00b55863          	bge	a0,a1,76f4 <inst_61+0x2c>
    76e8:	00260613          	addi	a2,a2,2
    76ec:	0100006f          	j	76fc <inst_61+0x34>
    76f0:	00000013          	nop
    76f4:	00360613          	addi	a2,a2,3
    76f8:	0040006f          	j	76fc <inst_61+0x34>
    76fc:	0ac22023          	sw	a2,160(tp) # a0 <num+0x93>

00007700 <inst_62>:
    7700:	02000513          	li	a0,32
    7704:	f00005b7          	lui	a1,0xf0000
    7708:	fff58593          	addi	a1,a1,-1 # efffffff <_end+0xeffc4ffb>
    770c:	00000613          	li	a2,0
    7710:	00c0006f          	j	771c <inst_62+0x1c>
    7714:	00160613          	addi	a2,a2,1
    7718:	04c0006f          	j	7764 <inst_62+0x64>
    771c:	04b55063          	bge	a0,a1,775c <inst_62+0x5c>
    7720:	00260613          	addi	a2,a2,2
    7724:	0400006f          	j	7764 <inst_62+0x64>
    7728:	00000013          	nop
    772c:	00000013          	nop
    7730:	00000013          	nop
    7734:	00000013          	nop
    7738:	00000013          	nop
    773c:	00000013          	nop
    7740:	00000013          	nop
    7744:	00000013          	nop
    7748:	00000013          	nop
    774c:	00000013          	nop
    7750:	00000013          	nop
    7754:	00000013          	nop
    7758:	00000013          	nop
    775c:	00360613          	addi	a2,a2,3
    7760:	0040006f          	j	7764 <inst_62+0x64>
    7764:	0ac22223          	sw	a2,164(tp) # a4 <num+0x97>

00007768 <inst_63>:
    7768:	10000537          	lui	a0,0x10000
    776c:	e00005b7          	lui	a1,0xe0000
    7770:	fff58593          	addi	a1,a1,-1 # dfffffff <_end+0xdffc4ffb>
    7774:	00000613          	li	a2,0
    7778:	00c0006f          	j	7784 <inst_63+0x1c>
    777c:	00160613          	addi	a2,a2,1
    7780:	02c0006f          	j	77ac <inst_63+0x44>
    7784:	02b55063          	bge	a0,a1,77a4 <inst_63+0x3c>
    7788:	00260613          	addi	a2,a2,2
    778c:	0200006f          	j	77ac <inst_63+0x44>
    7790:	00000013          	nop
    7794:	00000013          	nop
    7798:	00000013          	nop
    779c:	00000013          	nop
    77a0:	00000013          	nop
    77a4:	00360613          	addi	a2,a2,3
    77a8:	0040006f          	j	77ac <inst_63+0x44>
    77ac:	0ac22423          	sw	a2,168(tp) # a8 <num+0x9b>

000077b0 <inst_64>:
    77b0:	01000513          	li	a0,16
    77b4:	c00005b7          	lui	a1,0xc0000
    77b8:	fff58593          	addi	a1,a1,-1 # bfffffff <_end+0xbffc4ffb>
    77bc:	00000613          	li	a2,0
    77c0:	00c0006f          	j	77cc <inst_64+0x1c>
    77c4:	00160613          	addi	a2,a2,1
    77c8:	0180006f          	j	77e0 <inst_64+0x30>
    77cc:	feb55ce3          	bge	a0,a1,77c4 <inst_64+0x14>
    77d0:	00260613          	addi	a2,a2,2
    77d4:	00c0006f          	j	77e0 <inst_64+0x30>
    77d8:	00360613          	addi	a2,a2,3
    77dc:	0040006f          	j	77e0 <inst_64+0x30>
    77e0:	0ac22623          	sw	a2,172(tp) # ac <num+0x9f>

000077e4 <inst_65>:
    77e4:	ffe00537          	lui	a0,0xffe00
    77e8:	fff50513          	addi	a0,a0,-1 # ffdfffff <_end+0xffdc4ffb>
    77ec:	800005b7          	lui	a1,0x80000
    77f0:	fff58593          	addi	a1,a1,-1 # 7fffffff <_end+0x7ffc4ffb>
    77f4:	00000613          	li	a2,0
    77f8:	00c0006f          	j	7804 <inst_65+0x20>
    77fc:	00160613          	addi	a2,a2,1
    7800:	0180006f          	j	7818 <inst_65+0x34>
    7804:	feb55ce3          	bge	a0,a1,77fc <inst_65+0x18>
    7808:	00260613          	addi	a2,a2,2
    780c:	00c0006f          	j	7818 <inst_65+0x34>
    7810:	00360613          	addi	a2,a2,3
    7814:	0040006f          	j	7818 <inst_65+0x34>
    7818:	0ac22823          	sw	a2,176(tp) # b0 <num+0xa3>

0000781c <inst_66>:
    781c:	00900513          	li	a0,9
    7820:	555555b7          	lui	a1,0x55555
    7824:	55558593          	addi	a1,a1,1365 # 55555555 <_end+0x5551a551>
    7828:	00000613          	li	a2,0
    782c:	00c0006f          	j	7838 <inst_66+0x1c>
    7830:	00160613          	addi	a2,a2,1
    7834:	0180006f          	j	784c <inst_66+0x30>
    7838:	00b55663          	bge	a0,a1,7844 <inst_66+0x28>
    783c:	00260613          	addi	a2,a2,2
    7840:	00c0006f          	j	784c <inst_66+0x30>
    7844:	00360613          	addi	a2,a2,3
    7848:	0040006f          	j	784c <inst_66+0x30>
    784c:	0ac22a23          	sw	a2,180(tp) # b4 <num+0xa7>

00007850 <inst_67>:
    7850:	00010537          	lui	a0,0x10
    7854:	aaaab5b7          	lui	a1,0xaaaab
    7858:	aaa58593          	addi	a1,a1,-1366 # aaaaaaaa <_end+0xaaa6faa6>
    785c:	00000613          	li	a2,0
    7860:	00c0006f          	j	786c <inst_67+0x1c>
    7864:	00160613          	addi	a2,a2,1
    7868:	01c0006f          	j	7884 <inst_67+0x34>
    786c:	00b55863          	bge	a0,a1,787c <inst_67+0x2c>
    7870:	00260613          	addi	a2,a2,2
    7874:	0100006f          	j	7884 <inst_67+0x34>
    7878:	00000013          	nop
    787c:	00360613          	addi	a2,a2,3
    7880:	0040006f          	j	7884 <inst_67+0x34>
    7884:	0ac22c23          	sw	a2,184(tp) # b8 <num+0xab>

00007888 <inst_68>:
    7888:	00100513          	li	a0,1
    788c:	fffe05b7          	lui	a1,0xfffe0
    7890:	fff58593          	addi	a1,a1,-1 # fffdffff <_end+0xfffa4ffb>
    7894:	00000613          	li	a2,0
    7898:	0140006f          	j	78ac <inst_68+0x24>
    789c:	00160613          	addi	a2,a2,1
    78a0:	0200006f          	j	78c0 <inst_68+0x38>
    78a4:	00000013          	nop
    78a8:	00000013          	nop
    78ac:	feb558e3          	bge	a0,a1,789c <inst_68+0x14>
    78b0:	00260613          	addi	a2,a2,2
    78b4:	00c0006f          	j	78c0 <inst_68+0x38>
    78b8:	00360613          	addi	a2,a2,3
    78bc:	0040006f          	j	78c0 <inst_68+0x38>
    78c0:	0ac22e23          	sw	a2,188(tp) # bc <num+0xaf>

000078c4 <inst_69>:
    78c4:	00400513          	li	a0,4
    78c8:	fffc05b7          	lui	a1,0xfffc0
    78cc:	fff58593          	addi	a1,a1,-1 # fffbffff <_end+0xfff84ffb>
    78d0:	00000613          	li	a2,0
    78d4:	00c0006f          	j	78e0 <inst_69+0x1c>
    78d8:	00160613          	addi	a2,a2,1
    78dc:	40c0006f          	j	7ce8 <inst_69+0x424>
    78e0:	40b55063          	bge	a0,a1,7ce0 <inst_69+0x41c>
    78e4:	00260613          	addi	a2,a2,2
    78e8:	4000006f          	j	7ce8 <inst_69+0x424>
    78ec:	00000013          	nop
    78f0:	00000013          	nop
    78f4:	00000013          	nop
    78f8:	00000013          	nop
    78fc:	00000013          	nop
    7900:	00000013          	nop
    7904:	00000013          	nop
    7908:	00000013          	nop
    790c:	00000013          	nop
    7910:	00000013          	nop
    7914:	00000013          	nop
    7918:	00000013          	nop
    791c:	00000013          	nop
    7920:	00000013          	nop
    7924:	00000013          	nop
    7928:	00000013          	nop
    792c:	00000013          	nop
    7930:	00000013          	nop
    7934:	00000013          	nop
    7938:	00000013          	nop
    793c:	00000013          	nop
    7940:	00000013          	nop
    7944:	00000013          	nop
    7948:	00000013          	nop
    794c:	00000013          	nop
    7950:	00000013          	nop
    7954:	00000013          	nop
    7958:	00000013          	nop
    795c:	00000013          	nop
    7960:	00000013          	nop
    7964:	00000013          	nop
    7968:	00000013          	nop
    796c:	00000013          	nop
    7970:	00000013          	nop
    7974:	00000013          	nop
    7978:	00000013          	nop
    797c:	00000013          	nop
    7980:	00000013          	nop
    7984:	00000013          	nop
    7988:	00000013          	nop
    798c:	00000013          	nop
    7990:	00000013          	nop
    7994:	00000013          	nop
    7998:	00000013          	nop
    799c:	00000013          	nop
    79a0:	00000013          	nop
    79a4:	00000013          	nop
    79a8:	00000013          	nop
    79ac:	00000013          	nop
    79b0:	00000013          	nop
    79b4:	00000013          	nop
    79b8:	00000013          	nop
    79bc:	00000013          	nop
    79c0:	00000013          	nop
    79c4:	00000013          	nop
    79c8:	00000013          	nop
    79cc:	00000013          	nop
    79d0:	00000013          	nop
    79d4:	00000013          	nop
    79d8:	00000013          	nop
    79dc:	00000013          	nop
    79e0:	00000013          	nop
    79e4:	00000013          	nop
    79e8:	00000013          	nop
    79ec:	00000013          	nop
    79f0:	00000013          	nop
    79f4:	00000013          	nop
    79f8:	00000013          	nop
    79fc:	00000013          	nop
    7a00:	00000013          	nop
    7a04:	00000013          	nop
    7a08:	00000013          	nop
    7a0c:	00000013          	nop
    7a10:	00000013          	nop
    7a14:	00000013          	nop
    7a18:	00000013          	nop
    7a1c:	00000013          	nop
    7a20:	00000013          	nop
    7a24:	00000013          	nop
    7a28:	00000013          	nop
    7a2c:	00000013          	nop
    7a30:	00000013          	nop
    7a34:	00000013          	nop
    7a38:	00000013          	nop
    7a3c:	00000013          	nop
    7a40:	00000013          	nop
    7a44:	00000013          	nop
    7a48:	00000013          	nop
    7a4c:	00000013          	nop
    7a50:	00000013          	nop
    7a54:	00000013          	nop
    7a58:	00000013          	nop
    7a5c:	00000013          	nop
    7a60:	00000013          	nop
    7a64:	00000013          	nop
    7a68:	00000013          	nop
    7a6c:	00000013          	nop
    7a70:	00000013          	nop
    7a74:	00000013          	nop
    7a78:	00000013          	nop
    7a7c:	00000013          	nop
    7a80:	00000013          	nop
    7a84:	00000013          	nop
    7a88:	00000013          	nop
    7a8c:	00000013          	nop
    7a90:	00000013          	nop
    7a94:	00000013          	nop
    7a98:	00000013          	nop
    7a9c:	00000013          	nop
    7aa0:	00000013          	nop
    7aa4:	00000013          	nop
    7aa8:	00000013          	nop
    7aac:	00000013          	nop
    7ab0:	00000013          	nop
    7ab4:	00000013          	nop
    7ab8:	00000013          	nop
    7abc:	00000013          	nop
    7ac0:	00000013          	nop
    7ac4:	00000013          	nop
    7ac8:	00000013          	nop
    7acc:	00000013          	nop
    7ad0:	00000013          	nop
    7ad4:	00000013          	nop
    7ad8:	00000013          	nop
    7adc:	00000013          	nop
    7ae0:	00000013          	nop
    7ae4:	00000013          	nop
    7ae8:	00000013          	nop
    7aec:	00000013          	nop
    7af0:	00000013          	nop
    7af4:	00000013          	nop
    7af8:	00000013          	nop
    7afc:	00000013          	nop
    7b00:	00000013          	nop
    7b04:	00000013          	nop
    7b08:	00000013          	nop
    7b0c:	00000013          	nop
    7b10:	00000013          	nop
    7b14:	00000013          	nop
    7b18:	00000013          	nop
    7b1c:	00000013          	nop
    7b20:	00000013          	nop
    7b24:	00000013          	nop
    7b28:	00000013          	nop
    7b2c:	00000013          	nop
    7b30:	00000013          	nop
    7b34:	00000013          	nop
    7b38:	00000013          	nop
    7b3c:	00000013          	nop
    7b40:	00000013          	nop
    7b44:	00000013          	nop
    7b48:	00000013          	nop
    7b4c:	00000013          	nop
    7b50:	00000013          	nop
    7b54:	00000013          	nop
    7b58:	00000013          	nop
    7b5c:	00000013          	nop
    7b60:	00000013          	nop
    7b64:	00000013          	nop
    7b68:	00000013          	nop
    7b6c:	00000013          	nop
    7b70:	00000013          	nop
    7b74:	00000013          	nop
    7b78:	00000013          	nop
    7b7c:	00000013          	nop
    7b80:	00000013          	nop
    7b84:	00000013          	nop
    7b88:	00000013          	nop
    7b8c:	00000013          	nop
    7b90:	00000013          	nop
    7b94:	00000013          	nop
    7b98:	00000013          	nop
    7b9c:	00000013          	nop
    7ba0:	00000013          	nop
    7ba4:	00000013          	nop
    7ba8:	00000013          	nop
    7bac:	00000013          	nop
    7bb0:	00000013          	nop
    7bb4:	00000013          	nop
    7bb8:	00000013          	nop
    7bbc:	00000013          	nop
    7bc0:	00000013          	nop
    7bc4:	00000013          	nop
    7bc8:	00000013          	nop
    7bcc:	00000013          	nop
    7bd0:	00000013          	nop
    7bd4:	00000013          	nop
    7bd8:	00000013          	nop
    7bdc:	00000013          	nop
    7be0:	00000013          	nop
    7be4:	00000013          	nop
    7be8:	00000013          	nop
    7bec:	00000013          	nop
    7bf0:	00000013          	nop
    7bf4:	00000013          	nop
    7bf8:	00000013          	nop
    7bfc:	00000013          	nop
    7c00:	00000013          	nop
    7c04:	00000013          	nop
    7c08:	00000013          	nop
    7c0c:	00000013          	nop
    7c10:	00000013          	nop
    7c14:	00000013          	nop
    7c18:	00000013          	nop
    7c1c:	00000013          	nop
    7c20:	00000013          	nop
    7c24:	00000013          	nop
    7c28:	00000013          	nop
    7c2c:	00000013          	nop
    7c30:	00000013          	nop
    7c34:	00000013          	nop
    7c38:	00000013          	nop
    7c3c:	00000013          	nop
    7c40:	00000013          	nop
    7c44:	00000013          	nop
    7c48:	00000013          	nop
    7c4c:	00000013          	nop
    7c50:	00000013          	nop
    7c54:	00000013          	nop
    7c58:	00000013          	nop
    7c5c:	00000013          	nop
    7c60:	00000013          	nop
    7c64:	00000013          	nop
    7c68:	00000013          	nop
    7c6c:	00000013          	nop
    7c70:	00000013          	nop
    7c74:	00000013          	nop
    7c78:	00000013          	nop
    7c7c:	00000013          	nop
    7c80:	00000013          	nop
    7c84:	00000013          	nop
    7c88:	00000013          	nop
    7c8c:	00000013          	nop
    7c90:	00000013          	nop
    7c94:	00000013          	nop
    7c98:	00000013          	nop
    7c9c:	00000013          	nop
    7ca0:	00000013          	nop
    7ca4:	00000013          	nop
    7ca8:	00000013          	nop
    7cac:	00000013          	nop
    7cb0:	00000013          	nop
    7cb4:	00000013          	nop
    7cb8:	00000013          	nop
    7cbc:	00000013          	nop
    7cc0:	00000013          	nop
    7cc4:	00000013          	nop
    7cc8:	00000013          	nop
    7ccc:	00000013          	nop
    7cd0:	00000013          	nop
    7cd4:	00000013          	nop
    7cd8:	00000013          	nop
    7cdc:	00000013          	nop
    7ce0:	00360613          	addi	a2,a2,3
    7ce4:	0040006f          	j	7ce8 <inst_69+0x424>
    7ce8:	0cc22023          	sw	a2,192(tp) # c0 <num+0xb3>

00007cec <inst_70>:
    7cec:	10000513          	li	a0,256
    7cf0:	010005b7          	lui	a1,0x1000
    7cf4:	00000613          	li	a2,0
    7cf8:	00c0006f          	j	7d04 <inst_70+0x18>
    7cfc:	00160613          	addi	a2,a2,1
    7d00:	04c0006f          	j	7d4c <inst_70+0x60>
    7d04:	04b55063          	bge	a0,a1,7d44 <inst_70+0x58>
    7d08:	00260613          	addi	a2,a2,2
    7d0c:	0400006f          	j	7d4c <inst_70+0x60>
    7d10:	00000013          	nop
    7d14:	00000013          	nop
    7d18:	00000013          	nop
    7d1c:	00000013          	nop
    7d20:	00000013          	nop
    7d24:	00000013          	nop
    7d28:	00000013          	nop
    7d2c:	00000013          	nop
    7d30:	00000013          	nop
    7d34:	00000013          	nop
    7d38:	00000013          	nop
    7d3c:	00000013          	nop
    7d40:	00000013          	nop
    7d44:	00360613          	addi	a2,a2,3
    7d48:	0040006f          	j	7d4c <inst_70+0x60>
    7d4c:	0cc22223          	sw	a2,196(tp) # c4 <num+0xb7>

00007d50 <inst_71>:
    7d50:	20000513          	li	a0,512
    7d54:	fdf00593          	li	a1,-33
    7d58:	00000613          	li	a2,0
    7d5c:	00c0006f          	j	7d68 <inst_71+0x18>
    7d60:	00160613          	addi	a2,a2,1
    7d64:	04c0006f          	j	7db0 <inst_71+0x60>
    7d68:	04b55063          	bge	a0,a1,7da8 <inst_71+0x58>
    7d6c:	00260613          	addi	a2,a2,2
    7d70:	0400006f          	j	7db0 <inst_71+0x60>
    7d74:	00000013          	nop
    7d78:	00000013          	nop
    7d7c:	00000013          	nop
    7d80:	00000013          	nop
    7d84:	00000013          	nop
    7d88:	00000013          	nop
    7d8c:	00000013          	nop
    7d90:	00000013          	nop
    7d94:	00000013          	nop
    7d98:	00000013          	nop
    7d9c:	00000013          	nop
    7da0:	00000013          	nop
    7da4:	00000013          	nop
    7da8:	00360613          	addi	a2,a2,3
    7dac:	0040006f          	j	7db0 <inst_71+0x60>
    7db0:	0cc22423          	sw	a2,200(tp) # c8 <num+0xbb>

00007db4 <inst_72>:
    7db4:	40000513          	li	a0,1024
    7db8:	00000593          	li	a1,0
    7dbc:	00000613          	li	a2,0
    7dc0:	0100006f          	j	7dd0 <inst_72+0x1c>
    7dc4:	00160613          	addi	a2,a2,1
    7dc8:	01c0006f          	j	7de4 <inst_72+0x30>
    7dcc:	00000013          	nop
    7dd0:	feb55ae3          	bge	a0,a1,7dc4 <inst_72+0x10>
    7dd4:	00260613          	addi	a2,a2,2
    7dd8:	00c0006f          	j	7de4 <inst_72+0x30>
    7ddc:	00360613          	addi	a2,a2,3
    7de0:	0040006f          	j	7de4 <inst_72+0x30>
    7de4:	0cc22623          	sw	a2,204(tp) # cc <num+0xbf>

00007de8 <inst_73>:
    7de8:	00001537          	lui	a0,0x1
    7dec:	80050513          	addi	a0,a0,-2048 # 800 <offset+0x71c>
    7df0:	000085b7          	lui	a1,0x8
    7df4:	00000613          	li	a2,0
    7df8:	00c0006f          	j	7e04 <inst_73+0x1c>
    7dfc:	00160613          	addi	a2,a2,1
    7e00:	0180006f          	j	7e18 <inst_73+0x30>
    7e04:	feb55ce3          	bge	a0,a1,7dfc <inst_73+0x14>
    7e08:	00260613          	addi	a2,a2,2
    7e0c:	00c0006f          	j	7e18 <inst_73+0x30>
