
my.elf:     file format elf32-littleriscv


Disassembly of section .text:

00001000 <rvtest_entry_point>:
    1000:	feedc0b7          	lui	ra,0xfeedc
    1004:	ead08093          	addi	ra,ra,-339 # feedbead <_end+0xfeed5ea9>
    1008:	ff76e137          	lui	sp,0xff76e
    100c:	f5610113          	addi	sp,sp,-170 # ff76df56 <_end+0xff767f52>
    1010:	7fbb71b7          	lui	gp,0x7fbb7
    1014:	fab18193          	addi	gp,gp,-85 # 7fbb6fab <_end+0x7fbb0fa7>
    1018:	bfddb237          	lui	tp,0xbfddb
    101c:	7d520213          	addi	tp,tp,2005 # bfddb7d5 <_end+0xbfdd57d1>
    1020:	00000297          	auipc	t0,0x0
    1024:	0d828293          	addi	t0,t0,216 # 10f8 <rvtest_code_begin>
    1028:	00004317          	auipc	t1,0x4
    102c:	fd830313          	addi	t1,t1,-40 # 5000 <rvtest_data_begin>
    1030:	b7fbb3b7          	lui	t2,0xb7fbb
    1034:	6fa38393          	addi	t2,t2,1786 # b7fbb6fa <_end+0xb7fb56f6>
    1038:	5bfde437          	lui	s0,0x5bfde
    103c:	b7d40413          	addi	s0,s0,-1155 # 5bfddb7d <_end+0x5bfd7b79>
    1040:	adfef4b7          	lui	s1,0xadfef
    1044:	dbe48493          	addi	s1,s1,-578 # adfeedbe <_end+0xadfe8dba>
    1048:	56ff7537          	lui	a0,0x56ff7
    104c:	6df50513          	addi	a0,a0,1759 # 56ff76df <_end+0x56ff16db>
    1050:	ab7fc5b7          	lui	a1,0xab7fc
    1054:	b6f58593          	addi	a1,a1,-1169 # ab7fbb6f <_end+0xab7f5b6b>
    1058:	d5bfe637          	lui	a2,0xd5bfe
    105c:	db760613          	addi	a2,a2,-585 # d5bfddb7 <_end+0xd5bf7db3>
    1060:	eadff6b7          	lui	a3,0xeadff
    1064:	edb68693          	addi	a3,a3,-293 # eadfeedb <_end+0xeadf8ed7>
    1068:	f56ff737          	lui	a4,0xf56ff
    106c:	76d70713          	addi	a4,a4,1901 # f56ff76d <_end+0xf56f9769>
    1070:	fab807b7          	lui	a5,0xfab80
    1074:	bb678793          	addi	a5,a5,-1098 # fab7fbb6 <_end+0xfab79bb2>
    1078:	7d5c0837          	lui	a6,0x7d5c0
    107c:	ddb80813          	addi	a6,a6,-549 # 7d5bfddb <_end+0x7d5b9dd7>
    1080:	beae08b7          	lui	a7,0xbeae0
    1084:	eed88893          	addi	a7,a7,-275 # beadfeed <_end+0xbead9ee9>
    1088:	df570937          	lui	s2,0xdf570
    108c:	f7690913          	addi	s2,s2,-138 # df56ff76 <_end+0xdf569f72>
    1090:	6fab89b7          	lui	s3,0x6fab8
    1094:	fbb98993          	addi	s3,s3,-69 # 6fab7fbb <_end+0x6fab1fb7>
    1098:	b7d5ca37          	lui	s4,0xb7d5c
    109c:	fdda0a13          	addi	s4,s4,-35 # b7d5bfdd <_end+0xb7d55fd9>
    10a0:	dbeaeab7          	lui	s5,0xdbeae
    10a4:	feea8a93          	addi	s5,s5,-18 # dbeadfee <_end+0xdbea7fea>
    10a8:	6df57b37          	lui	s6,0x6df57
    10ac:	ff7b0b13          	addi	s6,s6,-9 # 6df56ff7 <_end+0x6df50ff3>
    10b0:	b6fabbb7          	lui	s7,0xb6fab
    10b4:	7fbb8b93          	addi	s7,s7,2043 # b6fab7fb <_end+0xb6fa57f7>
    10b8:	db7d6c37          	lui	s8,0xdb7d6
    10bc:	bfdc0c13          	addi	s8,s8,-1027 # db7d5bfd <_end+0xdb7cfbf9>
    10c0:	edbebcb7          	lui	s9,0xedbeb
    10c4:	dfec8c93          	addi	s9,s9,-514 # edbeadfe <_end+0xedbe4dfa>
    10c8:	76df5d37          	lui	s10,0x76df5
    10cc:	6ffd0d13          	addi	s10,s10,1791 # 76df56ff <_end+0x76def6fb>
    10d0:	bb6fbdb7          	lui	s11,0xbb6fb
    10d4:	b7fd8d93          	addi	s11,s11,-1153 # bb6fab7f <_end+0xbb6f4b7b>
    10d8:	ddb7de37          	lui	t3,0xddb7d
    10dc:	5bfe0e13          	addi	t3,t3,1471 # ddb7d5bf <_end+0xddb775bb>
    10e0:	eedbfeb7          	lui	t4,0xeedbf
    10e4:	adfe8e93          	addi	t4,t4,-1313 # eedbeadf <_end+0xeedb8adb>
    10e8:	f76dff37          	lui	t5,0xf76df
    10ec:	56ff0f13          	addi	t5,t5,1391 # f76df56f <_end+0xf76d956b>
    10f0:	fbb70fb7          	lui	t6,0xfbb70
    10f4:	ab7f8f93          	addi	t6,t6,-1353 # fbb6fab7 <_end+0xfbb69ab3>

000010f8 <rvtest_code_begin>:
    10f8:	00004397          	auipc	t2,0x4
    10fc:	f1838393          	addi	t2,t2,-232 # 5010 <begin_signature>

00001100 <inst_0>:
    1100:	66666db7          	lui	s11,0x66666
    1104:	665d8d93          	addi	s11,s11,1637 # 66666665 <_end+0x66660661>
    1108:	00300c13          	li	s8,3
    110c:	018dcc33          	xor	s8,s11,s8
    1110:	0183a023          	sw	s8,0(t2)

00001114 <inst_1>:
    1114:	00500693          	li	a3,5
    1118:	00500693          	li	a3,5
    111c:	00d6c533          	xor	a0,a3,a3
    1120:	00a3a223          	sw	a0,4(t2)

00001124 <inst_2>:
    1124:	ffffcbb7          	lui	s7,0xffffc
    1128:	fffb8b93          	addi	s7,s7,-1 # ffffbfff <_end+0xffff5ffb>
    112c:	ffffcbb7          	lui	s7,0xffffc
    1130:	fffb8b93          	addi	s7,s7,-1 # ffffbfff <_end+0xffff5ffb>
    1134:	017bcbb3          	xor	s7,s7,s7
    1138:	0173a423          	sw	s7,8(t2)

0000113c <inst_3>:
    113c:	fbf00e13          	li	t3,-65
    1140:	00800713          	li	a4,8
    1144:	00ee4e33          	xor	t3,t3,a4
    1148:	01c3a623          	sw	t3,12(t2)

0000114c <inst_4>:
    114c:	fff00093          	li	ra,-1
    1150:	fff00113          	li	sp,-1
    1154:	0020c933          	xor	s2,ra,sp
    1158:	0123a823          	sw	s2,16(t2)

0000115c <inst_5>:
    115c:	004002b7          	lui	t0,0x400
    1160:	80000b37          	lui	s6,0x80000
    1164:	0162c9b3          	xor	s3,t0,s6
    1168:	0133aa23          	sw	s3,20(t2)

0000116c <inst_6>:
    116c:	fef00d13          	li	s10,-17
    1170:	00000613          	li	a2,0
    1174:	00cd46b3          	xor	a3,s10,a2
    1178:	00d3ac23          	sw	a3,24(t2)

0000117c <inst_7>:
    117c:	aaaab637          	lui	a2,0xaaaab
    1180:	aaa60613          	addi	a2,a2,-1366 # aaaaaaaa <_end+0xaaaa4aa6>
    1184:	800005b7          	lui	a1,0x80000
    1188:	fff58593          	addi	a1,a1,-1 # 7fffffff <_end+0x7fff9ffb>
    118c:	00b64233          	xor	tp,a2,a1
    1190:	0043ae23          	sw	tp,28(t2)

00001194 <inst_8>:
    1194:	00100993          	li	s3,1
    1198:	00100f13          	li	t5,1
    119c:	01e9c8b3          	xor	a7,s3,t5
    11a0:	0313a023          	sw	a7,32(t2)

000011a4 <inst_9>:
    11a4:	800005b7          	lui	a1,0x80000
    11a8:	f00000b7          	lui	ra,0xf0000
    11ac:	fff08093          	addi	ra,ra,-1 # efffffff <_end+0xefff9ffb>
    11b0:	0015c1b3          	xor	gp,a1,ra
    11b4:	0233a223          	sw	gp,36(t2)

000011b8 <inst_10>:
    11b8:	00000c13          	li	s8,0
    11bc:	ffff5eb7          	lui	t4,0xffff5
    11c0:	afce8e93          	addi	t4,t4,-1284 # ffff4afc <_end+0xfffeeaf8>
    11c4:	01dc4433          	xor	s0,s8,t4
    11c8:	0283a423          	sw	s0,40(t2)

000011cc <inst_11>:
    11cc:	00000013          	nop
    11d0:	00001937          	lui	s2,0x1
    11d4:	012044b3          	xor	s1,zero,s2
    11d8:	0293a623          	sw	s1,44(t2)

000011dc <inst_12>:
    11dc:	00080537          	lui	a0,0x80
    11e0:	00200313          	li	t1,2
    11e4:	00654d33          	xor	s10,a0,t1
    11e8:	03a3a823          	sw	s10,48(t2)

000011ec <inst_13>:
    11ec:	fdf00b13          	li	s6,-33
    11f0:	00400f93          	li	t6,4
    11f4:	01fb4f33          	xor	t5,s6,t6
    11f8:	03e3aa23          	sw	t5,52(t2)

000011fc <inst_14>:
    11fc:	00600413          	li	s0,6
    1200:	00000013          	nop
    1204:	00044833          	xor	a6,s0,zero
    1208:	0303ac23          	sw	a6,56(t2)

0000120c <inst_15>:
    120c:	00500813          	li	a6,5
    1210:	02000d93          	li	s11,32
    1214:	01b847b3          	xor	a5,a6,s11
    1218:	02f3ae23          	sw	a5,60(t2)

0000121c <inst_16>:
    121c:	ffe001b7          	lui	gp,0xffe00
    1220:	fff18193          	addi	gp,gp,-1 # ffdfffff <_end+0xffdf9ffb>
    1224:	04000d13          	li	s10,64
    1228:	01a1cfb3          	xor	t6,gp,s10
    122c:	05f3a023          	sw	t6,64(t2)

00001230 <inst_17>:
    1230:	ffff84b7          	lui	s1,0xffff8
    1234:	fff48493          	addi	s1,s1,-1 # ffff7fff <_end+0xffff1ffb>
    1238:	08000c93          	li	s9,128
    123c:	0194c733          	xor	a4,s1,s9
    1240:	04e3a223          	sw	a4,68(t2)
    1244:	00004697          	auipc	a3,0x4
    1248:	e1468693          	addi	a3,a3,-492 # 5058 <signature_x13_0>

0000124c <inst_18>:
    124c:	55555f37          	lui	t5,0x55555
    1250:	556f0f13          	addi	t5,t5,1366 # 55555556 <_end+0x5554f552>
    1254:	10000513          	li	a0,256
    1258:	00af4333          	xor	t1,t5,a0
    125c:	0066a023          	sw	t1,0(a3)

00001260 <inst_19>:
    1260:	ffffc137          	lui	sp,0xffffc
    1264:	fff10113          	addi	sp,sp,-1 # ffffbfff <_end+0xffff5ffb>
    1268:	20000493          	li	s1,512
    126c:	009143b3          	xor	t2,sp,s1
    1270:	0076a223          	sw	t2,4(a3)

00001274 <inst_20>:
    1274:	08000313          	li	t1,128
    1278:	40000893          	li	a7,1024
    127c:	01134033          	xor	zero,t1,a7
    1280:	0006a423          	sw	zero,8(a3)

00001284 <inst_21>:
    1284:	ffff87b7          	lui	a5,0xffff8
    1288:	fff78793          	addi	a5,a5,-1 # ffff7fff <_end+0xffff1ffb>
    128c:	000012b7          	lui	t0,0x1
    1290:	80028293          	addi	t0,t0,-2048 # 800 <offset+0x718>
    1294:	0057c133          	xor	sp,a5,t0
    1298:	0026a623          	sw	sp,12(a3)

0000129c <inst_22>:
    129c:	00600393          	li	t2,6
    12a0:	000027b7          	lui	a5,0x2
    12a4:	00f3cb33          	xor	s6,t2,a5
    12a8:	0166a823          	sw	s6,16(a3)

000012ac <inst_23>:
    12ac:	ff700713          	li	a4,-9
    12b0:	00004837          	lui	a6,0x4
    12b4:	01074a33          	xor	s4,a4,a6
    12b8:	0146aa23          	sw	s4,20(a3)

000012bc <inst_24>:
    12bc:	00008eb7          	lui	t4,0x8
    12c0:	00008a37          	lui	s4,0x8
    12c4:	014ec0b3          	xor	ra,t4,s4
    12c8:	0016ac23          	sw	ra,24(a3)

000012cc <inst_25>:
    12cc:	00400913          	li	s2,4
    12d0:	00010437          	lui	s0,0x10
    12d4:	00894633          	xor	a2,s2,s0
    12d8:	00c6ae23          	sw	a2,28(a3)

000012dc <inst_26>:
    12dc:	33333ab7          	lui	s5,0x33333
    12e0:	332a8a93          	addi	s5,s5,818 # 33333332 <_end+0x3332d32e>
    12e4:	00020e37          	lui	t3,0x20
    12e8:	01cac2b3          	xor	t0,s5,t3
    12ec:	0256a023          	sw	t0,32(a3)

000012f0 <inst_27>:
    12f0:	fc0008b7          	lui	a7,0xfc000
    12f4:	fff88893          	addi	a7,a7,-1 # fbffffff <_end+0xfbff9ffb>
    12f8:	00040237          	lui	tp,0x40
    12fc:	0048c5b3          	xor	a1,a7,tp
    1300:	02b6a223          	sw	a1,36(a3)

00001304 <inst_28>:
    1304:	00700213          	li	tp,7
    1308:	00080ab7          	lui	s5,0x80
    130c:	01524db3          	xor	s11,tp,s5
    1310:	03b6a423          	sw	s11,40(a3)

00001314 <inst_29>:
    1314:	fff00f93          	li	t6,-1
    1318:	001001b7          	lui	gp,0x100
    131c:	003fceb3          	xor	t4,t6,gp
    1320:	03d6a623          	sw	t4,44(a3)

00001324 <inst_30>:
    1324:	0000bcb7          	lui	s9,0xb
    1328:	505c8c93          	addi	s9,s9,1285 # b505 <_end+0x5501>
    132c:	002003b7          	lui	t2,0x200
    1330:	007ccab3          	xor	s5,s9,t2
    1334:	0356a823          	sw	s5,48(a3)

00001338 <inst_31>:
    1338:	0000ba37          	lui	s4,0xb
    133c:	505a0a13          	addi	s4,s4,1285 # b505 <_end+0x5501>
    1340:	004009b7          	lui	s3,0x400
    1344:	013a4cb3          	xor	s9,s4,s3
    1348:	0396aa23          	sw	s9,52(a3)

0000134c <inst_32>:
    134c:	00100513          	li	a0,1
    1350:	008005b7          	lui	a1,0x800
    1354:	00b54633          	xor	a2,a0,a1
    1358:	02c6ac23          	sw	a2,56(a3)

0000135c <inst_33>:
    135c:	f0000537          	lui	a0,0xf0000
    1360:	fff50513          	addi	a0,a0,-1 # efffffff <_end+0xefff9ffb>
    1364:	010005b7          	lui	a1,0x1000
    1368:	00b54633          	xor	a2,a0,a1
    136c:	02c6ae23          	sw	a2,60(a3)

00001370 <inst_34>:
    1370:	0000b537          	lui	a0,0xb
    1374:	50550513          	addi	a0,a0,1285 # b505 <_end+0x5501>
    1378:	020005b7          	lui	a1,0x2000
    137c:	00b54633          	xor	a2,a0,a1
    1380:	04c6a023          	sw	a2,64(a3)

00001384 <inst_35>:
    1384:	ff800537          	lui	a0,0xff800
    1388:	fff50513          	addi	a0,a0,-1 # ff7fffff <_end+0xff7f9ffb>
    138c:	040005b7          	lui	a1,0x4000
    1390:	00b54633          	xor	a2,a0,a1
    1394:	04c6a223          	sw	a2,68(a3)

00001398 <inst_36>:
    1398:	00001537          	lui	a0,0x1
    139c:	080005b7          	lui	a1,0x8000
    13a0:	00b54633          	xor	a2,a0,a1
    13a4:	04c6a423          	sw	a2,72(a3)

000013a8 <inst_37>:
    13a8:	ff700513          	li	a0,-9
    13ac:	100005b7          	lui	a1,0x10000
    13b0:	00b54633          	xor	a2,a0,a1
    13b4:	04c6a623          	sw	a2,76(a3)

000013b8 <inst_38>:
    13b8:	fe000537          	lui	a0,0xfe000
    13bc:	fff50513          	addi	a0,a0,-1 # fdffffff <_end+0xfdff9ffb>
    13c0:	200005b7          	lui	a1,0x20000
    13c4:	00b54633          	xor	a2,a0,a1
    13c8:	04c6a823          	sw	a2,80(a3)

000013cc <inst_39>:
    13cc:	fffe0537          	lui	a0,0xfffe0
    13d0:	fff50513          	addi	a0,a0,-1 # fffdffff <_end+0xfffd9ffb>
    13d4:	400005b7          	lui	a1,0x40000
    13d8:	00b54633          	xor	a2,a0,a1
    13dc:	04c6aa23          	sw	a2,84(a3)

000013e0 <inst_40>:
    13e0:	fe000537          	lui	a0,0xfe000
    13e4:	fff50513          	addi	a0,a0,-1 # fdffffff <_end+0xfdff9ffb>
    13e8:	ffe00593          	li	a1,-2
    13ec:	00b54633          	xor	a2,a0,a1
    13f0:	04c6ac23          	sw	a2,88(a3)

000013f4 <inst_41>:
    13f4:	40000537          	lui	a0,0x40000
    13f8:	ffd00593          	li	a1,-3
    13fc:	00b54633          	xor	a2,a0,a1
    1400:	04c6ae23          	sw	a2,92(a3)

00001404 <inst_42>:
    1404:	66666537          	lui	a0,0x66666
    1408:	66650513          	addi	a0,a0,1638 # 66666666 <_end+0x66660662>
    140c:	ffb00593          	li	a1,-5
    1410:	00b54633          	xor	a2,a0,a1
    1414:	06c6a023          	sw	a2,96(a3)

00001418 <inst_43>:
    1418:	02000537          	lui	a0,0x2000
    141c:	ff700593          	li	a1,-9
    1420:	00b54633          	xor	a2,a0,a1
    1424:	06c6a223          	sw	a2,100(a3)

00001428 <inst_44>:
    1428:	fdf00513          	li	a0,-33
    142c:	fef00593          	li	a1,-17
    1430:	00b54633          	xor	a2,a0,a1
    1434:	06c6a423          	sw	a2,104(a3)

00001438 <inst_45>:
    1438:	00400513          	li	a0,4
    143c:	fdf00593          	li	a1,-33
    1440:	00b54633          	xor	a2,a0,a1
    1444:	06c6a623          	sw	a2,108(a3)

00001448 <inst_46>:
    1448:	00300513          	li	a0,3
    144c:	fbf00593          	li	a1,-65
    1450:	00b54633          	xor	a2,a0,a1
    1454:	06c6a823          	sw	a2,112(a3)

00001458 <inst_47>:
    1458:	00020537          	lui	a0,0x20
    145c:	f7f00593          	li	a1,-129
    1460:	00b54633          	xor	a2,a0,a1
    1464:	06c6aa23          	sw	a2,116(a3)

00001468 <inst_48>:
    1468:	f0000537          	lui	a0,0xf0000
    146c:	fff50513          	addi	a0,a0,-1 # efffffff <_end+0xefff9ffb>
    1470:	eff00593          	li	a1,-257
    1474:	00b54633          	xor	a2,a0,a1
    1478:	06c6ac23          	sw	a2,120(a3)

0000147c <inst_49>:
    147c:	ffb00513          	li	a0,-5
    1480:	dff00593          	li	a1,-513
    1484:	00b54633          	xor	a2,a0,a1
    1488:	06c6ae23          	sw	a2,124(a3)

0000148c <inst_50>:
    148c:	fef00513          	li	a0,-17
    1490:	bff00593          	li	a1,-1025
    1494:	00b54633          	xor	a2,a0,a1
    1498:	08c6a023          	sw	a2,128(a3)

0000149c <inst_51>:
    149c:	ffff5537          	lui	a0,0xffff5
    14a0:	afc50513          	addi	a0,a0,-1284 # ffff4afc <_end+0xfffeeaf8>
    14a4:	fffff5b7          	lui	a1,0xfffff
    14a8:	7ff58593          	addi	a1,a1,2047 # fffff7ff <_end+0xffff97fb>
    14ac:	00b54633          	xor	a2,a0,a1
    14b0:	08c6a223          	sw	a2,132(a3)

000014b4 <inst_52>:
    14b4:	00200513          	li	a0,2
    14b8:	fffff5b7          	lui	a1,0xfffff
    14bc:	fff58593          	addi	a1,a1,-1 # ffffefff <_end+0xffff8ffb>
    14c0:	00b54633          	xor	a2,a0,a1
    14c4:	08c6a423          	sw	a2,136(a3)

000014c8 <inst_53>:
    14c8:	ff900513          	li	a0,-7
    14cc:	ffffe5b7          	lui	a1,0xffffe
    14d0:	fff58593          	addi	a1,a1,-1 # ffffdfff <_end+0xffff7ffb>
    14d4:	00b54633          	xor	a2,a0,a1
    14d8:	08c6a623          	sw	a2,140(a3)

000014dc <inst_54>:
    14dc:	ff000537          	lui	a0,0xff000
    14e0:	fff50513          	addi	a0,a0,-1 # feffffff <_end+0xfeff9ffb>
    14e4:	ffffc5b7          	lui	a1,0xffffc
    14e8:	fff58593          	addi	a1,a1,-1 # ffffbfff <_end+0xffff5ffb>
    14ec:	00b54633          	xor	a2,a0,a1
    14f0:	08c6a823          	sw	a2,144(a3)

000014f4 <inst_55>:
    14f4:	00300513          	li	a0,3
    14f8:	ffff85b7          	lui	a1,0xffff8
    14fc:	fff58593          	addi	a1,a1,-1 # ffff7fff <_end+0xffff1ffb>
    1500:	00b54633          	xor	a2,a0,a1
    1504:	08c6aa23          	sw	a2,148(a3)

00001508 <inst_56>:
    1508:	00004537          	lui	a0,0x4
    150c:	fffe05b7          	lui	a1,0xfffe0
    1510:	fff58593          	addi	a1,a1,-1 # fffdffff <_end+0xfffd9ffb>
    1514:	00b54633          	xor	a2,a0,a1
    1518:	08c6ac23          	sw	a2,152(a3)

0000151c <inst_57>:
    151c:	00040537          	lui	a0,0x40
    1520:	fffc05b7          	lui	a1,0xfffc0
    1524:	fff58593          	addi	a1,a1,-1 # fffbffff <_end+0xfffb9ffb>
    1528:	00b54633          	xor	a2,a0,a1
    152c:	08c6ae23          	sw	a2,156(a3)

00001530 <inst_58>:
    1530:	10000537          	lui	a0,0x10000
    1534:	fff805b7          	lui	a1,0xfff80
    1538:	fff58593          	addi	a1,a1,-1 # fff7ffff <_end+0xfff79ffb>
    153c:	00b54633          	xor	a2,a0,a1
    1540:	0ac6a023          	sw	a2,160(a3)

00001544 <inst_59>:
    1544:	80000537          	lui	a0,0x80000
    1548:	fff005b7          	lui	a1,0xfff00
    154c:	fff58593          	addi	a1,a1,-1 # ffefffff <_end+0xffef9ffb>
    1550:	00b54633          	xor	a2,a0,a1
    1554:	0ac6a223          	sw	a2,164(a3)

00001558 <inst_60>:
    1558:	00008537          	lui	a0,0x8
    155c:	ffe005b7          	lui	a1,0xffe00
    1560:	fff58593          	addi	a1,a1,-1 # ffdfffff <_end+0xffdf9ffb>
    1564:	00b54633          	xor	a2,a0,a1
    1568:	0ac6a423          	sw	a2,168(a3)

0000156c <inst_61>:
    156c:	80000537          	lui	a0,0x80000
    1570:	ffc005b7          	lui	a1,0xffc00
    1574:	fff58593          	addi	a1,a1,-1 # ffbfffff <_end+0xffbf9ffb>
    1578:	00b54633          	xor	a2,a0,a1
    157c:	0ac6a623          	sw	a2,172(a3)

00001580 <inst_62>:
    1580:	33333537          	lui	a0,0x33333
    1584:	33450513          	addi	a0,a0,820 # 33333334 <_end+0x3332d330>
    1588:	ff8005b7          	lui	a1,0xff800
    158c:	fff58593          	addi	a1,a1,-1 # ff7fffff <_end+0xff7f9ffb>
    1590:	00b54633          	xor	a2,a0,a1
    1594:	0ac6a823          	sw	a2,176(a3)

00001598 <inst_63>:
    1598:	c0000537          	lui	a0,0xc0000
    159c:	ff0005b7          	lui	a1,0xff000
    15a0:	fff58593          	addi	a1,a1,-1 # feffffff <_end+0xfeff9ffb>
    15a4:	00b54633          	xor	a2,a0,a1
    15a8:	0ac6aa23          	sw	a2,180(a3)

000015ac <inst_64>:
    15ac:	fe000537          	lui	a0,0xfe000
    15b0:	fff50513          	addi	a0,a0,-1 # fdffffff <_end+0xfdff9ffb>
    15b4:	fe0005b7          	lui	a1,0xfe000
    15b8:	fff58593          	addi	a1,a1,-1 # fdffffff <_end+0xfdff9ffb>
    15bc:	00b54633          	xor	a2,a0,a1
    15c0:	0ac6ac23          	sw	a2,184(a3)

000015c4 <inst_65>:
    15c4:	00100513          	li	a0,1
    15c8:	fc0005b7          	lui	a1,0xfc000
    15cc:	fff58593          	addi	a1,a1,-1 # fbffffff <_end+0xfbff9ffb>
    15d0:	00b54633          	xor	a2,a0,a1
    15d4:	0ac6ae23          	sw	a2,188(a3)

000015d8 <inst_66>:
    15d8:	66666537          	lui	a0,0x66666
    15dc:	66650513          	addi	a0,a0,1638 # 66666666 <_end+0x66660662>
    15e0:	f80005b7          	lui	a1,0xf8000
    15e4:	fff58593          	addi	a1,a1,-1 # f7ffffff <_end+0xf7ff9ffb>
    15e8:	00b54633          	xor	a2,a0,a1
    15ec:	0cc6a023          	sw	a2,192(a3)

000015f0 <inst_67>:
    15f0:	fff80537          	lui	a0,0xfff80
    15f4:	fff50513          	addi	a0,a0,-1 # fff7ffff <_end+0xfff79ffb>
    15f8:	e00005b7          	lui	a1,0xe0000
    15fc:	fff58593          	addi	a1,a1,-1 # dfffffff <_end+0xdfff9ffb>
    1600:	00b54633          	xor	a2,a0,a1
    1604:	0cc6a223          	sw	a2,196(a3)

00001608 <inst_68>:
    1608:	ffff5537          	lui	a0,0xffff5
    160c:	afc50513          	addi	a0,a0,-1284 # ffff4afc <_end+0xfffeeaf8>
    1610:	c00005b7          	lui	a1,0xc0000
    1614:	fff58593          	addi	a1,a1,-1 # bfffffff <_end+0xbfff9ffb>
    1618:	00b54633          	xor	a2,a0,a1
    161c:	0cc6a423          	sw	a2,200(a3)

00001620 <inst_69>:
    1620:	55555537          	lui	a0,0x55555
    1624:	55450513          	addi	a0,a0,1364 # 55555554 <_end+0x5554f550>
    1628:	555555b7          	lui	a1,0x55555
    162c:	55558593          	addi	a1,a1,1365 # 55555555 <_end+0x5554f551>
    1630:	00b54633          	xor	a2,a0,a1
    1634:	0cc6a623          	sw	a2,204(a3)

00001638 <inst_70>:
    1638:	02000537          	lui	a0,0x2000
    163c:	aaaab5b7          	lui	a1,0xaaaab
    1640:	aaa58593          	addi	a1,a1,-1366 # aaaaaaaa <_end+0xaaaa4aa6>
    1644:	00b54633          	xor	a2,a0,a1
    1648:	0cc6a823          	sw	a2,208(a3)

0000164c <inst_71>:
    164c:	00800513          	li	a0,8
    1650:	ffc00593          	li	a1,-4
    1654:	00b54633          	xor	a2,a0,a1
    1658:	0cc6aa23          	sw	a2,212(a3)

0000165c <inst_72>:
    165c:	01000513          	li	a0,16
    1660:	01000593          	li	a1,16
    1664:	00b54633          	xor	a2,a0,a1
    1668:	0cc6ac23          	sw	a2,216(a3)

0000166c <inst_73>:
    166c:	02000513          	li	a0,32
    1670:	04000593          	li	a1,64
    1674:	00b54633          	xor	a2,a0,a1
    1678:	0cc6ae23          	sw	a2,220(a3)

0000167c <inst_74>:
    167c:	04000513          	li	a0,64
    1680:	fdf00593          	li	a1,-33
    1684:	00b54633          	xor	a2,a0,a1
    1688:	0ec6a023          	sw	a2,224(a3)

0000168c <inst_75>:
    168c:	10000513          	li	a0,256
    1690:	ffc005b7          	lui	a1,0xffc00
    1694:	fff58593          	addi	a1,a1,-1 # ffbfffff <_end+0xffbf9ffb>
    1698:	00b54633          	xor	a2,a0,a1
    169c:	0ec6a223          	sw	a2,228(a3)

000016a0 <inst_76>:
    16a0:	20000513          	li	a0,512
    16a4:	aaaab5b7          	lui	a1,0xaaaab
    16a8:	aaa58593          	addi	a1,a1,-1366 # aaaaaaaa <_end+0xaaaa4aa6>
    16ac:	00b54633          	xor	a2,a0,a1
    16b0:	0ec6a423          	sw	a2,232(a3)

000016b4 <inst_77>:
    16b4:	40000513          	li	a0,1024
    16b8:	aaaab5b7          	lui	a1,0xaaaab
    16bc:	aaa58593          	addi	a1,a1,-1366 # aaaaaaaa <_end+0xaaaa4aa6>
    16c0:	00b54633          	xor	a2,a0,a1
    16c4:	0ec6a623          	sw	a2,236(a3)

000016c8 <inst_78>:
    16c8:	00001537          	lui	a0,0x1
    16cc:	80050513          	addi	a0,a0,-2048 # 800 <offset+0x718>
    16d0:	666665b7          	lui	a1,0x66666
    16d4:	66558593          	addi	a1,a1,1637 # 66666665 <_end+0x66660661>
    16d8:	00b54633          	xor	a2,a0,a1
    16dc:	0ec6a823          	sw	a2,240(a3)

000016e0 <inst_79>:
    16e0:	00002537          	lui	a0,0x2
    16e4:	fff005b7          	lui	a1,0xfff00
    16e8:	fff58593          	addi	a1,a1,-1 # ffefffff <_end+0xffef9ffb>
    16ec:	00b54633          	xor	a2,a0,a1
    16f0:	0ec6aa23          	sw	a2,244(a3)

000016f4 <inst_80>:
    16f4:	00010537          	lui	a0,0x10
    16f8:	ffff55b7          	lui	a1,0xffff5
    16fc:	afd58593          	addi	a1,a1,-1283 # ffff4afd <_end+0xfffeeaf9>
    1700:	00b54633          	xor	a2,a0,a1
    1704:	0ec6ac23          	sw	a2,248(a3)

00001708 <inst_81>:
    1708:	00100537          	lui	a0,0x100
    170c:	ff700593          	li	a1,-9
    1710:	00b54633          	xor	a2,a0,a1
    1714:	0ec6ae23          	sw	a2,252(a3)

00001718 <inst_82>:
    1718:	00200537          	lui	a0,0x200
    171c:	ffffc5b7          	lui	a1,0xffffc
    1720:	fff58593          	addi	a1,a1,-1 # ffffbfff <_end+0xffff5ffb>
    1724:	00b54633          	xor	a2,a0,a1
    1728:	10c6a023          	sw	a2,256(a3)

0000172c <inst_83>:
    172c:	00800537          	lui	a0,0x800
    1730:	666665b7          	lui	a1,0x66666
    1734:	66558593          	addi	a1,a1,1637 # 66666665 <_end+0x66660661>
    1738:	00b54633          	xor	a2,a0,a1
    173c:	10c6a223          	sw	a2,260(a3)

00001740 <inst_84>:
    1740:	01000537          	lui	a0,0x1000
    1744:	aaaab5b7          	lui	a1,0xaaaab
    1748:	aab58593          	addi	a1,a1,-1365 # aaaaaaab <_end+0xaaaa4aa7>
    174c:	00b54633          	xor	a2,a0,a1
    1750:	10c6a423          	sw	a2,264(a3)

00001754 <inst_85>:
    1754:	04000537          	lui	a0,0x4000
    1758:	004005b7          	lui	a1,0x400
    175c:	00b54633          	xor	a2,a0,a1
    1760:	10c6a623          	sw	a2,268(a3)

00001764 <inst_86>:
    1764:	08000537          	lui	a0,0x8000
    1768:	555555b7          	lui	a1,0x55555
    176c:	55458593          	addi	a1,a1,1364 # 55555554 <_end+0x5554f550>
    1770:	00b54633          	xor	a2,a0,a1
    1774:	10c6a823          	sw	a2,272(a3)

00001778 <inst_87>:
    1778:	20000537          	lui	a0,0x20000
    177c:	40000593          	li	a1,1024
    1780:	00b54633          	xor	a2,a0,a1
    1784:	10c6aa23          	sw	a2,276(a3)

00001788 <inst_88>:
    1788:	ffe00513          	li	a0,-2
    178c:	ffff55b7          	lui	a1,0xffff5
    1790:	afc58593          	addi	a1,a1,-1284 # ffff4afc <_end+0xfffeeaf8>
    1794:	00b54633          	xor	a2,a0,a1
    1798:	10c6ac23          	sw	a2,280(a3)

0000179c <inst_89>:
    179c:	ffd00513          	li	a0,-3
    17a0:	00400593          	li	a1,4
    17a4:	00b54633          	xor	a2,a0,a1
    17a8:	10c6ae23          	sw	a2,284(a3)

000017ac <inst_90>:
    17ac:	f7f00513          	li	a0,-129
    17b0:	0000b5b7          	lui	a1,0xb
    17b4:	50358593          	addi	a1,a1,1283 # b503 <_end+0x54ff>
    17b8:	00b54633          	xor	a2,a0,a1
    17bc:	12c6a023          	sw	a2,288(a3)

000017c0 <inst_91>:
    17c0:	eff00513          	li	a0,-257
    17c4:	000015b7          	lui	a1,0x1
    17c8:	00b54633          	xor	a2,a0,a1
    17cc:	12c6a223          	sw	a2,292(a3)

000017d0 <inst_92>:
    17d0:	dff00513          	li	a0,-513
    17d4:	00000593          	li	a1,0
    17d8:	00b54633          	xor	a2,a0,a1
    17dc:	12c6a423          	sw	a2,296(a3)

000017e0 <inst_93>:
    17e0:	bff00513          	li	a0,-1025
    17e4:	f00005b7          	lui	a1,0xf0000
    17e8:	fff58593          	addi	a1,a1,-1 # efffffff <_end+0xefff9ffb>
    17ec:	00b54633          	xor	a2,a0,a1
    17f0:	12c6a623          	sw	a2,300(a3)

000017f4 <inst_94>:
    17f4:	fffff537          	lui	a0,0xfffff
    17f8:	7ff50513          	addi	a0,a0,2047 # fffff7ff <_end+0xffff97fb>
    17fc:	020005b7          	lui	a1,0x2000
    1800:	00b54633          	xor	a2,a0,a1
    1804:	12c6a823          	sw	a2,304(a3)

00001808 <inst_95>:
    1808:	fffff537          	lui	a0,0xfffff
    180c:	fff50513          	addi	a0,a0,-1 # ffffefff <_end+0xffff8ffb>
    1810:	ffe00593          	li	a1,-2
    1814:	00b54633          	xor	a2,a0,a1
    1818:	12c6aa23          	sw	a2,308(a3)

0000181c <inst_96>:
    181c:	ffffe537          	lui	a0,0xffffe
    1820:	fff50513          	addi	a0,a0,-1 # ffffdfff <_end+0xffff7ffb>
    1824:	00400593          	li	a1,4
    1828:	00b54633          	xor	a2,a0,a1
    182c:	12c6ac23          	sw	a2,312(a3)

00001830 <inst_97>:
    1830:	ffff0537          	lui	a0,0xffff0
    1834:	fff50513          	addi	a0,a0,-1 # fffeffff <_end+0xfffe9ffb>
    1838:	00200593          	li	a1,2
    183c:	00b54633          	xor	a2,a0,a1
    1840:	12c6ae23          	sw	a2,316(a3)

00001844 <inst_98>:
    1844:	fffc0537          	lui	a0,0xfffc0
    1848:	fff50513          	addi	a0,a0,-1 # fffbffff <_end+0xfffb9ffb>
    184c:	fff805b7          	lui	a1,0xfff80
    1850:	fff58593          	addi	a1,a1,-1 # fff7ffff <_end+0xfff79ffb>
    1854:	00b54633          	xor	a2,a0,a1
    1858:	14c6a023          	sw	a2,320(a3)

0000185c <inst_99>:
    185c:	fff00537          	lui	a0,0xfff00
    1860:	fff50513          	addi	a0,a0,-1 # ffefffff <_end+0xffef9ffb>
    1864:	02000593          	li	a1,32
    1868:	00b54633          	xor	a2,a0,a1
    186c:	14c6a223          	sw	a2,324(a3)

00001870 <inst_100>:
    1870:	ffc00537          	lui	a0,0xffc00
    1874:	fff50513          	addi	a0,a0,-1 # ffbfffff <_end+0xffbf9ffb>
    1878:	ff600593          	li	a1,-10
    187c:	00b54633          	xor	a2,a0,a1
    1880:	14c6a423          	sw	a2,328(a3)

00001884 <inst_101>:
    1884:	f8000537          	lui	a0,0xf8000
    1888:	fff50513          	addi	a0,a0,-1 # f7ffffff <_end+0xf7ff9ffb>
    188c:	333335b7          	lui	a1,0x33333
    1890:	33358593          	addi	a1,a1,819 # 33333333 <_end+0x3332d32f>
    1894:	00b54633          	xor	a2,a0,a1
    1898:	14c6a623          	sw	a2,332(a3)

0000189c <inst_102>:
    189c:	e0000537          	lui	a0,0xe0000
    18a0:	fff50513          	addi	a0,a0,-1 # dfffffff <_end+0xdfff9ffb>
    18a4:	010005b7          	lui	a1,0x1000
    18a8:	00b54633          	xor	a2,a0,a1
    18ac:	14c6a823          	sw	a2,336(a3)

000018b0 <inst_103>:
    18b0:	c0000537          	lui	a0,0xc0000
    18b4:	fff50513          	addi	a0,a0,-1 # bfffffff <_end+0xbfff9ffb>
    18b8:	f00005b7          	lui	a1,0xf0000
    18bc:	fff58593          	addi	a1,a1,-1 # efffffff <_end+0xefff9ffb>
    18c0:	00b54633          	xor	a2,a0,a1
    18c4:	14c6aa23          	sw	a2,340(a3)

000018c8 <inst_104>:
    18c8:	55555537          	lui	a0,0x55555
    18cc:	55550513          	addi	a0,a0,1365 # 55555555 <_end+0x5554f551>
    18d0:	333335b7          	lui	a1,0x33333
    18d4:	33458593          	addi	a1,a1,820 # 33333334 <_end+0x3332d330>
    18d8:	00b54633          	xor	a2,a0,a1
    18dc:	14c6ac23          	sw	a2,344(a3)

000018e0 <inst_105>:
    18e0:	00300513          	li	a0,3
    18e4:	00300593          	li	a1,3
    18e8:	00b54633          	xor	a2,a0,a1
    18ec:	14c6ae23          	sw	a2,348(a3)

000018f0 <inst_106>:
    18f0:	00300513          	li	a0,3
    18f4:	555555b7          	lui	a1,0x55555
    18f8:	55558593          	addi	a1,a1,1365 # 55555555 <_end+0x5554f551>
    18fc:	00b54633          	xor	a2,a0,a1
    1900:	16c6a023          	sw	a2,352(a3)

00001904 <inst_107>:
    1904:	00300513          	li	a0,3
    1908:	aaaab5b7          	lui	a1,0xaaaab
    190c:	aaa58593          	addi	a1,a1,-1366 # aaaaaaaa <_end+0xaaaa4aa6>
    1910:	00b54633          	xor	a2,a0,a1
    1914:	16c6a223          	sw	a2,356(a3)

00001918 <inst_108>:
    1918:	00300513          	li	a0,3
    191c:	00500593          	li	a1,5
    1920:	00b54633          	xor	a2,a0,a1
    1924:	16c6a423          	sw	a2,360(a3)

00001928 <inst_109>:
    1928:	00300513          	li	a0,3
    192c:	333335b7          	lui	a1,0x33333
    1930:	33358593          	addi	a1,a1,819 # 33333333 <_end+0x3332d32f>
    1934:	00b54633          	xor	a2,a0,a1
    1938:	16c6a623          	sw	a2,364(a3)

0000193c <inst_110>:
    193c:	00300513          	li	a0,3
    1940:	666665b7          	lui	a1,0x66666
    1944:	66658593          	addi	a1,a1,1638 # 66666666 <_end+0x66660662>
    1948:	00b54633          	xor	a2,a0,a1
    194c:	16c6a823          	sw	a2,368(a3)

00001950 <inst_111>:
    1950:	00300513          	li	a0,3
    1954:	ffff55b7          	lui	a1,0xffff5
    1958:	afc58593          	addi	a1,a1,-1284 # ffff4afc <_end+0xfffeeaf8>
    195c:	00b54633          	xor	a2,a0,a1
    1960:	16c6aa23          	sw	a2,372(a3)

00001964 <inst_112>:
    1964:	00300513          	li	a0,3
    1968:	0000b5b7          	lui	a1,0xb
    196c:	50458593          	addi	a1,a1,1284 # b504 <_end+0x5500>
    1970:	00b54633          	xor	a2,a0,a1
    1974:	16c6ac23          	sw	a2,376(a3)

00001978 <inst_113>:
    1978:	00300513          	li	a0,3
    197c:	00200593          	li	a1,2
    1980:	00b54633          	xor	a2,a0,a1
    1984:	16c6ae23          	sw	a2,380(a3)

00001988 <inst_114>:
    1988:	00300513          	li	a0,3
    198c:	555555b7          	lui	a1,0x55555
    1990:	55458593          	addi	a1,a1,1364 # 55555554 <_end+0x5554f550>
    1994:	00b54633          	xor	a2,a0,a1
    1998:	18c6a023          	sw	a2,384(a3)

0000199c <inst_115>:
    199c:	00300513          	li	a0,3
    19a0:	00000593          	li	a1,0
    19a4:	00b54633          	xor	a2,a0,a1
    19a8:	18c6a223          	sw	a2,388(a3)

000019ac <inst_116>:
    19ac:	00300513          	li	a0,3
    19b0:	00400593          	li	a1,4
    19b4:	00b54633          	xor	a2,a0,a1
    19b8:	18c6a423          	sw	a2,392(a3)

000019bc <inst_117>:
    19bc:	00300513          	li	a0,3
    19c0:	333335b7          	lui	a1,0x33333
    19c4:	33258593          	addi	a1,a1,818 # 33333332 <_end+0x3332d32e>
    19c8:	00b54633          	xor	a2,a0,a1
    19cc:	18c6a623          	sw	a2,396(a3)

000019d0 <inst_118>:
    19d0:	00300513          	li	a0,3
    19d4:	666665b7          	lui	a1,0x66666
    19d8:	66558593          	addi	a1,a1,1637 # 66666665 <_end+0x66660661>
    19dc:	00b54633          	xor	a2,a0,a1
    19e0:	18c6a823          	sw	a2,400(a3)

000019e4 <inst_119>:
    19e4:	00300513          	li	a0,3
    19e8:	0000b5b7          	lui	a1,0xb
    19ec:	50358593          	addi	a1,a1,1283 # b503 <_end+0x54ff>
    19f0:	00b54633          	xor	a2,a0,a1
    19f4:	18c6aa23          	sw	a2,404(a3)

000019f8 <inst_120>:
    19f8:	00300513          	li	a0,3
    19fc:	555555b7          	lui	a1,0x55555
    1a00:	55658593          	addi	a1,a1,1366 # 55555556 <_end+0x5554f552>
    1a04:	00b54633          	xor	a2,a0,a1
    1a08:	18c6ac23          	sw	a2,408(a3)

00001a0c <inst_121>:
    1a0c:	00300513          	li	a0,3
    1a10:	aaaab5b7          	lui	a1,0xaaaab
    1a14:	aab58593          	addi	a1,a1,-1365 # aaaaaaab <_end+0xaaaa4aa7>
    1a18:	00b54633          	xor	a2,a0,a1
    1a1c:	18c6ae23          	sw	a2,412(a3)

00001a20 <inst_122>:
    1a20:	00300513          	li	a0,3
    1a24:	00600593          	li	a1,6
    1a28:	00b54633          	xor	a2,a0,a1
    1a2c:	1ac6a023          	sw	a2,416(a3)

00001a30 <inst_123>:
    1a30:	00300513          	li	a0,3
    1a34:	333335b7          	lui	a1,0x33333
    1a38:	33458593          	addi	a1,a1,820 # 33333334 <_end+0x3332d330>
    1a3c:	00b54633          	xor	a2,a0,a1
    1a40:	1ac6a223          	sw	a2,420(a3)

00001a44 <inst_124>:
    1a44:	00300513          	li	a0,3
    1a48:	666665b7          	lui	a1,0x66666
    1a4c:	66758593          	addi	a1,a1,1639 # 66666667 <_end+0x66660663>
    1a50:	00b54633          	xor	a2,a0,a1
    1a54:	1ac6a423          	sw	a2,424(a3)

00001a58 <inst_125>:
    1a58:	00300513          	li	a0,3
    1a5c:	ffff55b7          	lui	a1,0xffff5
    1a60:	afd58593          	addi	a1,a1,-1283 # ffff4afd <_end+0xfffeeaf9>
    1a64:	00b54633          	xor	a2,a0,a1
    1a68:	1ac6a623          	sw	a2,428(a3)

00001a6c <inst_126>:
    1a6c:	00300513          	li	a0,3
    1a70:	0000b5b7          	lui	a1,0xb
    1a74:	50558593          	addi	a1,a1,1285 # b505 <_end+0x5501>
    1a78:	00b54633          	xor	a2,a0,a1
    1a7c:	1ac6a823          	sw	a2,432(a3)

00001a80 <inst_127>:
    1a80:	55555537          	lui	a0,0x55555
    1a84:	55550513          	addi	a0,a0,1365 # 55555555 <_end+0x5554f551>
    1a88:	00300593          	li	a1,3
    1a8c:	00b54633          	xor	a2,a0,a1
    1a90:	1ac6aa23          	sw	a2,436(a3)

00001a94 <inst_128>:
    1a94:	55555537          	lui	a0,0x55555
    1a98:	55550513          	addi	a0,a0,1365 # 55555555 <_end+0x5554f551>
    1a9c:	555555b7          	lui	a1,0x55555
    1aa0:	55558593          	addi	a1,a1,1365 # 55555555 <_end+0x5554f551>
    1aa4:	00b54633          	xor	a2,a0,a1
    1aa8:	1ac6ac23          	sw	a2,440(a3)

00001aac <inst_129>:
    1aac:	55555537          	lui	a0,0x55555
    1ab0:	55550513          	addi	a0,a0,1365 # 55555555 <_end+0x5554f551>
    1ab4:	aaaab5b7          	lui	a1,0xaaaab
    1ab8:	aaa58593          	addi	a1,a1,-1366 # aaaaaaaa <_end+0xaaaa4aa6>
    1abc:	00b54633          	xor	a2,a0,a1
    1ac0:	1ac6ae23          	sw	a2,444(a3)

00001ac4 <inst_130>:
    1ac4:	55555537          	lui	a0,0x55555
    1ac8:	55550513          	addi	a0,a0,1365 # 55555555 <_end+0x5554f551>
    1acc:	00500593          	li	a1,5
    1ad0:	00b54633          	xor	a2,a0,a1
    1ad4:	1cc6a023          	sw	a2,448(a3)

00001ad8 <inst_131>:
    1ad8:	55555537          	lui	a0,0x55555
    1adc:	55550513          	addi	a0,a0,1365 # 55555555 <_end+0x5554f551>
    1ae0:	333335b7          	lui	a1,0x33333
    1ae4:	33358593          	addi	a1,a1,819 # 33333333 <_end+0x3332d32f>
    1ae8:	00b54633          	xor	a2,a0,a1
    1aec:	1cc6a223          	sw	a2,452(a3)

00001af0 <inst_132>:
    1af0:	55555537          	lui	a0,0x55555
    1af4:	55550513          	addi	a0,a0,1365 # 55555555 <_end+0x5554f551>
    1af8:	666665b7          	lui	a1,0x66666
    1afc:	66658593          	addi	a1,a1,1638 # 66666666 <_end+0x66660662>
    1b00:	00b54633          	xor	a2,a0,a1
    1b04:	1cc6a423          	sw	a2,456(a3)

00001b08 <inst_133>:
    1b08:	55555537          	lui	a0,0x55555
    1b0c:	55550513          	addi	a0,a0,1365 # 55555555 <_end+0x5554f551>
    1b10:	ffff55b7          	lui	a1,0xffff5
    1b14:	afc58593          	addi	a1,a1,-1284 # ffff4afc <_end+0xfffeeaf8>
    1b18:	00b54633          	xor	a2,a0,a1
    1b1c:	1cc6a623          	sw	a2,460(a3)

00001b20 <inst_134>:
    1b20:	55555537          	lui	a0,0x55555
    1b24:	55550513          	addi	a0,a0,1365 # 55555555 <_end+0x5554f551>
    1b28:	0000b5b7          	lui	a1,0xb
    1b2c:	50458593          	addi	a1,a1,1284 # b504 <_end+0x5500>
    1b30:	00b54633          	xor	a2,a0,a1
    1b34:	1cc6a823          	sw	a2,464(a3)

00001b38 <inst_135>:
    1b38:	55555537          	lui	a0,0x55555
    1b3c:	55550513          	addi	a0,a0,1365 # 55555555 <_end+0x5554f551>
    1b40:	00200593          	li	a1,2
    1b44:	00b54633          	xor	a2,a0,a1
    1b48:	1cc6aa23          	sw	a2,468(a3)

00001b4c <inst_136>:
    1b4c:	55555537          	lui	a0,0x55555
    1b50:	55550513          	addi	a0,a0,1365 # 55555555 <_end+0x5554f551>
    1b54:	555555b7          	lui	a1,0x55555
    1b58:	55458593          	addi	a1,a1,1364 # 55555554 <_end+0x5554f550>
    1b5c:	00b54633          	xor	a2,a0,a1
    1b60:	1cc6ac23          	sw	a2,472(a3)

00001b64 <inst_137>:
    1b64:	55555537          	lui	a0,0x55555
    1b68:	55550513          	addi	a0,a0,1365 # 55555555 <_end+0x5554f551>
    1b6c:	00000593          	li	a1,0
    1b70:	00b54633          	xor	a2,a0,a1
    1b74:	1cc6ae23          	sw	a2,476(a3)

00001b78 <inst_138>:
    1b78:	55555537          	lui	a0,0x55555
    1b7c:	55550513          	addi	a0,a0,1365 # 55555555 <_end+0x5554f551>
    1b80:	00400593          	li	a1,4
    1b84:	00b54633          	xor	a2,a0,a1
    1b88:	1ec6a023          	sw	a2,480(a3)

00001b8c <inst_139>:
    1b8c:	55555537          	lui	a0,0x55555
    1b90:	55550513          	addi	a0,a0,1365 # 55555555 <_end+0x5554f551>
    1b94:	333335b7          	lui	a1,0x33333
    1b98:	33258593          	addi	a1,a1,818 # 33333332 <_end+0x3332d32e>
    1b9c:	00b54633          	xor	a2,a0,a1
    1ba0:	1ec6a223          	sw	a2,484(a3)

00001ba4 <inst_140>:
    1ba4:	55555537          	lui	a0,0x55555
    1ba8:	55550513          	addi	a0,a0,1365 # 55555555 <_end+0x5554f551>
    1bac:	666665b7          	lui	a1,0x66666
    1bb0:	66558593          	addi	a1,a1,1637 # 66666665 <_end+0x66660661>
    1bb4:	00b54633          	xor	a2,a0,a1
    1bb8:	1ec6a423          	sw	a2,488(a3)

00001bbc <inst_141>:
    1bbc:	55555537          	lui	a0,0x55555
    1bc0:	55550513          	addi	a0,a0,1365 # 55555555 <_end+0x5554f551>
    1bc4:	0000b5b7          	lui	a1,0xb
    1bc8:	50358593          	addi	a1,a1,1283 # b503 <_end+0x54ff>
    1bcc:	00b54633          	xor	a2,a0,a1
    1bd0:	1ec6a623          	sw	a2,492(a3)

00001bd4 <inst_142>:
    1bd4:	55555537          	lui	a0,0x55555
    1bd8:	55550513          	addi	a0,a0,1365 # 55555555 <_end+0x5554f551>
    1bdc:	555555b7          	lui	a1,0x55555
    1be0:	55658593          	addi	a1,a1,1366 # 55555556 <_end+0x5554f552>
    1be4:	00b54633          	xor	a2,a0,a1
    1be8:	1ec6a823          	sw	a2,496(a3)

00001bec <inst_143>:
    1bec:	55555537          	lui	a0,0x55555
    1bf0:	55550513          	addi	a0,a0,1365 # 55555555 <_end+0x5554f551>
    1bf4:	aaaab5b7          	lui	a1,0xaaaab
    1bf8:	aab58593          	addi	a1,a1,-1365 # aaaaaaab <_end+0xaaaa4aa7>
    1bfc:	00b54633          	xor	a2,a0,a1
    1c00:	1ec6aa23          	sw	a2,500(a3)

00001c04 <inst_144>:
    1c04:	55555537          	lui	a0,0x55555
    1c08:	55550513          	addi	a0,a0,1365 # 55555555 <_end+0x5554f551>
    1c0c:	00600593          	li	a1,6
    1c10:	00b54633          	xor	a2,a0,a1
    1c14:	1ec6ac23          	sw	a2,504(a3)

00001c18 <inst_145>:
    1c18:	55555537          	lui	a0,0x55555
    1c1c:	55550513          	addi	a0,a0,1365 # 55555555 <_end+0x5554f551>
    1c20:	666665b7          	lui	a1,0x66666
    1c24:	66758593          	addi	a1,a1,1639 # 66666667 <_end+0x66660663>
    1c28:	00b54633          	xor	a2,a0,a1
    1c2c:	1ec6ae23          	sw	a2,508(a3)

00001c30 <inst_146>:
    1c30:	55555537          	lui	a0,0x55555
    1c34:	55550513          	addi	a0,a0,1365 # 55555555 <_end+0x5554f551>
    1c38:	ffff55b7          	lui	a1,0xffff5
    1c3c:	afd58593          	addi	a1,a1,-1283 # ffff4afd <_end+0xfffeeaf9>
    1c40:	00b54633          	xor	a2,a0,a1
    1c44:	20c6a023          	sw	a2,512(a3)

00001c48 <inst_147>:
    1c48:	55555537          	lui	a0,0x55555
    1c4c:	55550513          	addi	a0,a0,1365 # 55555555 <_end+0x5554f551>
    1c50:	0000b5b7          	lui	a1,0xb
    1c54:	50558593          	addi	a1,a1,1285 # b505 <_end+0x5501>
    1c58:	00b54633          	xor	a2,a0,a1
    1c5c:	20c6a223          	sw	a2,516(a3)

00001c60 <inst_148>:
    1c60:	aaaab537          	lui	a0,0xaaaab
    1c64:	aaa50513          	addi	a0,a0,-1366 # aaaaaaaa <_end+0xaaaa4aa6>
    1c68:	00300593          	li	a1,3
    1c6c:	00b54633          	xor	a2,a0,a1
    1c70:	20c6a423          	sw	a2,520(a3)

00001c74 <inst_149>:
    1c74:	aaaab537          	lui	a0,0xaaaab
    1c78:	aaa50513          	addi	a0,a0,-1366 # aaaaaaaa <_end+0xaaaa4aa6>
    1c7c:	555555b7          	lui	a1,0x55555
    1c80:	55558593          	addi	a1,a1,1365 # 55555555 <_end+0x5554f551>
    1c84:	00b54633          	xor	a2,a0,a1
    1c88:	20c6a623          	sw	a2,524(a3)

00001c8c <inst_150>:
    1c8c:	aaaab537          	lui	a0,0xaaaab
    1c90:	aaa50513          	addi	a0,a0,-1366 # aaaaaaaa <_end+0xaaaa4aa6>
    1c94:	aaaab5b7          	lui	a1,0xaaaab
    1c98:	aaa58593          	addi	a1,a1,-1366 # aaaaaaaa <_end+0xaaaa4aa6>
    1c9c:	00b54633          	xor	a2,a0,a1
    1ca0:	20c6a823          	sw	a2,528(a3)

00001ca4 <inst_151>:
    1ca4:	aaaab537          	lui	a0,0xaaaab
    1ca8:	aaa50513          	addi	a0,a0,-1366 # aaaaaaaa <_end+0xaaaa4aa6>
    1cac:	00500593          	li	a1,5
    1cb0:	00b54633          	xor	a2,a0,a1
    1cb4:	20c6aa23          	sw	a2,532(a3)

00001cb8 <inst_152>:
    1cb8:	aaaab537          	lui	a0,0xaaaab
    1cbc:	aaa50513          	addi	a0,a0,-1366 # aaaaaaaa <_end+0xaaaa4aa6>
    1cc0:	333335b7          	lui	a1,0x33333
    1cc4:	33358593          	addi	a1,a1,819 # 33333333 <_end+0x3332d32f>
    1cc8:	00b54633          	xor	a2,a0,a1
    1ccc:	20c6ac23          	sw	a2,536(a3)

00001cd0 <inst_153>:
    1cd0:	aaaab537          	lui	a0,0xaaaab
    1cd4:	aaa50513          	addi	a0,a0,-1366 # aaaaaaaa <_end+0xaaaa4aa6>
    1cd8:	666665b7          	lui	a1,0x66666
    1cdc:	66658593          	addi	a1,a1,1638 # 66666666 <_end+0x66660662>
    1ce0:	00b54633          	xor	a2,a0,a1
    1ce4:	20c6ae23          	sw	a2,540(a3)

00001ce8 <inst_154>:
    1ce8:	aaaab537          	lui	a0,0xaaaab
    1cec:	aaa50513          	addi	a0,a0,-1366 # aaaaaaaa <_end+0xaaaa4aa6>
    1cf0:	ffff55b7          	lui	a1,0xffff5
    1cf4:	afc58593          	addi	a1,a1,-1284 # ffff4afc <_end+0xfffeeaf8>
    1cf8:	00b54633          	xor	a2,a0,a1
    1cfc:	22c6a023          	sw	a2,544(a3)

00001d00 <inst_155>:
    1d00:	aaaab537          	lui	a0,0xaaaab
    1d04:	aaa50513          	addi	a0,a0,-1366 # aaaaaaaa <_end+0xaaaa4aa6>
    1d08:	0000b5b7          	lui	a1,0xb
    1d0c:	50458593          	addi	a1,a1,1284 # b504 <_end+0x5500>
    1d10:	00b54633          	xor	a2,a0,a1
    1d14:	22c6a223          	sw	a2,548(a3)

00001d18 <inst_156>:
    1d18:	aaaab537          	lui	a0,0xaaaab
    1d1c:	aaa50513          	addi	a0,a0,-1366 # aaaaaaaa <_end+0xaaaa4aa6>
    1d20:	00200593          	li	a1,2
    1d24:	00b54633          	xor	a2,a0,a1
    1d28:	22c6a423          	sw	a2,552(a3)

00001d2c <inst_157>:
    1d2c:	aaaab537          	lui	a0,0xaaaab
    1d30:	aaa50513          	addi	a0,a0,-1366 # aaaaaaaa <_end+0xaaaa4aa6>
    1d34:	555555b7          	lui	a1,0x55555
    1d38:	55458593          	addi	a1,a1,1364 # 55555554 <_end+0x5554f550>
    1d3c:	00b54633          	xor	a2,a0,a1
    1d40:	22c6a623          	sw	a2,556(a3)

00001d44 <inst_158>:
    1d44:	aaaab537          	lui	a0,0xaaaab
    1d48:	aaa50513          	addi	a0,a0,-1366 # aaaaaaaa <_end+0xaaaa4aa6>
    1d4c:	00000593          	li	a1,0
    1d50:	00b54633          	xor	a2,a0,a1
    1d54:	22c6a823          	sw	a2,560(a3)

00001d58 <inst_159>:
    1d58:	aaaab537          	lui	a0,0xaaaab
    1d5c:	aaa50513          	addi	a0,a0,-1366 # aaaaaaaa <_end+0xaaaa4aa6>
    1d60:	00400593          	li	a1,4
    1d64:	00b54633          	xor	a2,a0,a1
    1d68:	22c6aa23          	sw	a2,564(a3)

00001d6c <inst_160>:
    1d6c:	aaaab537          	lui	a0,0xaaaab
    1d70:	aaa50513          	addi	a0,a0,-1366 # aaaaaaaa <_end+0xaaaa4aa6>
    1d74:	333335b7          	lui	a1,0x33333
    1d78:	33258593          	addi	a1,a1,818 # 33333332 <_end+0x3332d32e>
    1d7c:	00b54633          	xor	a2,a0,a1
    1d80:	22c6ac23          	sw	a2,568(a3)

00001d84 <inst_161>:
    1d84:	aaaab537          	lui	a0,0xaaaab
    1d88:	aaa50513          	addi	a0,a0,-1366 # aaaaaaaa <_end+0xaaaa4aa6>
    1d8c:	666665b7          	lui	a1,0x66666
    1d90:	66558593          	addi	a1,a1,1637 # 66666665 <_end+0x66660661>
    1d94:	00b54633          	xor	a2,a0,a1
    1d98:	22c6ae23          	sw	a2,572(a3)

00001d9c <inst_162>:
    1d9c:	aaaab537          	lui	a0,0xaaaab
    1da0:	aaa50513          	addi	a0,a0,-1366 # aaaaaaaa <_end+0xaaaa4aa6>
    1da4:	0000b5b7          	lui	a1,0xb
    1da8:	50358593          	addi	a1,a1,1283 # b503 <_end+0x54ff>
    1dac:	00b54633          	xor	a2,a0,a1
    1db0:	24c6a023          	sw	a2,576(a3)

00001db4 <inst_163>:
    1db4:	aaaab537          	lui	a0,0xaaaab
    1db8:	aaa50513          	addi	a0,a0,-1366 # aaaaaaaa <_end+0xaaaa4aa6>
    1dbc:	555555b7          	lui	a1,0x55555
    1dc0:	55658593          	addi	a1,a1,1366 # 55555556 <_end+0x5554f552>
    1dc4:	00b54633          	xor	a2,a0,a1
    1dc8:	24c6a223          	sw	a2,580(a3)

00001dcc <inst_164>:
    1dcc:	aaaab537          	lui	a0,0xaaaab
    1dd0:	aaa50513          	addi	a0,a0,-1366 # aaaaaaaa <_end+0xaaaa4aa6>
    1dd4:	aaaab5b7          	lui	a1,0xaaaab
    1dd8:	aab58593          	addi	a1,a1,-1365 # aaaaaaab <_end+0xaaaa4aa7>
    1ddc:	00b54633          	xor	a2,a0,a1
    1de0:	24c6a423          	sw	a2,584(a3)

00001de4 <inst_165>:
    1de4:	aaaab537          	lui	a0,0xaaaab
    1de8:	aaa50513          	addi	a0,a0,-1366 # aaaaaaaa <_end+0xaaaa4aa6>
    1dec:	00600593          	li	a1,6
    1df0:	00b54633          	xor	a2,a0,a1
    1df4:	24c6a623          	sw	a2,588(a3)

00001df8 <inst_166>:
    1df8:	aaaab537          	lui	a0,0xaaaab
    1dfc:	aaa50513          	addi	a0,a0,-1366 # aaaaaaaa <_end+0xaaaa4aa6>
    1e00:	333335b7          	lui	a1,0x33333
    1e04:	33458593          	addi	a1,a1,820 # 33333334 <_end+0x3332d330>
    1e08:	00b54633          	xor	a2,a0,a1
    1e0c:	24c6a823          	sw	a2,592(a3)

00001e10 <inst_167>:
    1e10:	aaaab537          	lui	a0,0xaaaab
    1e14:	aaa50513          	addi	a0,a0,-1366 # aaaaaaaa <_end+0xaaaa4aa6>
    1e18:	666665b7          	lui	a1,0x66666
    1e1c:	66758593          	addi	a1,a1,1639 # 66666667 <_end+0x66660663>
    1e20:	00b54633          	xor	a2,a0,a1
    1e24:	24c6aa23          	sw	a2,596(a3)

00001e28 <inst_168>:
    1e28:	aaaab537          	lui	a0,0xaaaab
    1e2c:	aaa50513          	addi	a0,a0,-1366 # aaaaaaaa <_end+0xaaaa4aa6>
    1e30:	ffff55b7          	lui	a1,0xffff5
    1e34:	afd58593          	addi	a1,a1,-1283 # ffff4afd <_end+0xfffeeaf9>
    1e38:	00b54633          	xor	a2,a0,a1
    1e3c:	24c6ac23          	sw	a2,600(a3)

00001e40 <inst_169>:
    1e40:	aaaab537          	lui	a0,0xaaaab
    1e44:	aaa50513          	addi	a0,a0,-1366 # aaaaaaaa <_end+0xaaaa4aa6>
    1e48:	0000b5b7          	lui	a1,0xb
    1e4c:	50558593          	addi	a1,a1,1285 # b505 <_end+0x5501>
    1e50:	00b54633          	xor	a2,a0,a1
    1e54:	24c6ae23          	sw	a2,604(a3)

00001e58 <inst_170>:
    1e58:	00500513          	li	a0,5
    1e5c:	00300593          	li	a1,3
    1e60:	00b54633          	xor	a2,a0,a1
    1e64:	26c6a023          	sw	a2,608(a3)

00001e68 <inst_171>:
    1e68:	00500513          	li	a0,5
    1e6c:	555555b7          	lui	a1,0x55555
    1e70:	55558593          	addi	a1,a1,1365 # 55555555 <_end+0x5554f551>
    1e74:	00b54633          	xor	a2,a0,a1
    1e78:	26c6a223          	sw	a2,612(a3)

00001e7c <inst_172>:
    1e7c:	00500513          	li	a0,5
    1e80:	aaaab5b7          	lui	a1,0xaaaab
    1e84:	aaa58593          	addi	a1,a1,-1366 # aaaaaaaa <_end+0xaaaa4aa6>
    1e88:	00b54633          	xor	a2,a0,a1
    1e8c:	26c6a423          	sw	a2,616(a3)

00001e90 <inst_173>:
    1e90:	00500513          	li	a0,5
    1e94:	00500593          	li	a1,5
    1e98:	00b54633          	xor	a2,a0,a1
    1e9c:	26c6a623          	sw	a2,620(a3)

00001ea0 <inst_174>:
    1ea0:	00500513          	li	a0,5
    1ea4:	333335b7          	lui	a1,0x33333
    1ea8:	33358593          	addi	a1,a1,819 # 33333333 <_end+0x3332d32f>
    1eac:	00b54633          	xor	a2,a0,a1
    1eb0:	26c6a823          	sw	a2,624(a3)

00001eb4 <inst_175>:
    1eb4:	00500513          	li	a0,5
    1eb8:	666665b7          	lui	a1,0x66666
    1ebc:	66658593          	addi	a1,a1,1638 # 66666666 <_end+0x66660662>
    1ec0:	00b54633          	xor	a2,a0,a1
    1ec4:	26c6aa23          	sw	a2,628(a3)

00001ec8 <inst_176>:
    1ec8:	00500513          	li	a0,5
    1ecc:	ffff55b7          	lui	a1,0xffff5
    1ed0:	afc58593          	addi	a1,a1,-1284 # ffff4afc <_end+0xfffeeaf8>
    1ed4:	00b54633          	xor	a2,a0,a1
    1ed8:	26c6ac23          	sw	a2,632(a3)

00001edc <inst_177>:
    1edc:	00500513          	li	a0,5
    1ee0:	0000b5b7          	lui	a1,0xb
    1ee4:	50458593          	addi	a1,a1,1284 # b504 <_end+0x5500>
    1ee8:	00b54633          	xor	a2,a0,a1
    1eec:	26c6ae23          	sw	a2,636(a3)

00001ef0 <inst_178>:
    1ef0:	00500513          	li	a0,5
    1ef4:	00200593          	li	a1,2
    1ef8:	00b54633          	xor	a2,a0,a1
    1efc:	28c6a023          	sw	a2,640(a3)

00001f00 <inst_179>:
    1f00:	00500513          	li	a0,5
    1f04:	555555b7          	lui	a1,0x55555
    1f08:	55458593          	addi	a1,a1,1364 # 55555554 <_end+0x5554f550>
    1f0c:	00b54633          	xor	a2,a0,a1
    1f10:	28c6a223          	sw	a2,644(a3)

00001f14 <inst_180>:
    1f14:	00500513          	li	a0,5
    1f18:	00000593          	li	a1,0
    1f1c:	00b54633          	xor	a2,a0,a1
    1f20:	28c6a423          	sw	a2,648(a3)

00001f24 <inst_181>:
    1f24:	00500513          	li	a0,5
    1f28:	00400593          	li	a1,4
    1f2c:	00b54633          	xor	a2,a0,a1
    1f30:	28c6a623          	sw	a2,652(a3)

00001f34 <inst_182>:
    1f34:	00500513          	li	a0,5
    1f38:	333335b7          	lui	a1,0x33333
    1f3c:	33258593          	addi	a1,a1,818 # 33333332 <_end+0x3332d32e>
    1f40:	00b54633          	xor	a2,a0,a1
    1f44:	28c6a823          	sw	a2,656(a3)

00001f48 <inst_183>:
    1f48:	00500513          	li	a0,5
    1f4c:	666665b7          	lui	a1,0x66666
    1f50:	66558593          	addi	a1,a1,1637 # 66666665 <_end+0x66660661>
    1f54:	00b54633          	xor	a2,a0,a1
    1f58:	28c6aa23          	sw	a2,660(a3)

00001f5c <inst_184>:
    1f5c:	00500513          	li	a0,5
    1f60:	0000b5b7          	lui	a1,0xb
    1f64:	50358593          	addi	a1,a1,1283 # b503 <_end+0x54ff>
    1f68:	00b54633          	xor	a2,a0,a1
    1f6c:	28c6ac23          	sw	a2,664(a3)

00001f70 <inst_185>:
    1f70:	00500513          	li	a0,5
    1f74:	555555b7          	lui	a1,0x55555
    1f78:	55658593          	addi	a1,a1,1366 # 55555556 <_end+0x5554f552>
    1f7c:	00b54633          	xor	a2,a0,a1
    1f80:	28c6ae23          	sw	a2,668(a3)

00001f84 <inst_186>:
    1f84:	00500513          	li	a0,5
    1f88:	aaaab5b7          	lui	a1,0xaaaab
    1f8c:	aab58593          	addi	a1,a1,-1365 # aaaaaaab <_end+0xaaaa4aa7>
    1f90:	00b54633          	xor	a2,a0,a1
    1f94:	2ac6a023          	sw	a2,672(a3)

00001f98 <inst_187>:
    1f98:	00500513          	li	a0,5
    1f9c:	00600593          	li	a1,6
    1fa0:	00b54633          	xor	a2,a0,a1
    1fa4:	2ac6a223          	sw	a2,676(a3)

00001fa8 <inst_188>:
    1fa8:	00500513          	li	a0,5
    1fac:	333335b7          	lui	a1,0x33333
    1fb0:	33458593          	addi	a1,a1,820 # 33333334 <_end+0x3332d330>
    1fb4:	00b54633          	xor	a2,a0,a1
    1fb8:	2ac6a423          	sw	a2,680(a3)

00001fbc <inst_189>:
    1fbc:	00500513          	li	a0,5
    1fc0:	666665b7          	lui	a1,0x66666
    1fc4:	66758593          	addi	a1,a1,1639 # 66666667 <_end+0x66660663>
    1fc8:	00b54633          	xor	a2,a0,a1
    1fcc:	2ac6a623          	sw	a2,684(a3)

00001fd0 <inst_190>:
    1fd0:	00500513          	li	a0,5
    1fd4:	ffff55b7          	lui	a1,0xffff5
    1fd8:	afd58593          	addi	a1,a1,-1283 # ffff4afd <_end+0xfffeeaf9>
    1fdc:	00b54633          	xor	a2,a0,a1
    1fe0:	2ac6a823          	sw	a2,688(a3)

00001fe4 <inst_191>:
    1fe4:	00500513          	li	a0,5
    1fe8:	0000b5b7          	lui	a1,0xb
    1fec:	50558593          	addi	a1,a1,1285 # b505 <_end+0x5501>
    1ff0:	00b54633          	xor	a2,a0,a1
    1ff4:	2ac6aa23          	sw	a2,692(a3)

00001ff8 <inst_192>:
    1ff8:	33333537          	lui	a0,0x33333
    1ffc:	33350513          	addi	a0,a0,819 # 33333333 <_end+0x3332d32f>
    2000:	00300593          	li	a1,3
    2004:	00b54633          	xor	a2,a0,a1
    2008:	2ac6ac23          	sw	a2,696(a3)

0000200c <inst_193>:
    200c:	33333537          	lui	a0,0x33333
    2010:	33350513          	addi	a0,a0,819 # 33333333 <_end+0x3332d32f>
    2014:	555555b7          	lui	a1,0x55555
    2018:	55558593          	addi	a1,a1,1365 # 55555555 <_end+0x5554f551>
    201c:	00b54633          	xor	a2,a0,a1
    2020:	2ac6ae23          	sw	a2,700(a3)

00002024 <inst_194>:
    2024:	33333537          	lui	a0,0x33333
    2028:	33350513          	addi	a0,a0,819 # 33333333 <_end+0x3332d32f>
    202c:	aaaab5b7          	lui	a1,0xaaaab
    2030:	aaa58593          	addi	a1,a1,-1366 # aaaaaaaa <_end+0xaaaa4aa6>
    2034:	00b54633          	xor	a2,a0,a1
    2038:	2cc6a023          	sw	a2,704(a3)

0000203c <inst_195>:
    203c:	33333537          	lui	a0,0x33333
    2040:	33350513          	addi	a0,a0,819 # 33333333 <_end+0x3332d32f>
    2044:	00500593          	li	a1,5
    2048:	00b54633          	xor	a2,a0,a1
    204c:	2cc6a223          	sw	a2,708(a3)

00002050 <inst_196>:
    2050:	33333537          	lui	a0,0x33333
    2054:	33350513          	addi	a0,a0,819 # 33333333 <_end+0x3332d32f>
    2058:	333335b7          	lui	a1,0x33333
    205c:	33358593          	addi	a1,a1,819 # 33333333 <_end+0x3332d32f>
    2060:	00b54633          	xor	a2,a0,a1
    2064:	2cc6a423          	sw	a2,712(a3)

00002068 <inst_197>:
    2068:	33333537          	lui	a0,0x33333
    206c:	33350513          	addi	a0,a0,819 # 33333333 <_end+0x3332d32f>
    2070:	666665b7          	lui	a1,0x66666
    2074:	66658593          	addi	a1,a1,1638 # 66666666 <_end+0x66660662>
    2078:	00b54633          	xor	a2,a0,a1
    207c:	2cc6a623          	sw	a2,716(a3)

00002080 <inst_198>:
    2080:	33333537          	lui	a0,0x33333
    2084:	33350513          	addi	a0,a0,819 # 33333333 <_end+0x3332d32f>
    2088:	ffff55b7          	lui	a1,0xffff5
    208c:	afc58593          	addi	a1,a1,-1284 # ffff4afc <_end+0xfffeeaf8>
    2090:	00b54633          	xor	a2,a0,a1
    2094:	2cc6a823          	sw	a2,720(a3)

00002098 <inst_199>:
    2098:	33333537          	lui	a0,0x33333
    209c:	33350513          	addi	a0,a0,819 # 33333333 <_end+0x3332d32f>
    20a0:	0000b5b7          	lui	a1,0xb
    20a4:	50458593          	addi	a1,a1,1284 # b504 <_end+0x5500>
    20a8:	00b54633          	xor	a2,a0,a1
    20ac:	2cc6aa23          	sw	a2,724(a3)

000020b0 <inst_200>:
    20b0:	33333537          	lui	a0,0x33333
    20b4:	33350513          	addi	a0,a0,819 # 33333333 <_end+0x3332d32f>
    20b8:	00200593          	li	a1,2
    20bc:	00b54633          	xor	a2,a0,a1
    20c0:	2cc6ac23          	sw	a2,728(a3)

000020c4 <inst_201>:
    20c4:	33333537          	lui	a0,0x33333
    20c8:	33350513          	addi	a0,a0,819 # 33333333 <_end+0x3332d32f>
    20cc:	555555b7          	lui	a1,0x55555
    20d0:	55458593          	addi	a1,a1,1364 # 55555554 <_end+0x5554f550>
    20d4:	00b54633          	xor	a2,a0,a1
    20d8:	2cc6ae23          	sw	a2,732(a3)

000020dc <inst_202>:
    20dc:	33333537          	lui	a0,0x33333
    20e0:	33350513          	addi	a0,a0,819 # 33333333 <_end+0x3332d32f>
    20e4:	00000593          	li	a1,0
    20e8:	00b54633          	xor	a2,a0,a1
    20ec:	2ec6a023          	sw	a2,736(a3)

000020f0 <inst_203>:
    20f0:	33333537          	lui	a0,0x33333
    20f4:	33350513          	addi	a0,a0,819 # 33333333 <_end+0x3332d32f>
    20f8:	00400593          	li	a1,4
    20fc:	00b54633          	xor	a2,a0,a1
    2100:	2ec6a223          	sw	a2,740(a3)

00002104 <inst_204>:
    2104:	33333537          	lui	a0,0x33333
    2108:	33350513          	addi	a0,a0,819 # 33333333 <_end+0x3332d32f>
    210c:	333335b7          	lui	a1,0x33333
    2110:	33258593          	addi	a1,a1,818 # 33333332 <_end+0x3332d32e>
    2114:	00b54633          	xor	a2,a0,a1
    2118:	2ec6a423          	sw	a2,744(a3)

0000211c <inst_205>:
    211c:	33333537          	lui	a0,0x33333
    2120:	33350513          	addi	a0,a0,819 # 33333333 <_end+0x3332d32f>
    2124:	666665b7          	lui	a1,0x66666
    2128:	66558593          	addi	a1,a1,1637 # 66666665 <_end+0x66660661>
    212c:	00b54633          	xor	a2,a0,a1
    2130:	2ec6a623          	sw	a2,748(a3)

00002134 <inst_206>:
    2134:	33333537          	lui	a0,0x33333
    2138:	33350513          	addi	a0,a0,819 # 33333333 <_end+0x3332d32f>
    213c:	0000b5b7          	lui	a1,0xb
    2140:	50358593          	addi	a1,a1,1283 # b503 <_end+0x54ff>
    2144:	00b54633          	xor	a2,a0,a1
    2148:	2ec6a823          	sw	a2,752(a3)

0000214c <inst_207>:
    214c:	33333537          	lui	a0,0x33333
    2150:	33350513          	addi	a0,a0,819 # 33333333 <_end+0x3332d32f>
    2154:	555555b7          	lui	a1,0x55555
    2158:	55658593          	addi	a1,a1,1366 # 55555556 <_end+0x5554f552>
    215c:	00b54633          	xor	a2,a0,a1
    2160:	2ec6aa23          	sw	a2,756(a3)

00002164 <inst_208>:
    2164:	33333537          	lui	a0,0x33333
    2168:	33350513          	addi	a0,a0,819 # 33333333 <_end+0x3332d32f>
    216c:	aaaab5b7          	lui	a1,0xaaaab
    2170:	aab58593          	addi	a1,a1,-1365 # aaaaaaab <_end+0xaaaa4aa7>
    2174:	00b54633          	xor	a2,a0,a1
    2178:	2ec6ac23          	sw	a2,760(a3)

0000217c <inst_209>:
    217c:	33333537          	lui	a0,0x33333
    2180:	33350513          	addi	a0,a0,819 # 33333333 <_end+0x3332d32f>
    2184:	00600593          	li	a1,6
    2188:	00b54633          	xor	a2,a0,a1
    218c:	2ec6ae23          	sw	a2,764(a3)

00002190 <inst_210>:
    2190:	33333537          	lui	a0,0x33333
    2194:	33350513          	addi	a0,a0,819 # 33333333 <_end+0x3332d32f>
    2198:	333335b7          	lui	a1,0x33333
    219c:	33458593          	addi	a1,a1,820 # 33333334 <_end+0x3332d330>
    21a0:	00b54633          	xor	a2,a0,a1
    21a4:	30c6a023          	sw	a2,768(a3)

000021a8 <inst_211>:
    21a8:	33333537          	lui	a0,0x33333
    21ac:	33350513          	addi	a0,a0,819 # 33333333 <_end+0x3332d32f>
    21b0:	666665b7          	lui	a1,0x66666
    21b4:	66758593          	addi	a1,a1,1639 # 66666667 <_end+0x66660663>
    21b8:	00b54633          	xor	a2,a0,a1
    21bc:	30c6a223          	sw	a2,772(a3)

000021c0 <inst_212>:
    21c0:	33333537          	lui	a0,0x33333
    21c4:	33350513          	addi	a0,a0,819 # 33333333 <_end+0x3332d32f>
    21c8:	ffff55b7          	lui	a1,0xffff5
    21cc:	afd58593          	addi	a1,a1,-1283 # ffff4afd <_end+0xfffeeaf9>
    21d0:	00b54633          	xor	a2,a0,a1
    21d4:	30c6a423          	sw	a2,776(a3)

000021d8 <inst_213>:
    21d8:	33333537          	lui	a0,0x33333
    21dc:	33350513          	addi	a0,a0,819 # 33333333 <_end+0x3332d32f>
    21e0:	0000b5b7          	lui	a1,0xb
    21e4:	50558593          	addi	a1,a1,1285 # b505 <_end+0x5501>
    21e8:	00b54633          	xor	a2,a0,a1
    21ec:	30c6a623          	sw	a2,780(a3)

000021f0 <inst_214>:
    21f0:	66666537          	lui	a0,0x66666
    21f4:	66650513          	addi	a0,a0,1638 # 66666666 <_end+0x66660662>
    21f8:	00300593          	li	a1,3
    21fc:	00b54633          	xor	a2,a0,a1
    2200:	30c6a823          	sw	a2,784(a3)

00002204 <inst_215>:
    2204:	66666537          	lui	a0,0x66666
    2208:	66650513          	addi	a0,a0,1638 # 66666666 <_end+0x66660662>
    220c:	555555b7          	lui	a1,0x55555
    2210:	55558593          	addi	a1,a1,1365 # 55555555 <_end+0x5554f551>
    2214:	00b54633          	xor	a2,a0,a1
    2218:	30c6aa23          	sw	a2,788(a3)

0000221c <inst_216>:
    221c:	66666537          	lui	a0,0x66666
    2220:	66650513          	addi	a0,a0,1638 # 66666666 <_end+0x66660662>
    2224:	aaaab5b7          	lui	a1,0xaaaab
    2228:	aaa58593          	addi	a1,a1,-1366 # aaaaaaaa <_end+0xaaaa4aa6>
    222c:	00b54633          	xor	a2,a0,a1
    2230:	30c6ac23          	sw	a2,792(a3)

00002234 <inst_217>:
    2234:	66666537          	lui	a0,0x66666
    2238:	66650513          	addi	a0,a0,1638 # 66666666 <_end+0x66660662>
    223c:	00500593          	li	a1,5
    2240:	00b54633          	xor	a2,a0,a1
    2244:	30c6ae23          	sw	a2,796(a3)

00002248 <inst_218>:
    2248:	66666537          	lui	a0,0x66666
    224c:	66650513          	addi	a0,a0,1638 # 66666666 <_end+0x66660662>
    2250:	333335b7          	lui	a1,0x33333
    2254:	33358593          	addi	a1,a1,819 # 33333333 <_end+0x3332d32f>
    2258:	00b54633          	xor	a2,a0,a1
    225c:	32c6a023          	sw	a2,800(a3)

00002260 <inst_219>:
    2260:	66666537          	lui	a0,0x66666
    2264:	66650513          	addi	a0,a0,1638 # 66666666 <_end+0x66660662>
    2268:	666665b7          	lui	a1,0x66666
    226c:	66658593          	addi	a1,a1,1638 # 66666666 <_end+0x66660662>
    2270:	00b54633          	xor	a2,a0,a1
    2274:	32c6a223          	sw	a2,804(a3)

00002278 <inst_220>:
    2278:	66666537          	lui	a0,0x66666
    227c:	66650513          	addi	a0,a0,1638 # 66666666 <_end+0x66660662>
    2280:	ffff55b7          	lui	a1,0xffff5
    2284:	afc58593          	addi	a1,a1,-1284 # ffff4afc <_end+0xfffeeaf8>
    2288:	00b54633          	xor	a2,a0,a1
    228c:	32c6a423          	sw	a2,808(a3)

00002290 <inst_221>:
    2290:	66666537          	lui	a0,0x66666
    2294:	66650513          	addi	a0,a0,1638 # 66666666 <_end+0x66660662>
    2298:	0000b5b7          	lui	a1,0xb
    229c:	50458593          	addi	a1,a1,1284 # b504 <_end+0x5500>
    22a0:	00b54633          	xor	a2,a0,a1
    22a4:	32c6a623          	sw	a2,812(a3)

000022a8 <inst_222>:
    22a8:	66666537          	lui	a0,0x66666
    22ac:	66650513          	addi	a0,a0,1638 # 66666666 <_end+0x66660662>
    22b0:	00200593          	li	a1,2
    22b4:	00b54633          	xor	a2,a0,a1
    22b8:	32c6a823          	sw	a2,816(a3)

000022bc <inst_223>:
    22bc:	66666537          	lui	a0,0x66666
    22c0:	66650513          	addi	a0,a0,1638 # 66666666 <_end+0x66660662>
    22c4:	555555b7          	lui	a1,0x55555
    22c8:	55458593          	addi	a1,a1,1364 # 55555554 <_end+0x5554f550>
    22cc:	00b54633          	xor	a2,a0,a1
    22d0:	32c6aa23          	sw	a2,820(a3)

000022d4 <inst_224>:
    22d4:	66666537          	lui	a0,0x66666
    22d8:	66650513          	addi	a0,a0,1638 # 66666666 <_end+0x66660662>
    22dc:	00000593          	li	a1,0
    22e0:	00b54633          	xor	a2,a0,a1
    22e4:	32c6ac23          	sw	a2,824(a3)

000022e8 <inst_225>:
    22e8:	66666537          	lui	a0,0x66666
    22ec:	66650513          	addi	a0,a0,1638 # 66666666 <_end+0x66660662>
    22f0:	00400593          	li	a1,4
    22f4:	00b54633          	xor	a2,a0,a1
    22f8:	32c6ae23          	sw	a2,828(a3)

000022fc <inst_226>:
    22fc:	66666537          	lui	a0,0x66666
    2300:	66650513          	addi	a0,a0,1638 # 66666666 <_end+0x66660662>
    2304:	333335b7          	lui	a1,0x33333
    2308:	33258593          	addi	a1,a1,818 # 33333332 <_end+0x3332d32e>
    230c:	00b54633          	xor	a2,a0,a1
    2310:	34c6a023          	sw	a2,832(a3)

00002314 <inst_227>:
    2314:	66666537          	lui	a0,0x66666
    2318:	66650513          	addi	a0,a0,1638 # 66666666 <_end+0x66660662>
    231c:	666665b7          	lui	a1,0x66666
    2320:	66558593          	addi	a1,a1,1637 # 66666665 <_end+0x66660661>
    2324:	00b54633          	xor	a2,a0,a1
    2328:	34c6a223          	sw	a2,836(a3)

0000232c <inst_228>:
    232c:	66666537          	lui	a0,0x66666
    2330:	66650513          	addi	a0,a0,1638 # 66666666 <_end+0x66660662>
    2334:	0000b5b7          	lui	a1,0xb
    2338:	50358593          	addi	a1,a1,1283 # b503 <_end+0x54ff>
    233c:	00b54633          	xor	a2,a0,a1
    2340:	34c6a423          	sw	a2,840(a3)

00002344 <inst_229>:
    2344:	66666537          	lui	a0,0x66666
    2348:	66650513          	addi	a0,a0,1638 # 66666666 <_end+0x66660662>
    234c:	555555b7          	lui	a1,0x55555
    2350:	55658593          	addi	a1,a1,1366 # 55555556 <_end+0x5554f552>
    2354:	00b54633          	xor	a2,a0,a1
    2358:	34c6a623          	sw	a2,844(a3)

0000235c <inst_230>:
    235c:	66666537          	lui	a0,0x66666
    2360:	66650513          	addi	a0,a0,1638 # 66666666 <_end+0x66660662>
    2364:	aaaab5b7          	lui	a1,0xaaaab
    2368:	aab58593          	addi	a1,a1,-1365 # aaaaaaab <_end+0xaaaa4aa7>
    236c:	00b54633          	xor	a2,a0,a1
    2370:	34c6a823          	sw	a2,848(a3)

00002374 <inst_231>:
    2374:	66666537          	lui	a0,0x66666
    2378:	66650513          	addi	a0,a0,1638 # 66666666 <_end+0x66660662>
    237c:	00600593          	li	a1,6
    2380:	00b54633          	xor	a2,a0,a1
    2384:	34c6aa23          	sw	a2,852(a3)

00002388 <inst_232>:
    2388:	66666537          	lui	a0,0x66666
    238c:	66650513          	addi	a0,a0,1638 # 66666666 <_end+0x66660662>
    2390:	333335b7          	lui	a1,0x33333
    2394:	33458593          	addi	a1,a1,820 # 33333334 <_end+0x3332d330>
    2398:	00b54633          	xor	a2,a0,a1
    239c:	34c6ac23          	sw	a2,856(a3)

000023a0 <inst_233>:
    23a0:	66666537          	lui	a0,0x66666
    23a4:	66650513          	addi	a0,a0,1638 # 66666666 <_end+0x66660662>
    23a8:	666665b7          	lui	a1,0x66666
    23ac:	66758593          	addi	a1,a1,1639 # 66666667 <_end+0x66660663>
    23b0:	00b54633          	xor	a2,a0,a1
    23b4:	34c6ae23          	sw	a2,860(a3)

000023b8 <inst_234>:
    23b8:	66666537          	lui	a0,0x66666
    23bc:	66650513          	addi	a0,a0,1638 # 66666666 <_end+0x66660662>
    23c0:	ffff55b7          	lui	a1,0xffff5
    23c4:	afd58593          	addi	a1,a1,-1283 # ffff4afd <_end+0xfffeeaf9>
    23c8:	00b54633          	xor	a2,a0,a1
    23cc:	36c6a023          	sw	a2,864(a3)

000023d0 <inst_235>:
    23d0:	66666537          	lui	a0,0x66666
    23d4:	66650513          	addi	a0,a0,1638 # 66666666 <_end+0x66660662>
    23d8:	0000b5b7          	lui	a1,0xb
    23dc:	50558593          	addi	a1,a1,1285 # b505 <_end+0x5501>
    23e0:	00b54633          	xor	a2,a0,a1
    23e4:	36c6a223          	sw	a2,868(a3)

000023e8 <inst_236>:
    23e8:	ffff5537          	lui	a0,0xffff5
    23ec:	afc50513          	addi	a0,a0,-1284 # ffff4afc <_end+0xfffeeaf8>
    23f0:	00300593          	li	a1,3
    23f4:	00b54633          	xor	a2,a0,a1
    23f8:	36c6a423          	sw	a2,872(a3)

000023fc <inst_237>:
    23fc:	ffff5537          	lui	a0,0xffff5
    2400:	afc50513          	addi	a0,a0,-1284 # ffff4afc <_end+0xfffeeaf8>
    2404:	555555b7          	lui	a1,0x55555
    2408:	55558593          	addi	a1,a1,1365 # 55555555 <_end+0x5554f551>
    240c:	00b54633          	xor	a2,a0,a1
    2410:	36c6a623          	sw	a2,876(a3)

00002414 <inst_238>:
    2414:	ffff5537          	lui	a0,0xffff5
    2418:	afc50513          	addi	a0,a0,-1284 # ffff4afc <_end+0xfffeeaf8>
    241c:	aaaab5b7          	lui	a1,0xaaaab
    2420:	aaa58593          	addi	a1,a1,-1366 # aaaaaaaa <_end+0xaaaa4aa6>
    2424:	00b54633          	xor	a2,a0,a1
    2428:	36c6a823          	sw	a2,880(a3)

0000242c <inst_239>:
    242c:	ffff5537          	lui	a0,0xffff5
    2430:	afc50513          	addi	a0,a0,-1284 # ffff4afc <_end+0xfffeeaf8>
    2434:	00500593          	li	a1,5
    2438:	00b54633          	xor	a2,a0,a1
    243c:	36c6aa23          	sw	a2,884(a3)

00002440 <inst_240>:
    2440:	ffff5537          	lui	a0,0xffff5
    2444:	afc50513          	addi	a0,a0,-1284 # ffff4afc <_end+0xfffeeaf8>
    2448:	333335b7          	lui	a1,0x33333
    244c:	33358593          	addi	a1,a1,819 # 33333333 <_end+0x3332d32f>
    2450:	00b54633          	xor	a2,a0,a1
    2454:	36c6ac23          	sw	a2,888(a3)

00002458 <inst_241>:
    2458:	ffff5537          	lui	a0,0xffff5
    245c:	afc50513          	addi	a0,a0,-1284 # ffff4afc <_end+0xfffeeaf8>
    2460:	666665b7          	lui	a1,0x66666
    2464:	66658593          	addi	a1,a1,1638 # 66666666 <_end+0x66660662>
    2468:	00b54633          	xor	a2,a0,a1
    246c:	36c6ae23          	sw	a2,892(a3)

00002470 <inst_242>:
    2470:	ffff5537          	lui	a0,0xffff5
    2474:	afc50513          	addi	a0,a0,-1284 # ffff4afc <_end+0xfffeeaf8>
    2478:	ffff55b7          	lui	a1,0xffff5
    247c:	afc58593          	addi	a1,a1,-1284 # ffff4afc <_end+0xfffeeaf8>
    2480:	00b54633          	xor	a2,a0,a1
    2484:	38c6a023          	sw	a2,896(a3)

00002488 <inst_243>:
    2488:	ffff5537          	lui	a0,0xffff5
    248c:	afc50513          	addi	a0,a0,-1284 # ffff4afc <_end+0xfffeeaf8>
    2490:	0000b5b7          	lui	a1,0xb
    2494:	50458593          	addi	a1,a1,1284 # b504 <_end+0x5500>
    2498:	00b54633          	xor	a2,a0,a1
    249c:	38c6a223          	sw	a2,900(a3)

000024a0 <inst_244>:
    24a0:	ffff5537          	lui	a0,0xffff5
    24a4:	afc50513          	addi	a0,a0,-1284 # ffff4afc <_end+0xfffeeaf8>
    24a8:	00200593          	li	a1,2
    24ac:	00b54633          	xor	a2,a0,a1
    24b0:	38c6a423          	sw	a2,904(a3)

000024b4 <inst_245>:
    24b4:	ffff5537          	lui	a0,0xffff5
    24b8:	afc50513          	addi	a0,a0,-1284 # ffff4afc <_end+0xfffeeaf8>
    24bc:	555555b7          	lui	a1,0x55555
    24c0:	55458593          	addi	a1,a1,1364 # 55555554 <_end+0x5554f550>
    24c4:	00b54633          	xor	a2,a0,a1
    24c8:	38c6a623          	sw	a2,908(a3)

000024cc <inst_246>:
    24cc:	ffff5537          	lui	a0,0xffff5
    24d0:	afc50513          	addi	a0,a0,-1284 # ffff4afc <_end+0xfffeeaf8>
    24d4:	00000593          	li	a1,0
    24d8:	00b54633          	xor	a2,a0,a1
    24dc:	38c6a823          	sw	a2,912(a3)

000024e0 <inst_247>:
    24e0:	ffff5537          	lui	a0,0xffff5
    24e4:	afc50513          	addi	a0,a0,-1284 # ffff4afc <_end+0xfffeeaf8>
    24e8:	00400593          	li	a1,4
    24ec:	00b54633          	xor	a2,a0,a1
    24f0:	38c6aa23          	sw	a2,916(a3)

000024f4 <inst_248>:
    24f4:	ffff5537          	lui	a0,0xffff5
    24f8:	afc50513          	addi	a0,a0,-1284 # ffff4afc <_end+0xfffeeaf8>
    24fc:	333335b7          	lui	a1,0x33333
    2500:	33258593          	addi	a1,a1,818 # 33333332 <_end+0x3332d32e>
    2504:	00b54633          	xor	a2,a0,a1
    2508:	38c6ac23          	sw	a2,920(a3)

0000250c <inst_249>:
    250c:	ffff5537          	lui	a0,0xffff5
    2510:	afc50513          	addi	a0,a0,-1284 # ffff4afc <_end+0xfffeeaf8>
    2514:	666665b7          	lui	a1,0x66666
    2518:	66558593          	addi	a1,a1,1637 # 66666665 <_end+0x66660661>
    251c:	00b54633          	xor	a2,a0,a1
    2520:	38c6ae23          	sw	a2,924(a3)

00002524 <inst_250>:
    2524:	ffff5537          	lui	a0,0xffff5
    2528:	afc50513          	addi	a0,a0,-1284 # ffff4afc <_end+0xfffeeaf8>
    252c:	0000b5b7          	lui	a1,0xb
    2530:	50358593          	addi	a1,a1,1283 # b503 <_end+0x54ff>
    2534:	00b54633          	xor	a2,a0,a1
    2538:	3ac6a023          	sw	a2,928(a3)

0000253c <inst_251>:
    253c:	ffff5537          	lui	a0,0xffff5
    2540:	afc50513          	addi	a0,a0,-1284 # ffff4afc <_end+0xfffeeaf8>
    2544:	555555b7          	lui	a1,0x55555
    2548:	55658593          	addi	a1,a1,1366 # 55555556 <_end+0x5554f552>
    254c:	00b54633          	xor	a2,a0,a1
    2550:	3ac6a223          	sw	a2,932(a3)

00002554 <inst_252>:
    2554:	ffff5537          	lui	a0,0xffff5
    2558:	afc50513          	addi	a0,a0,-1284 # ffff4afc <_end+0xfffeeaf8>
    255c:	aaaab5b7          	lui	a1,0xaaaab
    2560:	aab58593          	addi	a1,a1,-1365 # aaaaaaab <_end+0xaaaa4aa7>
    2564:	00b54633          	xor	a2,a0,a1
    2568:	3ac6a423          	sw	a2,936(a3)

0000256c <inst_253>:
    256c:	ffff5537          	lui	a0,0xffff5
    2570:	afc50513          	addi	a0,a0,-1284 # ffff4afc <_end+0xfffeeaf8>
    2574:	00600593          	li	a1,6
    2578:	00b54633          	xor	a2,a0,a1
    257c:	3ac6a623          	sw	a2,940(a3)

00002580 <inst_254>:
    2580:	ffff5537          	lui	a0,0xffff5
    2584:	afc50513          	addi	a0,a0,-1284 # ffff4afc <_end+0xfffeeaf8>
    2588:	333335b7          	lui	a1,0x33333
    258c:	33458593          	addi	a1,a1,820 # 33333334 <_end+0x3332d330>
    2590:	00b54633          	xor	a2,a0,a1
    2594:	3ac6a823          	sw	a2,944(a3)

00002598 <inst_255>:
    2598:	ffff5537          	lui	a0,0xffff5
    259c:	afc50513          	addi	a0,a0,-1284 # ffff4afc <_end+0xfffeeaf8>
    25a0:	666665b7          	lui	a1,0x66666
    25a4:	66758593          	addi	a1,a1,1639 # 66666667 <_end+0x66660663>
    25a8:	00b54633          	xor	a2,a0,a1
    25ac:	3ac6aa23          	sw	a2,948(a3)

000025b0 <inst_256>:
    25b0:	ffff5537          	lui	a0,0xffff5
    25b4:	afc50513          	addi	a0,a0,-1284 # ffff4afc <_end+0xfffeeaf8>
    25b8:	ffff55b7          	lui	a1,0xffff5
    25bc:	afd58593          	addi	a1,a1,-1283 # ffff4afd <_end+0xfffeeaf9>
    25c0:	00b54633          	xor	a2,a0,a1
    25c4:	3ac6ac23          	sw	a2,952(a3)

000025c8 <inst_257>:
    25c8:	ffff5537          	lui	a0,0xffff5
    25cc:	afc50513          	addi	a0,a0,-1284 # ffff4afc <_end+0xfffeeaf8>
    25d0:	0000b5b7          	lui	a1,0xb
    25d4:	50558593          	addi	a1,a1,1285 # b505 <_end+0x5501>
    25d8:	00b54633          	xor	a2,a0,a1
    25dc:	3ac6ae23          	sw	a2,956(a3)

000025e0 <inst_258>:
    25e0:	0000b537          	lui	a0,0xb
    25e4:	50450513          	addi	a0,a0,1284 # b504 <_end+0x5500>
    25e8:	00300593          	li	a1,3
    25ec:	00b54633          	xor	a2,a0,a1
    25f0:	3cc6a023          	sw	a2,960(a3)

000025f4 <inst_259>:
    25f4:	0000b537          	lui	a0,0xb
    25f8:	50450513          	addi	a0,a0,1284 # b504 <_end+0x5500>
    25fc:	555555b7          	lui	a1,0x55555
    2600:	55558593          	addi	a1,a1,1365 # 55555555 <_end+0x5554f551>
    2604:	00b54633          	xor	a2,a0,a1
    2608:	3cc6a223          	sw	a2,964(a3)

0000260c <inst_260>:
    260c:	0000b537          	lui	a0,0xb
    2610:	50450513          	addi	a0,a0,1284 # b504 <_end+0x5500>
    2614:	aaaab5b7          	lui	a1,0xaaaab
    2618:	aaa58593          	addi	a1,a1,-1366 # aaaaaaaa <_end+0xaaaa4aa6>
    261c:	00b54633          	xor	a2,a0,a1
    2620:	3cc6a423          	sw	a2,968(a3)

00002624 <inst_261>:
    2624:	0000b537          	lui	a0,0xb
    2628:	50450513          	addi	a0,a0,1284 # b504 <_end+0x5500>
    262c:	00500593          	li	a1,5
    2630:	00b54633          	xor	a2,a0,a1
    2634:	3cc6a623          	sw	a2,972(a3)

00002638 <inst_262>:
    2638:	0000b537          	lui	a0,0xb
    263c:	50450513          	addi	a0,a0,1284 # b504 <_end+0x5500>
    2640:	333335b7          	lui	a1,0x33333
    2644:	33358593          	addi	a1,a1,819 # 33333333 <_end+0x3332d32f>
    2648:	00b54633          	xor	a2,a0,a1
    264c:	3cc6a823          	sw	a2,976(a3)

00002650 <inst_263>:
    2650:	0000b537          	lui	a0,0xb
    2654:	50450513          	addi	a0,a0,1284 # b504 <_end+0x5500>
    2658:	666665b7          	lui	a1,0x66666
    265c:	66658593          	addi	a1,a1,1638 # 66666666 <_end+0x66660662>
    2660:	00b54633          	xor	a2,a0,a1
    2664:	3cc6aa23          	sw	a2,980(a3)

00002668 <inst_264>:
    2668:	0000b537          	lui	a0,0xb
    266c:	50450513          	addi	a0,a0,1284 # b504 <_end+0x5500>
    2670:	ffff55b7          	lui	a1,0xffff5
    2674:	afc58593          	addi	a1,a1,-1284 # ffff4afc <_end+0xfffeeaf8>
    2678:	00b54633          	xor	a2,a0,a1
    267c:	3cc6ac23          	sw	a2,984(a3)

00002680 <inst_265>:
    2680:	0000b537          	lui	a0,0xb
    2684:	50450513          	addi	a0,a0,1284 # b504 <_end+0x5500>
    2688:	0000b5b7          	lui	a1,0xb
    268c:	50458593          	addi	a1,a1,1284 # b504 <_end+0x5500>
    2690:	00b54633          	xor	a2,a0,a1
    2694:	3cc6ae23          	sw	a2,988(a3)

00002698 <inst_266>:
    2698:	0000b537          	lui	a0,0xb
    269c:	50450513          	addi	a0,a0,1284 # b504 <_end+0x5500>
    26a0:	00200593          	li	a1,2
    26a4:	00b54633          	xor	a2,a0,a1
    26a8:	3ec6a023          	sw	a2,992(a3)

000026ac <inst_267>:
    26ac:	0000b537          	lui	a0,0xb
    26b0:	50450513          	addi	a0,a0,1284 # b504 <_end+0x5500>
    26b4:	555555b7          	lui	a1,0x55555
    26b8:	55458593          	addi	a1,a1,1364 # 55555554 <_end+0x5554f550>
    26bc:	00b54633          	xor	a2,a0,a1
    26c0:	3ec6a223          	sw	a2,996(a3)

000026c4 <inst_268>:
    26c4:	0000b537          	lui	a0,0xb
    26c8:	50450513          	addi	a0,a0,1284 # b504 <_end+0x5500>
    26cc:	00000593          	li	a1,0
    26d0:	00b54633          	xor	a2,a0,a1
    26d4:	3ec6a423          	sw	a2,1000(a3)

000026d8 <inst_269>:
    26d8:	0000b537          	lui	a0,0xb
    26dc:	50450513          	addi	a0,a0,1284 # b504 <_end+0x5500>
    26e0:	00400593          	li	a1,4
    26e4:	00b54633          	xor	a2,a0,a1
    26e8:	3ec6a623          	sw	a2,1004(a3)

000026ec <inst_270>:
    26ec:	0000b537          	lui	a0,0xb
    26f0:	50450513          	addi	a0,a0,1284 # b504 <_end+0x5500>
    26f4:	333335b7          	lui	a1,0x33333
    26f8:	33258593          	addi	a1,a1,818 # 33333332 <_end+0x3332d32e>
    26fc:	00b54633          	xor	a2,a0,a1
    2700:	3ec6a823          	sw	a2,1008(a3)

00002704 <inst_271>:
    2704:	0000b537          	lui	a0,0xb
    2708:	50450513          	addi	a0,a0,1284 # b504 <_end+0x5500>
    270c:	666665b7          	lui	a1,0x66666
    2710:	66558593          	addi	a1,a1,1637 # 66666665 <_end+0x66660661>
    2714:	00b54633          	xor	a2,a0,a1
    2718:	3ec6aa23          	sw	a2,1012(a3)

0000271c <inst_272>:
    271c:	0000b537          	lui	a0,0xb
    2720:	50450513          	addi	a0,a0,1284 # b504 <_end+0x5500>
    2724:	0000b5b7          	lui	a1,0xb
    2728:	50358593          	addi	a1,a1,1283 # b503 <_end+0x54ff>
    272c:	00b54633          	xor	a2,a0,a1
    2730:	3ec6ac23          	sw	a2,1016(a3)

00002734 <inst_273>:
    2734:	0000b537          	lui	a0,0xb
    2738:	50450513          	addi	a0,a0,1284 # b504 <_end+0x5500>
    273c:	555555b7          	lui	a1,0x55555
    2740:	55658593          	addi	a1,a1,1366 # 55555556 <_end+0x5554f552>
    2744:	00b54633          	xor	a2,a0,a1
    2748:	3ec6ae23          	sw	a2,1020(a3)

0000274c <inst_274>:
    274c:	0000b537          	lui	a0,0xb
    2750:	50450513          	addi	a0,a0,1284 # b504 <_end+0x5500>
    2754:	aaaab5b7          	lui	a1,0xaaaab
    2758:	aab58593          	addi	a1,a1,-1365 # aaaaaaab <_end+0xaaaa4aa7>
    275c:	00b54633          	xor	a2,a0,a1
    2760:	40c6a023          	sw	a2,1024(a3)

00002764 <inst_275>:
    2764:	0000b537          	lui	a0,0xb
    2768:	50450513          	addi	a0,a0,1284 # b504 <_end+0x5500>
    276c:	00600593          	li	a1,6
    2770:	00b54633          	xor	a2,a0,a1
    2774:	40c6a223          	sw	a2,1028(a3)

00002778 <inst_276>:
    2778:	0000b537          	lui	a0,0xb
    277c:	50450513          	addi	a0,a0,1284 # b504 <_end+0x5500>
    2780:	333335b7          	lui	a1,0x33333
    2784:	33458593          	addi	a1,a1,820 # 33333334 <_end+0x3332d330>
    2788:	00b54633          	xor	a2,a0,a1
    278c:	40c6a423          	sw	a2,1032(a3)

00002790 <inst_277>:
    2790:	0000b537          	lui	a0,0xb
    2794:	50450513          	addi	a0,a0,1284 # b504 <_end+0x5500>
    2798:	666665b7          	lui	a1,0x66666
    279c:	66758593          	addi	a1,a1,1639 # 66666667 <_end+0x66660663>
    27a0:	00b54633          	xor	a2,a0,a1
    27a4:	40c6a623          	sw	a2,1036(a3)

000027a8 <inst_278>:
    27a8:	0000b537          	lui	a0,0xb
    27ac:	50450513          	addi	a0,a0,1284 # b504 <_end+0x5500>
    27b0:	ffff55b7          	lui	a1,0xffff5
    27b4:	afd58593          	addi	a1,a1,-1283 # ffff4afd <_end+0xfffeeaf9>
    27b8:	00b54633          	xor	a2,a0,a1
    27bc:	40c6a823          	sw	a2,1040(a3)

000027c0 <inst_279>:
    27c0:	0000b537          	lui	a0,0xb
    27c4:	50450513          	addi	a0,a0,1284 # b504 <_end+0x5500>
    27c8:	0000b5b7          	lui	a1,0xb
    27cc:	50558593          	addi	a1,a1,1285 # b505 <_end+0x5501>
    27d0:	00b54633          	xor	a2,a0,a1
    27d4:	40c6aa23          	sw	a2,1044(a3)

000027d8 <inst_280>:
    27d8:	00200513          	li	a0,2
    27dc:	00300593          	li	a1,3
    27e0:	00b54633          	xor	a2,a0,a1
    27e4:	40c6ac23          	sw	a2,1048(a3)

000027e8 <inst_281>:
    27e8:	00200513          	li	a0,2
    27ec:	555555b7          	lui	a1,0x55555
    27f0:	55558593          	addi	a1,a1,1365 # 55555555 <_end+0x5554f551>
    27f4:	00b54633          	xor	a2,a0,a1
    27f8:	40c6ae23          	sw	a2,1052(a3)

000027fc <inst_282>:
    27fc:	00200513          	li	a0,2
    2800:	aaaab5b7          	lui	a1,0xaaaab
    2804:	aaa58593          	addi	a1,a1,-1366 # aaaaaaaa <_end+0xaaaa4aa6>
    2808:	00b54633          	xor	a2,a0,a1
    280c:	42c6a023          	sw	a2,1056(a3)

00002810 <inst_283>:
    2810:	00200513          	li	a0,2
    2814:	00500593          	li	a1,5
    2818:	00b54633          	xor	a2,a0,a1
    281c:	42c6a223          	sw	a2,1060(a3)

00002820 <inst_284>:
    2820:	00200513          	li	a0,2
    2824:	333335b7          	lui	a1,0x33333
    2828:	33358593          	addi	a1,a1,819 # 33333333 <_end+0x3332d32f>
    282c:	00b54633          	xor	a2,a0,a1
    2830:	42c6a423          	sw	a2,1064(a3)

00002834 <inst_285>:
    2834:	00200513          	li	a0,2
    2838:	666665b7          	lui	a1,0x66666
    283c:	66658593          	addi	a1,a1,1638 # 66666666 <_end+0x66660662>
    2840:	00b54633          	xor	a2,a0,a1
    2844:	42c6a623          	sw	a2,1068(a3)

00002848 <inst_286>:
    2848:	00200513          	li	a0,2
    284c:	ffff55b7          	lui	a1,0xffff5
    2850:	afc58593          	addi	a1,a1,-1284 # ffff4afc <_end+0xfffeeaf8>
    2854:	00b54633          	xor	a2,a0,a1
    2858:	42c6a823          	sw	a2,1072(a3)

0000285c <inst_287>:
    285c:	00200513          	li	a0,2
    2860:	0000b5b7          	lui	a1,0xb
    2864:	50458593          	addi	a1,a1,1284 # b504 <_end+0x5500>
    2868:	00b54633          	xor	a2,a0,a1
    286c:	42c6aa23          	sw	a2,1076(a3)

00002870 <inst_288>:
    2870:	00200513          	li	a0,2
    2874:	00200593          	li	a1,2
    2878:	00b54633          	xor	a2,a0,a1
    287c:	42c6ac23          	sw	a2,1080(a3)

00002880 <inst_289>:
    2880:	00200513          	li	a0,2
    2884:	555555b7          	lui	a1,0x55555
    2888:	55458593          	addi	a1,a1,1364 # 55555554 <_end+0x5554f550>
    288c:	00b54633          	xor	a2,a0,a1
    2890:	42c6ae23          	sw	a2,1084(a3)

00002894 <inst_290>:
    2894:	00200513          	li	a0,2
    2898:	00000593          	li	a1,0
    289c:	00b54633          	xor	a2,a0,a1
    28a0:	44c6a023          	sw	a2,1088(a3)

000028a4 <inst_291>:
    28a4:	00200513          	li	a0,2
    28a8:	00400593          	li	a1,4
    28ac:	00b54633          	xor	a2,a0,a1
    28b0:	44c6a223          	sw	a2,1092(a3)

000028b4 <inst_292>:
    28b4:	00200513          	li	a0,2
    28b8:	333335b7          	lui	a1,0x33333
    28bc:	33258593          	addi	a1,a1,818 # 33333332 <_end+0x3332d32e>
    28c0:	00b54633          	xor	a2,a0,a1
    28c4:	44c6a423          	sw	a2,1096(a3)

000028c8 <inst_293>:
    28c8:	00200513          	li	a0,2
    28cc:	666665b7          	lui	a1,0x66666
    28d0:	66558593          	addi	a1,a1,1637 # 66666665 <_end+0x66660661>
    28d4:	00b54633          	xor	a2,a0,a1
    28d8:	44c6a623          	sw	a2,1100(a3)

000028dc <inst_294>:
    28dc:	00200513          	li	a0,2
    28e0:	0000b5b7          	lui	a1,0xb
    28e4:	50358593          	addi	a1,a1,1283 # b503 <_end+0x54ff>
    28e8:	00b54633          	xor	a2,a0,a1
    28ec:	44c6a823          	sw	a2,1104(a3)

000028f0 <inst_295>:
    28f0:	00200513          	li	a0,2
    28f4:	555555b7          	lui	a1,0x55555
    28f8:	55658593          	addi	a1,a1,1366 # 55555556 <_end+0x5554f552>
    28fc:	00b54633          	xor	a2,a0,a1
    2900:	44c6aa23          	sw	a2,1108(a3)

00002904 <inst_296>:
    2904:	00200513          	li	a0,2
    2908:	aaaab5b7          	lui	a1,0xaaaab
    290c:	aab58593          	addi	a1,a1,-1365 # aaaaaaab <_end+0xaaaa4aa7>
    2910:	00b54633          	xor	a2,a0,a1
    2914:	44c6ac23          	sw	a2,1112(a3)

00002918 <inst_297>:
    2918:	00200513          	li	a0,2
    291c:	00600593          	li	a1,6
    2920:	00b54633          	xor	a2,a0,a1
    2924:	44c6ae23          	sw	a2,1116(a3)

00002928 <inst_298>:
    2928:	00200513          	li	a0,2
    292c:	333335b7          	lui	a1,0x33333
    2930:	33458593          	addi	a1,a1,820 # 33333334 <_end+0x3332d330>
    2934:	00b54633          	xor	a2,a0,a1
    2938:	46c6a023          	sw	a2,1120(a3)

0000293c <inst_299>:
    293c:	00200513          	li	a0,2
    2940:	666665b7          	lui	a1,0x66666
    2944:	66758593          	addi	a1,a1,1639 # 66666667 <_end+0x66660663>
    2948:	00b54633          	xor	a2,a0,a1
    294c:	46c6a223          	sw	a2,1124(a3)

00002950 <inst_300>:
    2950:	00200513          	li	a0,2
    2954:	ffff55b7          	lui	a1,0xffff5
    2958:	afd58593          	addi	a1,a1,-1283 # ffff4afd <_end+0xfffeeaf9>
    295c:	00b54633          	xor	a2,a0,a1
    2960:	46c6a423          	sw	a2,1128(a3)

00002964 <inst_301>:
    2964:	00200513          	li	a0,2
    2968:	0000b5b7          	lui	a1,0xb
    296c:	50558593          	addi	a1,a1,1285 # b505 <_end+0x5501>
    2970:	00b54633          	xor	a2,a0,a1
    2974:	46c6a623          	sw	a2,1132(a3)

00002978 <inst_302>:
    2978:	55555537          	lui	a0,0x55555
    297c:	55450513          	addi	a0,a0,1364 # 55555554 <_end+0x5554f550>
    2980:	00300593          	li	a1,3
    2984:	00b54633          	xor	a2,a0,a1
    2988:	46c6a823          	sw	a2,1136(a3)

0000298c <inst_303>:
    298c:	55555537          	lui	a0,0x55555
    2990:	55450513          	addi	a0,a0,1364 # 55555554 <_end+0x5554f550>
    2994:	aaaab5b7          	lui	a1,0xaaaab
    2998:	aaa58593          	addi	a1,a1,-1366 # aaaaaaaa <_end+0xaaaa4aa6>
    299c:	00b54633          	xor	a2,a0,a1
    29a0:	46c6aa23          	sw	a2,1140(a3)

000029a4 <inst_304>:
    29a4:	55555537          	lui	a0,0x55555
    29a8:	55450513          	addi	a0,a0,1364 # 55555554 <_end+0x5554f550>
    29ac:	00500593          	li	a1,5
    29b0:	00b54633          	xor	a2,a0,a1
    29b4:	46c6ac23          	sw	a2,1144(a3)

000029b8 <inst_305>:
    29b8:	55555537          	lui	a0,0x55555
    29bc:	55450513          	addi	a0,a0,1364 # 55555554 <_end+0x5554f550>
    29c0:	333335b7          	lui	a1,0x33333
    29c4:	33358593          	addi	a1,a1,819 # 33333333 <_end+0x3332d32f>
    29c8:	00b54633          	xor	a2,a0,a1
    29cc:	46c6ae23          	sw	a2,1148(a3)

000029d0 <inst_306>:
    29d0:	55555537          	lui	a0,0x55555
    29d4:	55450513          	addi	a0,a0,1364 # 55555554 <_end+0x5554f550>
    29d8:	666665b7          	lui	a1,0x66666
    29dc:	66658593          	addi	a1,a1,1638 # 66666666 <_end+0x66660662>
    29e0:	00b54633          	xor	a2,a0,a1
    29e4:	48c6a023          	sw	a2,1152(a3)

000029e8 <inst_307>:
    29e8:	55555537          	lui	a0,0x55555
    29ec:	55450513          	addi	a0,a0,1364 # 55555554 <_end+0x5554f550>
    29f0:	ffff55b7          	lui	a1,0xffff5
    29f4:	afc58593          	addi	a1,a1,-1284 # ffff4afc <_end+0xfffeeaf8>
    29f8:	00b54633          	xor	a2,a0,a1
    29fc:	48c6a223          	sw	a2,1156(a3)

00002a00 <inst_308>:
    2a00:	55555537          	lui	a0,0x55555
    2a04:	55450513          	addi	a0,a0,1364 # 55555554 <_end+0x5554f550>
    2a08:	0000b5b7          	lui	a1,0xb
    2a0c:	50458593          	addi	a1,a1,1284 # b504 <_end+0x5500>
    2a10:	00b54633          	xor	a2,a0,a1
    2a14:	48c6a423          	sw	a2,1160(a3)

00002a18 <inst_309>:
    2a18:	55555537          	lui	a0,0x55555
    2a1c:	55450513          	addi	a0,a0,1364 # 55555554 <_end+0x5554f550>
    2a20:	00200593          	li	a1,2
    2a24:	00b54633          	xor	a2,a0,a1
    2a28:	48c6a623          	sw	a2,1164(a3)

00002a2c <inst_310>:
    2a2c:	55555537          	lui	a0,0x55555
    2a30:	55450513          	addi	a0,a0,1364 # 55555554 <_end+0x5554f550>
    2a34:	555555b7          	lui	a1,0x55555
    2a38:	55458593          	addi	a1,a1,1364 # 55555554 <_end+0x5554f550>
    2a3c:	00b54633          	xor	a2,a0,a1
    2a40:	48c6a823          	sw	a2,1168(a3)

00002a44 <inst_311>:
    2a44:	55555537          	lui	a0,0x55555
    2a48:	55450513          	addi	a0,a0,1364 # 55555554 <_end+0x5554f550>
    2a4c:	00000593          	li	a1,0
    2a50:	00b54633          	xor	a2,a0,a1
    2a54:	48c6aa23          	sw	a2,1172(a3)

00002a58 <inst_312>:
    2a58:	55555537          	lui	a0,0x55555
    2a5c:	55450513          	addi	a0,a0,1364 # 55555554 <_end+0x5554f550>
    2a60:	00400593          	li	a1,4
    2a64:	00b54633          	xor	a2,a0,a1
    2a68:	48c6ac23          	sw	a2,1176(a3)

00002a6c <inst_313>:
    2a6c:	55555537          	lui	a0,0x55555
    2a70:	55450513          	addi	a0,a0,1364 # 55555554 <_end+0x5554f550>
    2a74:	333335b7          	lui	a1,0x33333
    2a78:	33258593          	addi	a1,a1,818 # 33333332 <_end+0x3332d32e>
    2a7c:	00b54633          	xor	a2,a0,a1
    2a80:	48c6ae23          	sw	a2,1180(a3)

00002a84 <inst_314>:
    2a84:	55555537          	lui	a0,0x55555
    2a88:	55450513          	addi	a0,a0,1364 # 55555554 <_end+0x5554f550>
    2a8c:	666665b7          	lui	a1,0x66666
    2a90:	66558593          	addi	a1,a1,1637 # 66666665 <_end+0x66660661>
    2a94:	00b54633          	xor	a2,a0,a1
    2a98:	4ac6a023          	sw	a2,1184(a3)

00002a9c <inst_315>:
    2a9c:	55555537          	lui	a0,0x55555
    2aa0:	55450513          	addi	a0,a0,1364 # 55555554 <_end+0x5554f550>
    2aa4:	0000b5b7          	lui	a1,0xb
    2aa8:	50358593          	addi	a1,a1,1283 # b503 <_end+0x54ff>
    2aac:	00b54633          	xor	a2,a0,a1
    2ab0:	4ac6a223          	sw	a2,1188(a3)

00002ab4 <inst_316>:
    2ab4:	55555537          	lui	a0,0x55555
    2ab8:	55450513          	addi	a0,a0,1364 # 55555554 <_end+0x5554f550>
    2abc:	555555b7          	lui	a1,0x55555
    2ac0:	55658593          	addi	a1,a1,1366 # 55555556 <_end+0x5554f552>
    2ac4:	00b54633          	xor	a2,a0,a1
    2ac8:	4ac6a423          	sw	a2,1192(a3)

00002acc <inst_317>:
    2acc:	55555537          	lui	a0,0x55555
    2ad0:	55450513          	addi	a0,a0,1364 # 55555554 <_end+0x5554f550>
    2ad4:	aaaab5b7          	lui	a1,0xaaaab
    2ad8:	aab58593          	addi	a1,a1,-1365 # aaaaaaab <_end+0xaaaa4aa7>
    2adc:	00b54633          	xor	a2,a0,a1
    2ae0:	4ac6a623          	sw	a2,1196(a3)

00002ae4 <inst_318>:
    2ae4:	55555537          	lui	a0,0x55555
    2ae8:	55450513          	addi	a0,a0,1364 # 55555554 <_end+0x5554f550>
    2aec:	00600593          	li	a1,6
    2af0:	00b54633          	xor	a2,a0,a1
    2af4:	4ac6a823          	sw	a2,1200(a3)

00002af8 <inst_319>:
    2af8:	55555537          	lui	a0,0x55555
    2afc:	55450513          	addi	a0,a0,1364 # 55555554 <_end+0x5554f550>
    2b00:	333335b7          	lui	a1,0x33333
    2b04:	33458593          	addi	a1,a1,820 # 33333334 <_end+0x3332d330>
    2b08:	00b54633          	xor	a2,a0,a1
    2b0c:	4ac6aa23          	sw	a2,1204(a3)

00002b10 <inst_320>:
    2b10:	55555537          	lui	a0,0x55555
    2b14:	55450513          	addi	a0,a0,1364 # 55555554 <_end+0x5554f550>
    2b18:	666665b7          	lui	a1,0x66666
    2b1c:	66758593          	addi	a1,a1,1639 # 66666667 <_end+0x66660663>
    2b20:	00b54633          	xor	a2,a0,a1
    2b24:	4ac6ac23          	sw	a2,1208(a3)

00002b28 <inst_321>:
    2b28:	55555537          	lui	a0,0x55555
    2b2c:	55450513          	addi	a0,a0,1364 # 55555554 <_end+0x5554f550>
    2b30:	ffff55b7          	lui	a1,0xffff5
    2b34:	afd58593          	addi	a1,a1,-1283 # ffff4afd <_end+0xfffeeaf9>
    2b38:	00b54633          	xor	a2,a0,a1
    2b3c:	4ac6ae23          	sw	a2,1212(a3)

00002b40 <inst_322>:
    2b40:	55555537          	lui	a0,0x55555
    2b44:	55450513          	addi	a0,a0,1364 # 55555554 <_end+0x5554f550>
    2b48:	0000b5b7          	lui	a1,0xb
    2b4c:	50558593          	addi	a1,a1,1285 # b505 <_end+0x5501>
    2b50:	00b54633          	xor	a2,a0,a1
    2b54:	4cc6a023          	sw	a2,1216(a3)

00002b58 <inst_323>:
    2b58:	00000513          	li	a0,0
    2b5c:	00300593          	li	a1,3
    2b60:	00b54633          	xor	a2,a0,a1
    2b64:	4cc6a223          	sw	a2,1220(a3)

00002b68 <inst_324>:
    2b68:	00000513          	li	a0,0
    2b6c:	555555b7          	lui	a1,0x55555
    2b70:	55558593          	addi	a1,a1,1365 # 55555555 <_end+0x5554f551>
    2b74:	00b54633          	xor	a2,a0,a1
    2b78:	4cc6a423          	sw	a2,1224(a3)

00002b7c <inst_325>:
    2b7c:	00000513          	li	a0,0
    2b80:	aaaab5b7          	lui	a1,0xaaaab
    2b84:	aaa58593          	addi	a1,a1,-1366 # aaaaaaaa <_end+0xaaaa4aa6>
    2b88:	00b54633          	xor	a2,a0,a1
    2b8c:	4cc6a623          	sw	a2,1228(a3)

00002b90 <inst_326>:
    2b90:	00000513          	li	a0,0
    2b94:	00500593          	li	a1,5
    2b98:	00b54633          	xor	a2,a0,a1
    2b9c:	4cc6a823          	sw	a2,1232(a3)

00002ba0 <inst_327>:
    2ba0:	00000513          	li	a0,0
    2ba4:	333335b7          	lui	a1,0x33333
    2ba8:	33358593          	addi	a1,a1,819 # 33333333 <_end+0x3332d32f>
    2bac:	00b54633          	xor	a2,a0,a1
    2bb0:	4cc6aa23          	sw	a2,1236(a3)

00002bb4 <inst_328>:
    2bb4:	00000513          	li	a0,0
    2bb8:	666665b7          	lui	a1,0x66666
    2bbc:	66658593          	addi	a1,a1,1638 # 66666666 <_end+0x66660662>
    2bc0:	00b54633          	xor	a2,a0,a1
    2bc4:	4cc6ac23          	sw	a2,1240(a3)

00002bc8 <inst_329>:
    2bc8:	00000513          	li	a0,0
    2bcc:	0000b5b7          	lui	a1,0xb
    2bd0:	50458593          	addi	a1,a1,1284 # b504 <_end+0x5500>
    2bd4:	00b54633          	xor	a2,a0,a1
    2bd8:	4cc6ae23          	sw	a2,1244(a3)

00002bdc <inst_330>:
    2bdc:	aaaab537          	lui	a0,0xaaaab
    2be0:	aab50513          	addi	a0,a0,-1365 # aaaaaaab <_end+0xaaaa4aa7>
    2be4:	aaaab5b7          	lui	a1,0xaaaab
    2be8:	aab58593          	addi	a1,a1,-1365 # aaaaaaab <_end+0xaaaa4aa7>
    2bec:	00b54633          	xor	a2,a0,a1
    2bf0:	4ec6a023          	sw	a2,1248(a3)

00002bf4 <inst_331>:
    2bf4:	aaaab537          	lui	a0,0xaaaab
    2bf8:	aab50513          	addi	a0,a0,-1365 # aaaaaaab <_end+0xaaaa4aa7>
    2bfc:	00600593          	li	a1,6
    2c00:	00b54633          	xor	a2,a0,a1
    2c04:	4ec6a223          	sw	a2,1252(a3)

00002c08 <inst_332>:
    2c08:	aaaab537          	lui	a0,0xaaaab
    2c0c:	aab50513          	addi	a0,a0,-1365 # aaaaaaab <_end+0xaaaa4aa7>
    2c10:	333335b7          	lui	a1,0x33333
    2c14:	33458593          	addi	a1,a1,820 # 33333334 <_end+0x3332d330>
    2c18:	00b54633          	xor	a2,a0,a1
    2c1c:	4ec6a423          	sw	a2,1256(a3)

00002c20 <inst_333>:
    2c20:	aaaab537          	lui	a0,0xaaaab
    2c24:	aab50513          	addi	a0,a0,-1365 # aaaaaaab <_end+0xaaaa4aa7>
    2c28:	666665b7          	lui	a1,0x66666
    2c2c:	66758593          	addi	a1,a1,1639 # 66666667 <_end+0x66660663>
    2c30:	00b54633          	xor	a2,a0,a1
    2c34:	4ec6a623          	sw	a2,1260(a3)

00002c38 <inst_334>:
    2c38:	aaaab537          	lui	a0,0xaaaab
    2c3c:	aab50513          	addi	a0,a0,-1365 # aaaaaaab <_end+0xaaaa4aa7>
    2c40:	ffff55b7          	lui	a1,0xffff5
    2c44:	afd58593          	addi	a1,a1,-1283 # ffff4afd <_end+0xfffeeaf9>
    2c48:	00b54633          	xor	a2,a0,a1
    2c4c:	4ec6a823          	sw	a2,1264(a3)

00002c50 <inst_335>:
    2c50:	aaaab537          	lui	a0,0xaaaab
    2c54:	aab50513          	addi	a0,a0,-1365 # aaaaaaab <_end+0xaaaa4aa7>
    2c58:	0000b5b7          	lui	a1,0xb
    2c5c:	50558593          	addi	a1,a1,1285 # b505 <_end+0x5501>
    2c60:	00b54633          	xor	a2,a0,a1
    2c64:	4ec6aa23          	sw	a2,1268(a3)

00002c68 <inst_336>:
    2c68:	00600513          	li	a0,6
    2c6c:	00300593          	li	a1,3
    2c70:	00b54633          	xor	a2,a0,a1
    2c74:	4ec6ac23          	sw	a2,1272(a3)

00002c78 <inst_337>:
    2c78:	00600513          	li	a0,6
    2c7c:	555555b7          	lui	a1,0x55555
    2c80:	55558593          	addi	a1,a1,1365 # 55555555 <_end+0x5554f551>
    2c84:	00b54633          	xor	a2,a0,a1
    2c88:	4ec6ae23          	sw	a2,1276(a3)

00002c8c <inst_338>:
    2c8c:	00600513          	li	a0,6
    2c90:	aaaab5b7          	lui	a1,0xaaaab
    2c94:	aaa58593          	addi	a1,a1,-1366 # aaaaaaaa <_end+0xaaaa4aa6>
    2c98:	00b54633          	xor	a2,a0,a1
    2c9c:	50c6a023          	sw	a2,1280(a3)

00002ca0 <inst_339>:
    2ca0:	00600513          	li	a0,6
    2ca4:	00500593          	li	a1,5
    2ca8:	00b54633          	xor	a2,a0,a1
    2cac:	50c6a223          	sw	a2,1284(a3)

00002cb0 <inst_340>:
    2cb0:	00600513          	li	a0,6
    2cb4:	333335b7          	lui	a1,0x33333
    2cb8:	33358593          	addi	a1,a1,819 # 33333333 <_end+0x3332d32f>
    2cbc:	00b54633          	xor	a2,a0,a1
    2cc0:	50c6a423          	sw	a2,1288(a3)

00002cc4 <inst_341>:
    2cc4:	00600513          	li	a0,6
    2cc8:	666665b7          	lui	a1,0x66666
    2ccc:	66658593          	addi	a1,a1,1638 # 66666666 <_end+0x66660662>
    2cd0:	00b54633          	xor	a2,a0,a1
    2cd4:	50c6a623          	sw	a2,1292(a3)

00002cd8 <inst_342>:
    2cd8:	00600513          	li	a0,6
    2cdc:	ffff55b7          	lui	a1,0xffff5
    2ce0:	afc58593          	addi	a1,a1,-1284 # ffff4afc <_end+0xfffeeaf8>
    2ce4:	00b54633          	xor	a2,a0,a1
    2ce8:	50c6a823          	sw	a2,1296(a3)

00002cec <inst_343>:
    2cec:	00600513          	li	a0,6
    2cf0:	0000b5b7          	lui	a1,0xb
    2cf4:	50458593          	addi	a1,a1,1284 # b504 <_end+0x5500>
    2cf8:	00b54633          	xor	a2,a0,a1
    2cfc:	50c6aa23          	sw	a2,1300(a3)

00002d00 <inst_344>:
    2d00:	00600513          	li	a0,6
    2d04:	00200593          	li	a1,2
    2d08:	00b54633          	xor	a2,a0,a1
    2d0c:	50c6ac23          	sw	a2,1304(a3)

00002d10 <inst_345>:
    2d10:	00600513          	li	a0,6
    2d14:	555555b7          	lui	a1,0x55555
    2d18:	55458593          	addi	a1,a1,1364 # 55555554 <_end+0x5554f550>
    2d1c:	00b54633          	xor	a2,a0,a1
    2d20:	50c6ae23          	sw	a2,1308(a3)

00002d24 <inst_346>:
    2d24:	00600513          	li	a0,6
    2d28:	00000593          	li	a1,0
    2d2c:	00b54633          	xor	a2,a0,a1
    2d30:	52c6a023          	sw	a2,1312(a3)

00002d34 <inst_347>:
    2d34:	00600513          	li	a0,6
    2d38:	00400593          	li	a1,4
    2d3c:	00b54633          	xor	a2,a0,a1
    2d40:	52c6a223          	sw	a2,1316(a3)

00002d44 <inst_348>:
    2d44:	00600513          	li	a0,6
    2d48:	333335b7          	lui	a1,0x33333
    2d4c:	33258593          	addi	a1,a1,818 # 33333332 <_end+0x3332d32e>
    2d50:	00b54633          	xor	a2,a0,a1
    2d54:	52c6a423          	sw	a2,1320(a3)

00002d58 <inst_349>:
    2d58:	00600513          	li	a0,6
    2d5c:	666665b7          	lui	a1,0x66666
    2d60:	66558593          	addi	a1,a1,1637 # 66666665 <_end+0x66660661>
    2d64:	00b54633          	xor	a2,a0,a1
    2d68:	52c6a623          	sw	a2,1324(a3)

00002d6c <inst_350>:
    2d6c:	00600513          	li	a0,6
    2d70:	0000b5b7          	lui	a1,0xb
    2d74:	50358593          	addi	a1,a1,1283 # b503 <_end+0x54ff>
    2d78:	00b54633          	xor	a2,a0,a1
    2d7c:	52c6a823          	sw	a2,1328(a3)

00002d80 <inst_351>:
    2d80:	00600513          	li	a0,6
    2d84:	555555b7          	lui	a1,0x55555
    2d88:	55658593          	addi	a1,a1,1366 # 55555556 <_end+0x5554f552>
    2d8c:	00b54633          	xor	a2,a0,a1
    2d90:	52c6aa23          	sw	a2,1332(a3)

00002d94 <inst_352>:
    2d94:	00600513          	li	a0,6
    2d98:	aaaab5b7          	lui	a1,0xaaaab
    2d9c:	aab58593          	addi	a1,a1,-1365 # aaaaaaab <_end+0xaaaa4aa7>
    2da0:	00b54633          	xor	a2,a0,a1
    2da4:	52c6ac23          	sw	a2,1336(a3)

00002da8 <inst_353>:
    2da8:	00600513          	li	a0,6
    2dac:	00600593          	li	a1,6
    2db0:	00b54633          	xor	a2,a0,a1
    2db4:	52c6ae23          	sw	a2,1340(a3)

00002db8 <inst_354>:
    2db8:	00600513          	li	a0,6
    2dbc:	333335b7          	lui	a1,0x33333
    2dc0:	33458593          	addi	a1,a1,820 # 33333334 <_end+0x3332d330>
    2dc4:	00b54633          	xor	a2,a0,a1
    2dc8:	54c6a023          	sw	a2,1344(a3)

00002dcc <inst_355>:
    2dcc:	00600513          	li	a0,6
    2dd0:	666665b7          	lui	a1,0x66666
    2dd4:	66758593          	addi	a1,a1,1639 # 66666667 <_end+0x66660663>
    2dd8:	00b54633          	xor	a2,a0,a1
    2ddc:	54c6a223          	sw	a2,1348(a3)

00002de0 <inst_356>:
    2de0:	00600513          	li	a0,6
    2de4:	ffff55b7          	lui	a1,0xffff5
    2de8:	afd58593          	addi	a1,a1,-1283 # ffff4afd <_end+0xfffeeaf9>
    2dec:	00b54633          	xor	a2,a0,a1
    2df0:	54c6a423          	sw	a2,1352(a3)

00002df4 <inst_357>:
    2df4:	00600513          	li	a0,6
    2df8:	0000b5b7          	lui	a1,0xb
    2dfc:	50558593          	addi	a1,a1,1285 # b505 <_end+0x5501>
    2e00:	00b54633          	xor	a2,a0,a1
    2e04:	54c6a623          	sw	a2,1356(a3)

00002e08 <inst_358>:
    2e08:	33333537          	lui	a0,0x33333
    2e0c:	33450513          	addi	a0,a0,820 # 33333334 <_end+0x3332d330>
    2e10:	00300593          	li	a1,3
    2e14:	00b54633          	xor	a2,a0,a1
    2e18:	54c6a823          	sw	a2,1360(a3)

00002e1c <inst_359>:
    2e1c:	33333537          	lui	a0,0x33333
    2e20:	33450513          	addi	a0,a0,820 # 33333334 <_end+0x3332d330>
    2e24:	555555b7          	lui	a1,0x55555
    2e28:	55558593          	addi	a1,a1,1365 # 55555555 <_end+0x5554f551>
    2e2c:	00b54633          	xor	a2,a0,a1
    2e30:	54c6aa23          	sw	a2,1364(a3)

00002e34 <inst_360>:
    2e34:	33333537          	lui	a0,0x33333
    2e38:	33450513          	addi	a0,a0,820 # 33333334 <_end+0x3332d330>
    2e3c:	aaaab5b7          	lui	a1,0xaaaab
    2e40:	aaa58593          	addi	a1,a1,-1366 # aaaaaaaa <_end+0xaaaa4aa6>
    2e44:	00b54633          	xor	a2,a0,a1
    2e48:	54c6ac23          	sw	a2,1368(a3)

00002e4c <inst_361>:
    2e4c:	33333537          	lui	a0,0x33333
    2e50:	33450513          	addi	a0,a0,820 # 33333334 <_end+0x3332d330>
    2e54:	00500593          	li	a1,5
    2e58:	00b54633          	xor	a2,a0,a1
    2e5c:	54c6ae23          	sw	a2,1372(a3)

00002e60 <inst_362>:
    2e60:	33333537          	lui	a0,0x33333
    2e64:	33450513          	addi	a0,a0,820 # 33333334 <_end+0x3332d330>
    2e68:	333335b7          	lui	a1,0x33333
    2e6c:	33358593          	addi	a1,a1,819 # 33333333 <_end+0x3332d32f>
    2e70:	00b54633          	xor	a2,a0,a1
    2e74:	56c6a023          	sw	a2,1376(a3)

00002e78 <inst_363>:
    2e78:	33333537          	lui	a0,0x33333
    2e7c:	33450513          	addi	a0,a0,820 # 33333334 <_end+0x3332d330>
    2e80:	666665b7          	lui	a1,0x66666
    2e84:	66658593          	addi	a1,a1,1638 # 66666666 <_end+0x66660662>
    2e88:	00b54633          	xor	a2,a0,a1
    2e8c:	56c6a223          	sw	a2,1380(a3)

00002e90 <inst_364>:
    2e90:	33333537          	lui	a0,0x33333
    2e94:	33450513          	addi	a0,a0,820 # 33333334 <_end+0x3332d330>
    2e98:	ffff55b7          	lui	a1,0xffff5
    2e9c:	afc58593          	addi	a1,a1,-1284 # ffff4afc <_end+0xfffeeaf8>
    2ea0:	00b54633          	xor	a2,a0,a1
    2ea4:	56c6a423          	sw	a2,1384(a3)

00002ea8 <inst_365>:
    2ea8:	33333537          	lui	a0,0x33333
    2eac:	33450513          	addi	a0,a0,820 # 33333334 <_end+0x3332d330>
    2eb0:	0000b5b7          	lui	a1,0xb
    2eb4:	50458593          	addi	a1,a1,1284 # b504 <_end+0x5500>
    2eb8:	00b54633          	xor	a2,a0,a1
    2ebc:	56c6a623          	sw	a2,1388(a3)

00002ec0 <inst_366>:
    2ec0:	33333537          	lui	a0,0x33333
    2ec4:	33450513          	addi	a0,a0,820 # 33333334 <_end+0x3332d330>
    2ec8:	00200593          	li	a1,2
    2ecc:	00b54633          	xor	a2,a0,a1
    2ed0:	56c6a823          	sw	a2,1392(a3)

00002ed4 <inst_367>:
    2ed4:	33333537          	lui	a0,0x33333
    2ed8:	33450513          	addi	a0,a0,820 # 33333334 <_end+0x3332d330>
    2edc:	555555b7          	lui	a1,0x55555
    2ee0:	55458593          	addi	a1,a1,1364 # 55555554 <_end+0x5554f550>
    2ee4:	00b54633          	xor	a2,a0,a1
    2ee8:	56c6aa23          	sw	a2,1396(a3)

00002eec <inst_368>:
    2eec:	33333537          	lui	a0,0x33333
    2ef0:	33450513          	addi	a0,a0,820 # 33333334 <_end+0x3332d330>
    2ef4:	00000593          	li	a1,0
    2ef8:	00b54633          	xor	a2,a0,a1
    2efc:	56c6ac23          	sw	a2,1400(a3)

00002f00 <inst_369>:
    2f00:	33333537          	lui	a0,0x33333
    2f04:	33450513          	addi	a0,a0,820 # 33333334 <_end+0x3332d330>
    2f08:	00400593          	li	a1,4
    2f0c:	00b54633          	xor	a2,a0,a1
    2f10:	56c6ae23          	sw	a2,1404(a3)

00002f14 <inst_370>:
    2f14:	33333537          	lui	a0,0x33333
    2f18:	33450513          	addi	a0,a0,820 # 33333334 <_end+0x3332d330>
    2f1c:	333335b7          	lui	a1,0x33333
    2f20:	33258593          	addi	a1,a1,818 # 33333332 <_end+0x3332d32e>
    2f24:	00b54633          	xor	a2,a0,a1
    2f28:	58c6a023          	sw	a2,1408(a3)

00002f2c <inst_371>:
    2f2c:	33333537          	lui	a0,0x33333
    2f30:	33450513          	addi	a0,a0,820 # 33333334 <_end+0x3332d330>
    2f34:	666665b7          	lui	a1,0x66666
    2f38:	66558593          	addi	a1,a1,1637 # 66666665 <_end+0x66660661>
    2f3c:	00b54633          	xor	a2,a0,a1
    2f40:	58c6a223          	sw	a2,1412(a3)

00002f44 <inst_372>:
    2f44:	33333537          	lui	a0,0x33333
    2f48:	33450513          	addi	a0,a0,820 # 33333334 <_end+0x3332d330>
    2f4c:	0000b5b7          	lui	a1,0xb
    2f50:	50358593          	addi	a1,a1,1283 # b503 <_end+0x54ff>
    2f54:	00b54633          	xor	a2,a0,a1
    2f58:	58c6a423          	sw	a2,1416(a3)

00002f5c <inst_373>:
    2f5c:	33333537          	lui	a0,0x33333
    2f60:	33450513          	addi	a0,a0,820 # 33333334 <_end+0x3332d330>
    2f64:	555555b7          	lui	a1,0x55555
    2f68:	55658593          	addi	a1,a1,1366 # 55555556 <_end+0x5554f552>
    2f6c:	00b54633          	xor	a2,a0,a1
    2f70:	58c6a623          	sw	a2,1420(a3)

00002f74 <inst_374>:
    2f74:	33333537          	lui	a0,0x33333
    2f78:	33450513          	addi	a0,a0,820 # 33333334 <_end+0x3332d330>
    2f7c:	aaaab5b7          	lui	a1,0xaaaab
    2f80:	aab58593          	addi	a1,a1,-1365 # aaaaaaab <_end+0xaaaa4aa7>
    2f84:	00b54633          	xor	a2,a0,a1
    2f88:	58c6a823          	sw	a2,1424(a3)

00002f8c <inst_375>:
    2f8c:	33333537          	lui	a0,0x33333
    2f90:	33450513          	addi	a0,a0,820 # 33333334 <_end+0x3332d330>
    2f94:	00600593          	li	a1,6
    2f98:	00b54633          	xor	a2,a0,a1
    2f9c:	58c6aa23          	sw	a2,1428(a3)

00002fa0 <inst_376>:
    2fa0:	33333537          	lui	a0,0x33333
    2fa4:	33450513          	addi	a0,a0,820 # 33333334 <_end+0x3332d330>
    2fa8:	333335b7          	lui	a1,0x33333
    2fac:	33458593          	addi	a1,a1,820 # 33333334 <_end+0x3332d330>
    2fb0:	00b54633          	xor	a2,a0,a1
    2fb4:	58c6ac23          	sw	a2,1432(a3)

00002fb8 <inst_377>:
    2fb8:	33333537          	lui	a0,0x33333
    2fbc:	33450513          	addi	a0,a0,820 # 33333334 <_end+0x3332d330>
    2fc0:	666665b7          	lui	a1,0x66666
    2fc4:	66758593          	addi	a1,a1,1639 # 66666667 <_end+0x66660663>
    2fc8:	00b54633          	xor	a2,a0,a1
    2fcc:	58c6ae23          	sw	a2,1436(a3)

00002fd0 <inst_378>:
    2fd0:	33333537          	lui	a0,0x33333
    2fd4:	33450513          	addi	a0,a0,820 # 33333334 <_end+0x3332d330>
    2fd8:	ffff55b7          	lui	a1,0xffff5
    2fdc:	afd58593          	addi	a1,a1,-1283 # ffff4afd <_end+0xfffeeaf9>
    2fe0:	00b54633          	xor	a2,a0,a1
    2fe4:	5ac6a023          	sw	a2,1440(a3)

00002fe8 <inst_379>:
    2fe8:	33333537          	lui	a0,0x33333
    2fec:	33450513          	addi	a0,a0,820 # 33333334 <_end+0x3332d330>
    2ff0:	0000b5b7          	lui	a1,0xb
    2ff4:	50558593          	addi	a1,a1,1285 # b505 <_end+0x5501>
    2ff8:	00b54633          	xor	a2,a0,a1
    2ffc:	5ac6a223          	sw	a2,1444(a3)

00003000 <inst_380>:
    3000:	66666537          	lui	a0,0x66666
    3004:	66750513          	addi	a0,a0,1639 # 66666667 <_end+0x66660663>
    3008:	00300593          	li	a1,3
    300c:	00b54633          	xor	a2,a0,a1
    3010:	5ac6a423          	sw	a2,1448(a3)

00003014 <inst_381>:
    3014:	66666537          	lui	a0,0x66666
    3018:	66750513          	addi	a0,a0,1639 # 66666667 <_end+0x66660663>
    301c:	555555b7          	lui	a1,0x55555
    3020:	55558593          	addi	a1,a1,1365 # 55555555 <_end+0x5554f551>
    3024:	00b54633          	xor	a2,a0,a1
    3028:	5ac6a623          	sw	a2,1452(a3)

0000302c <inst_382>:
    302c:	66666537          	lui	a0,0x66666
    3030:	66750513          	addi	a0,a0,1639 # 66666667 <_end+0x66660663>
    3034:	aaaab5b7          	lui	a1,0xaaaab
    3038:	aaa58593          	addi	a1,a1,-1366 # aaaaaaaa <_end+0xaaaa4aa6>
    303c:	00b54633          	xor	a2,a0,a1
    3040:	5ac6a823          	sw	a2,1456(a3)

00003044 <inst_383>:
    3044:	66666537          	lui	a0,0x66666
    3048:	66750513          	addi	a0,a0,1639 # 66666667 <_end+0x66660663>
    304c:	00500593          	li	a1,5
    3050:	00b54633          	xor	a2,a0,a1
    3054:	5ac6aa23          	sw	a2,1460(a3)

00003058 <inst_384>:
    3058:	66666537          	lui	a0,0x66666
    305c:	66750513          	addi	a0,a0,1639 # 66666667 <_end+0x66660663>
    3060:	333335b7          	lui	a1,0x33333
    3064:	33358593          	addi	a1,a1,819 # 33333333 <_end+0x3332d32f>
    3068:	00b54633          	xor	a2,a0,a1
    306c:	5ac6ac23          	sw	a2,1464(a3)

00003070 <inst_385>:
    3070:	66666537          	lui	a0,0x66666
    3074:	66750513          	addi	a0,a0,1639 # 66666667 <_end+0x66660663>
    3078:	666665b7          	lui	a1,0x66666
    307c:	66658593          	addi	a1,a1,1638 # 66666666 <_end+0x66660662>
    3080:	00b54633          	xor	a2,a0,a1
    3084:	5ac6ae23          	sw	a2,1468(a3)

00003088 <inst_386>:
    3088:	66666537          	lui	a0,0x66666
    308c:	66750513          	addi	a0,a0,1639 # 66666667 <_end+0x66660663>
    3090:	ffff55b7          	lui	a1,0xffff5
    3094:	afc58593          	addi	a1,a1,-1284 # ffff4afc <_end+0xfffeeaf8>
    3098:	00b54633          	xor	a2,a0,a1
    309c:	5cc6a023          	sw	a2,1472(a3)

000030a0 <inst_387>:
    30a0:	66666537          	lui	a0,0x66666
    30a4:	66750513          	addi	a0,a0,1639 # 66666667 <_end+0x66660663>
    30a8:	0000b5b7          	lui	a1,0xb
    30ac:	50458593          	addi	a1,a1,1284 # b504 <_end+0x5500>
    30b0:	00b54633          	xor	a2,a0,a1
    30b4:	5cc6a223          	sw	a2,1476(a3)

000030b8 <inst_388>:
    30b8:	66666537          	lui	a0,0x66666
    30bc:	66750513          	addi	a0,a0,1639 # 66666667 <_end+0x66660663>
    30c0:	00200593          	li	a1,2
    30c4:	00b54633          	xor	a2,a0,a1
    30c8:	5cc6a423          	sw	a2,1480(a3)

000030cc <inst_389>:
    30cc:	66666537          	lui	a0,0x66666
    30d0:	66750513          	addi	a0,a0,1639 # 66666667 <_end+0x66660663>
    30d4:	555555b7          	lui	a1,0x55555
    30d8:	55458593          	addi	a1,a1,1364 # 55555554 <_end+0x5554f550>
    30dc:	00b54633          	xor	a2,a0,a1
    30e0:	5cc6a623          	sw	a2,1484(a3)

000030e4 <inst_390>:
    30e4:	66666537          	lui	a0,0x66666
    30e8:	66750513          	addi	a0,a0,1639 # 66666667 <_end+0x66660663>
    30ec:	00000593          	li	a1,0
    30f0:	00b54633          	xor	a2,a0,a1
    30f4:	5cc6a823          	sw	a2,1488(a3)

000030f8 <inst_391>:
    30f8:	66666537          	lui	a0,0x66666
    30fc:	66750513          	addi	a0,a0,1639 # 66666667 <_end+0x66660663>
    3100:	00400593          	li	a1,4
    3104:	00b54633          	xor	a2,a0,a1
    3108:	5cc6aa23          	sw	a2,1492(a3)

0000310c <inst_392>:
    310c:	66666537          	lui	a0,0x66666
    3110:	66750513          	addi	a0,a0,1639 # 66666667 <_end+0x66660663>
    3114:	333335b7          	lui	a1,0x33333
    3118:	33258593          	addi	a1,a1,818 # 33333332 <_end+0x3332d32e>
    311c:	00b54633          	xor	a2,a0,a1
    3120:	5cc6ac23          	sw	a2,1496(a3)

00003124 <inst_393>:
    3124:	66666537          	lui	a0,0x66666
    3128:	66750513          	addi	a0,a0,1639 # 66666667 <_end+0x66660663>
    312c:	666665b7          	lui	a1,0x66666
    3130:	66558593          	addi	a1,a1,1637 # 66666665 <_end+0x66660661>
    3134:	00b54633          	xor	a2,a0,a1
    3138:	5cc6ae23          	sw	a2,1500(a3)

0000313c <inst_394>:
    313c:	66666537          	lui	a0,0x66666
    3140:	66750513          	addi	a0,a0,1639 # 66666667 <_end+0x66660663>
    3144:	0000b5b7          	lui	a1,0xb
    3148:	50358593          	addi	a1,a1,1283 # b503 <_end+0x54ff>
    314c:	00b54633          	xor	a2,a0,a1
    3150:	5ec6a023          	sw	a2,1504(a3)

00003154 <inst_395>:
    3154:	66666537          	lui	a0,0x66666
    3158:	66750513          	addi	a0,a0,1639 # 66666667 <_end+0x66660663>
    315c:	555555b7          	lui	a1,0x55555
    3160:	55658593          	addi	a1,a1,1366 # 55555556 <_end+0x5554f552>
    3164:	00b54633          	xor	a2,a0,a1
    3168:	5ec6a223          	sw	a2,1508(a3)

0000316c <inst_396>:
    316c:	66666537          	lui	a0,0x66666
    3170:	66750513          	addi	a0,a0,1639 # 66666667 <_end+0x66660663>
    3174:	aaaab5b7          	lui	a1,0xaaaab
    3178:	aab58593          	addi	a1,a1,-1365 # aaaaaaab <_end+0xaaaa4aa7>
    317c:	00b54633          	xor	a2,a0,a1
    3180:	5ec6a423          	sw	a2,1512(a3)

00003184 <inst_397>:
    3184:	66666537          	lui	a0,0x66666
    3188:	66750513          	addi	a0,a0,1639 # 66666667 <_end+0x66660663>
    318c:	00600593          	li	a1,6
    3190:	00b54633          	xor	a2,a0,a1
    3194:	5ec6a623          	sw	a2,1516(a3)

00003198 <inst_398>:
    3198:	66666537          	lui	a0,0x66666
    319c:	66750513          	addi	a0,a0,1639 # 66666667 <_end+0x66660663>
    31a0:	333335b7          	lui	a1,0x33333
    31a4:	33458593          	addi	a1,a1,820 # 33333334 <_end+0x3332d330>
    31a8:	00b54633          	xor	a2,a0,a1
    31ac:	5ec6a823          	sw	a2,1520(a3)

000031b0 <inst_399>:
    31b0:	66666537          	lui	a0,0x66666
    31b4:	66750513          	addi	a0,a0,1639 # 66666667 <_end+0x66660663>
    31b8:	666665b7          	lui	a1,0x66666
    31bc:	66758593          	addi	a1,a1,1639 # 66666667 <_end+0x66660663>
    31c0:	00b54633          	xor	a2,a0,a1
    31c4:	5ec6aa23          	sw	a2,1524(a3)

000031c8 <inst_400>:
    31c8:	66666537          	lui	a0,0x66666
    31cc:	66750513          	addi	a0,a0,1639 # 66666667 <_end+0x66660663>
    31d0:	ffff55b7          	lui	a1,0xffff5
    31d4:	afd58593          	addi	a1,a1,-1283 # ffff4afd <_end+0xfffeeaf9>
    31d8:	00b54633          	xor	a2,a0,a1
    31dc:	5ec6ac23          	sw	a2,1528(a3)

000031e0 <inst_401>:
    31e0:	66666537          	lui	a0,0x66666
    31e4:	66750513          	addi	a0,a0,1639 # 66666667 <_end+0x66660663>
    31e8:	0000b5b7          	lui	a1,0xb
    31ec:	50558593          	addi	a1,a1,1285 # b505 <_end+0x5501>
    31f0:	00b54633          	xor	a2,a0,a1
    31f4:	5ec6ae23          	sw	a2,1532(a3)

000031f8 <inst_402>:
    31f8:	ffff5537          	lui	a0,0xffff5
    31fc:	afd50513          	addi	a0,a0,-1283 # ffff4afd <_end+0xfffeeaf9>
    3200:	00300593          	li	a1,3
    3204:	00b54633          	xor	a2,a0,a1
    3208:	60c6a023          	sw	a2,1536(a3)

0000320c <inst_403>:
    320c:	ffff5537          	lui	a0,0xffff5
    3210:	afd50513          	addi	a0,a0,-1283 # ffff4afd <_end+0xfffeeaf9>
    3214:	555555b7          	lui	a1,0x55555
    3218:	55558593          	addi	a1,a1,1365 # 55555555 <_end+0x5554f551>
    321c:	00b54633          	xor	a2,a0,a1
    3220:	60c6a223          	sw	a2,1540(a3)

00003224 <inst_404>:
    3224:	ffff5537          	lui	a0,0xffff5
    3228:	afd50513          	addi	a0,a0,-1283 # ffff4afd <_end+0xfffeeaf9>
    322c:	aaaab5b7          	lui	a1,0xaaaab
    3230:	aaa58593          	addi	a1,a1,-1366 # aaaaaaaa <_end+0xaaaa4aa6>
    3234:	00b54633          	xor	a2,a0,a1
    3238:	60c6a423          	sw	a2,1544(a3)

0000323c <inst_405>:
    323c:	ffff5537          	lui	a0,0xffff5
    3240:	afd50513          	addi	a0,a0,-1283 # ffff4afd <_end+0xfffeeaf9>
    3244:	00500593          	li	a1,5
    3248:	00b54633          	xor	a2,a0,a1
    324c:	60c6a623          	sw	a2,1548(a3)

00003250 <inst_406>:
    3250:	ffff5537          	lui	a0,0xffff5
    3254:	afd50513          	addi	a0,a0,-1283 # ffff4afd <_end+0xfffeeaf9>
    3258:	333335b7          	lui	a1,0x33333
    325c:	33358593          	addi	a1,a1,819 # 33333333 <_end+0x3332d32f>
    3260:	00b54633          	xor	a2,a0,a1
    3264:	60c6a823          	sw	a2,1552(a3)

00003268 <inst_407>:
    3268:	ffff5537          	lui	a0,0xffff5
    326c:	afd50513          	addi	a0,a0,-1283 # ffff4afd <_end+0xfffeeaf9>
    3270:	666665b7          	lui	a1,0x66666
    3274:	66658593          	addi	a1,a1,1638 # 66666666 <_end+0x66660662>
    3278:	00b54633          	xor	a2,a0,a1
    327c:	60c6aa23          	sw	a2,1556(a3)

00003280 <inst_408>:
    3280:	ffff5537          	lui	a0,0xffff5
    3284:	afd50513          	addi	a0,a0,-1283 # ffff4afd <_end+0xfffeeaf9>
    3288:	ffff55b7          	lui	a1,0xffff5
    328c:	afc58593          	addi	a1,a1,-1284 # ffff4afc <_end+0xfffeeaf8>
    3290:	00b54633          	xor	a2,a0,a1
    3294:	60c6ac23          	sw	a2,1560(a3)

00003298 <inst_409>:
    3298:	ffff5537          	lui	a0,0xffff5
    329c:	afd50513          	addi	a0,a0,-1283 # ffff4afd <_end+0xfffeeaf9>
    32a0:	0000b5b7          	lui	a1,0xb
    32a4:	50458593          	addi	a1,a1,1284 # b504 <_end+0x5500>
    32a8:	00b54633          	xor	a2,a0,a1
    32ac:	60c6ae23          	sw	a2,1564(a3)

000032b0 <inst_410>:
    32b0:	ffff5537          	lui	a0,0xffff5
    32b4:	afd50513          	addi	a0,a0,-1283 # ffff4afd <_end+0xfffeeaf9>
    32b8:	00200593          	li	a1,2
    32bc:	00b54633          	xor	a2,a0,a1
    32c0:	62c6a023          	sw	a2,1568(a3)

000032c4 <inst_411>:
    32c4:	ffff5537          	lui	a0,0xffff5
    32c8:	afd50513          	addi	a0,a0,-1283 # ffff4afd <_end+0xfffeeaf9>
    32cc:	555555b7          	lui	a1,0x55555
    32d0:	55458593          	addi	a1,a1,1364 # 55555554 <_end+0x5554f550>
    32d4:	00b54633          	xor	a2,a0,a1
    32d8:	62c6a223          	sw	a2,1572(a3)

000032dc <inst_412>:
    32dc:	ffff5537          	lui	a0,0xffff5
    32e0:	afd50513          	addi	a0,a0,-1283 # ffff4afd <_end+0xfffeeaf9>
    32e4:	00000593          	li	a1,0
    32e8:	00b54633          	xor	a2,a0,a1
    32ec:	62c6a423          	sw	a2,1576(a3)

000032f0 <inst_413>:
    32f0:	ffff5537          	lui	a0,0xffff5
    32f4:	afd50513          	addi	a0,a0,-1283 # ffff4afd <_end+0xfffeeaf9>
    32f8:	00400593          	li	a1,4
    32fc:	00b54633          	xor	a2,a0,a1
    3300:	62c6a623          	sw	a2,1580(a3)

00003304 <inst_414>:
    3304:	ffff5537          	lui	a0,0xffff5
    3308:	afd50513          	addi	a0,a0,-1283 # ffff4afd <_end+0xfffeeaf9>
    330c:	333335b7          	lui	a1,0x33333
    3310:	33258593          	addi	a1,a1,818 # 33333332 <_end+0x3332d32e>
    3314:	00b54633          	xor	a2,a0,a1
    3318:	62c6a823          	sw	a2,1584(a3)

0000331c <inst_415>:
    331c:	ffff5537          	lui	a0,0xffff5
    3320:	afd50513          	addi	a0,a0,-1283 # ffff4afd <_end+0xfffeeaf9>
    3324:	666665b7          	lui	a1,0x66666
    3328:	66558593          	addi	a1,a1,1637 # 66666665 <_end+0x66660661>
    332c:	00b54633          	xor	a2,a0,a1
    3330:	62c6aa23          	sw	a2,1588(a3)

00003334 <inst_416>:
    3334:	ffff5537          	lui	a0,0xffff5
    3338:	afd50513          	addi	a0,a0,-1283 # ffff4afd <_end+0xfffeeaf9>
    333c:	0000b5b7          	lui	a1,0xb
    3340:	50358593          	addi	a1,a1,1283 # b503 <_end+0x54ff>
    3344:	00b54633          	xor	a2,a0,a1
    3348:	62c6ac23          	sw	a2,1592(a3)

0000334c <inst_417>:
    334c:	ffff5537          	lui	a0,0xffff5
    3350:	afd50513          	addi	a0,a0,-1283 # ffff4afd <_end+0xfffeeaf9>
    3354:	555555b7          	lui	a1,0x55555
    3358:	55658593          	addi	a1,a1,1366 # 55555556 <_end+0x5554f552>
    335c:	00b54633          	xor	a2,a0,a1
    3360:	62c6ae23          	sw	a2,1596(a3)

00003364 <inst_418>:
    3364:	ffff5537          	lui	a0,0xffff5
    3368:	afd50513          	addi	a0,a0,-1283 # ffff4afd <_end+0xfffeeaf9>
    336c:	aaaab5b7          	lui	a1,0xaaaab
    3370:	aab58593          	addi	a1,a1,-1365 # aaaaaaab <_end+0xaaaa4aa7>
    3374:	00b54633          	xor	a2,a0,a1
    3378:	64c6a023          	sw	a2,1600(a3)

0000337c <inst_419>:
    337c:	ffff5537          	lui	a0,0xffff5
    3380:	afd50513          	addi	a0,a0,-1283 # ffff4afd <_end+0xfffeeaf9>
    3384:	00600593          	li	a1,6
    3388:	00b54633          	xor	a2,a0,a1
    338c:	64c6a223          	sw	a2,1604(a3)

00003390 <inst_420>:
    3390:	ffff5537          	lui	a0,0xffff5
    3394:	afd50513          	addi	a0,a0,-1283 # ffff4afd <_end+0xfffeeaf9>
    3398:	333335b7          	lui	a1,0x33333
    339c:	33458593          	addi	a1,a1,820 # 33333334 <_end+0x3332d330>
    33a0:	00b54633          	xor	a2,a0,a1
    33a4:	64c6a423          	sw	a2,1608(a3)

000033a8 <inst_421>:
    33a8:	ffff5537          	lui	a0,0xffff5
    33ac:	afd50513          	addi	a0,a0,-1283 # ffff4afd <_end+0xfffeeaf9>
    33b0:	666665b7          	lui	a1,0x66666
    33b4:	66758593          	addi	a1,a1,1639 # 66666667 <_end+0x66660663>
    33b8:	00b54633          	xor	a2,a0,a1
    33bc:	64c6a623          	sw	a2,1612(a3)

000033c0 <inst_422>:
    33c0:	ffff5537          	lui	a0,0xffff5
    33c4:	afd50513          	addi	a0,a0,-1283 # ffff4afd <_end+0xfffeeaf9>
    33c8:	ffff55b7          	lui	a1,0xffff5
    33cc:	afd58593          	addi	a1,a1,-1283 # ffff4afd <_end+0xfffeeaf9>
    33d0:	00b54633          	xor	a2,a0,a1
    33d4:	64c6a823          	sw	a2,1616(a3)

000033d8 <inst_423>:
    33d8:	ffff5537          	lui	a0,0xffff5
    33dc:	afd50513          	addi	a0,a0,-1283 # ffff4afd <_end+0xfffeeaf9>
    33e0:	0000b5b7          	lui	a1,0xb
    33e4:	50558593          	addi	a1,a1,1285 # b505 <_end+0x5501>
    33e8:	00b54633          	xor	a2,a0,a1
    33ec:	64c6aa23          	sw	a2,1620(a3)

000033f0 <inst_424>:
    33f0:	0000b537          	lui	a0,0xb
    33f4:	50550513          	addi	a0,a0,1285 # b505 <_end+0x5501>
    33f8:	00300593          	li	a1,3
    33fc:	00b54633          	xor	a2,a0,a1
    3400:	64c6ac23          	sw	a2,1624(a3)

00003404 <inst_425>:
    3404:	0000b537          	lui	a0,0xb
    3408:	50550513          	addi	a0,a0,1285 # b505 <_end+0x5501>
    340c:	555555b7          	lui	a1,0x55555
    3410:	55558593          	addi	a1,a1,1365 # 55555555 <_end+0x5554f551>
    3414:	00b54633          	xor	a2,a0,a1
    3418:	64c6ae23          	sw	a2,1628(a3)

0000341c <inst_426>:
    341c:	0000b537          	lui	a0,0xb
    3420:	50550513          	addi	a0,a0,1285 # b505 <_end+0x5501>
    3424:	aaaab5b7          	lui	a1,0xaaaab
    3428:	aaa58593          	addi	a1,a1,-1366 # aaaaaaaa <_end+0xaaaa4aa6>
    342c:	00b54633          	xor	a2,a0,a1
    3430:	66c6a023          	sw	a2,1632(a3)

00003434 <inst_427>:
    3434:	0000b537          	lui	a0,0xb
    3438:	50550513          	addi	a0,a0,1285 # b505 <_end+0x5501>
    343c:	00500593          	li	a1,5
    3440:	00b54633          	xor	a2,a0,a1
    3444:	66c6a223          	sw	a2,1636(a3)

00003448 <inst_428>:
    3448:	0000b537          	lui	a0,0xb
    344c:	50550513          	addi	a0,a0,1285 # b505 <_end+0x5501>
    3450:	333335b7          	lui	a1,0x33333
    3454:	33358593          	addi	a1,a1,819 # 33333333 <_end+0x3332d32f>
    3458:	00b54633          	xor	a2,a0,a1
    345c:	66c6a423          	sw	a2,1640(a3)

00003460 <inst_429>:
    3460:	0000b537          	lui	a0,0xb
    3464:	50550513          	addi	a0,a0,1285 # b505 <_end+0x5501>
    3468:	666665b7          	lui	a1,0x66666
    346c:	66658593          	addi	a1,a1,1638 # 66666666 <_end+0x66660662>
    3470:	00b54633          	xor	a2,a0,a1
    3474:	66c6a623          	sw	a2,1644(a3)

00003478 <inst_430>:
    3478:	0000b537          	lui	a0,0xb
    347c:	50550513          	addi	a0,a0,1285 # b505 <_end+0x5501>
    3480:	ffff55b7          	lui	a1,0xffff5
    3484:	afc58593          	addi	a1,a1,-1284 # ffff4afc <_end+0xfffeeaf8>
    3488:	00b54633          	xor	a2,a0,a1
    348c:	66c6a823          	sw	a2,1648(a3)

00003490 <inst_431>:
    3490:	0000b537          	lui	a0,0xb
    3494:	50550513          	addi	a0,a0,1285 # b505 <_end+0x5501>
    3498:	0000b5b7          	lui	a1,0xb
    349c:	50458593          	addi	a1,a1,1284 # b504 <_end+0x5500>
    34a0:	00b54633          	xor	a2,a0,a1
    34a4:	66c6aa23          	sw	a2,1652(a3)

000034a8 <inst_432>:
    34a8:	0000b537          	lui	a0,0xb
    34ac:	50550513          	addi	a0,a0,1285 # b505 <_end+0x5501>
    34b0:	00200593          	li	a1,2
    34b4:	00b54633          	xor	a2,a0,a1
    34b8:	66c6ac23          	sw	a2,1656(a3)

000034bc <inst_433>:
    34bc:	0000b537          	lui	a0,0xb
    34c0:	50550513          	addi	a0,a0,1285 # b505 <_end+0x5501>
    34c4:	555555b7          	lui	a1,0x55555
    34c8:	55458593          	addi	a1,a1,1364 # 55555554 <_end+0x5554f550>
    34cc:	00b54633          	xor	a2,a0,a1
    34d0:	66c6ae23          	sw	a2,1660(a3)

000034d4 <inst_434>:
    34d4:	0000b537          	lui	a0,0xb
    34d8:	50550513          	addi	a0,a0,1285 # b505 <_end+0x5501>
    34dc:	00000593          	li	a1,0
    34e0:	00b54633          	xor	a2,a0,a1
    34e4:	68c6a023          	sw	a2,1664(a3)

000034e8 <inst_435>:
    34e8:	0000b537          	lui	a0,0xb
    34ec:	50550513          	addi	a0,a0,1285 # b505 <_end+0x5501>
    34f0:	00400593          	li	a1,4
    34f4:	00b54633          	xor	a2,a0,a1
    34f8:	68c6a223          	sw	a2,1668(a3)

000034fc <inst_436>:
    34fc:	0000b537          	lui	a0,0xb
    3500:	50550513          	addi	a0,a0,1285 # b505 <_end+0x5501>
    3504:	333335b7          	lui	a1,0x33333
    3508:	33258593          	addi	a1,a1,818 # 33333332 <_end+0x3332d32e>
    350c:	00b54633          	xor	a2,a0,a1
    3510:	68c6a423          	sw	a2,1672(a3)

00003514 <inst_437>:
    3514:	0000b537          	lui	a0,0xb
    3518:	50550513          	addi	a0,a0,1285 # b505 <_end+0x5501>
    351c:	666665b7          	lui	a1,0x66666
    3520:	66558593          	addi	a1,a1,1637 # 66666665 <_end+0x66660661>
    3524:	00b54633          	xor	a2,a0,a1
    3528:	68c6a623          	sw	a2,1676(a3)

0000352c <inst_438>:
    352c:	0000b537          	lui	a0,0xb
    3530:	50550513          	addi	a0,a0,1285 # b505 <_end+0x5501>
    3534:	0000b5b7          	lui	a1,0xb
    3538:	50358593          	addi	a1,a1,1283 # b503 <_end+0x54ff>
    353c:	00b54633          	xor	a2,a0,a1
    3540:	68c6a823          	sw	a2,1680(a3)

00003544 <inst_439>:
    3544:	0000b537          	lui	a0,0xb
    3548:	50550513          	addi	a0,a0,1285 # b505 <_end+0x5501>
    354c:	555555b7          	lui	a1,0x55555
    3550:	55658593          	addi	a1,a1,1366 # 55555556 <_end+0x5554f552>
    3554:	00b54633          	xor	a2,a0,a1
    3558:	68c6aa23          	sw	a2,1684(a3)

0000355c <inst_440>:
    355c:	0000b537          	lui	a0,0xb
    3560:	50550513          	addi	a0,a0,1285 # b505 <_end+0x5501>
    3564:	aaaab5b7          	lui	a1,0xaaaab
    3568:	aab58593          	addi	a1,a1,-1365 # aaaaaaab <_end+0xaaaa4aa7>
    356c:	00b54633          	xor	a2,a0,a1
    3570:	68c6ac23          	sw	a2,1688(a3)

00003574 <inst_441>:
    3574:	0000b537          	lui	a0,0xb
    3578:	50550513          	addi	a0,a0,1285 # b505 <_end+0x5501>
    357c:	00600593          	li	a1,6
    3580:	00b54633          	xor	a2,a0,a1
    3584:	68c6ae23          	sw	a2,1692(a3)

00003588 <inst_442>:
    3588:	0000b537          	lui	a0,0xb
    358c:	50550513          	addi	a0,a0,1285 # b505 <_end+0x5501>
    3590:	333335b7          	lui	a1,0x33333
    3594:	33458593          	addi	a1,a1,820 # 33333334 <_end+0x3332d330>
    3598:	00b54633          	xor	a2,a0,a1
    359c:	6ac6a023          	sw	a2,1696(a3)

000035a0 <inst_443>:
    35a0:	0000b537          	lui	a0,0xb
    35a4:	50550513          	addi	a0,a0,1285 # b505 <_end+0x5501>
    35a8:	666665b7          	lui	a1,0x66666
    35ac:	66758593          	addi	a1,a1,1639 # 66666667 <_end+0x66660663>
    35b0:	00b54633          	xor	a2,a0,a1
    35b4:	6ac6a223          	sw	a2,1700(a3)

000035b8 <inst_444>:
    35b8:	0000b537          	lui	a0,0xb
    35bc:	50550513          	addi	a0,a0,1285 # b505 <_end+0x5501>
    35c0:	ffff55b7          	lui	a1,0xffff5
    35c4:	afd58593          	addi	a1,a1,-1283 # ffff4afd <_end+0xfffeeaf9>
    35c8:	00b54633          	xor	a2,a0,a1
    35cc:	6ac6a423          	sw	a2,1704(a3)

000035d0 <inst_445>:
    35d0:	0000b537          	lui	a0,0xb
    35d4:	50550513          	addi	a0,a0,1285 # b505 <_end+0x5501>
    35d8:	0000b5b7          	lui	a1,0xb
    35dc:	50558593          	addi	a1,a1,1285 # b505 <_end+0x5501>
    35e0:	00b54633          	xor	a2,a0,a1
    35e4:	6ac6a623          	sw	a2,1708(a3)

000035e8 <inst_446>:
    35e8:	00000513          	li	a0,0
    35ec:	00200593          	li	a1,2
    35f0:	00b54633          	xor	a2,a0,a1
    35f4:	6ac6a823          	sw	a2,1712(a3)

000035f8 <inst_447>:
    35f8:	00000513          	li	a0,0
    35fc:	555555b7          	lui	a1,0x55555
    3600:	55458593          	addi	a1,a1,1364 # 55555554 <_end+0x5554f550>
    3604:	00b54633          	xor	a2,a0,a1
    3608:	6ac6aa23          	sw	a2,1716(a3)

0000360c <inst_448>:
    360c:	00000513          	li	a0,0
    3610:	00000593          	li	a1,0
    3614:	00b54633          	xor	a2,a0,a1
    3618:	6ac6ac23          	sw	a2,1720(a3)

0000361c <inst_449>:
    361c:	00000513          	li	a0,0
    3620:	00400593          	li	a1,4
    3624:	00b54633          	xor	a2,a0,a1
    3628:	6ac6ae23          	sw	a2,1724(a3)

0000362c <inst_450>:
    362c:	00000513          	li	a0,0
    3630:	333335b7          	lui	a1,0x33333
    3634:	33258593          	addi	a1,a1,818 # 33333332 <_end+0x3332d32e>
    3638:	00b54633          	xor	a2,a0,a1
    363c:	6cc6a023          	sw	a2,1728(a3)

00003640 <inst_451>:
    3640:	00000513          	li	a0,0
    3644:	666665b7          	lui	a1,0x66666
    3648:	66558593          	addi	a1,a1,1637 # 66666665 <_end+0x66660661>
    364c:	00b54633          	xor	a2,a0,a1
    3650:	6cc6a223          	sw	a2,1732(a3)

00003654 <inst_452>:
    3654:	00000513          	li	a0,0
    3658:	0000b5b7          	lui	a1,0xb
    365c:	50358593          	addi	a1,a1,1283 # b503 <_end+0x54ff>
    3660:	00b54633          	xor	a2,a0,a1
    3664:	6cc6a423          	sw	a2,1736(a3)

00003668 <inst_453>:
    3668:	00000513          	li	a0,0
    366c:	555555b7          	lui	a1,0x55555
    3670:	55658593          	addi	a1,a1,1366 # 55555556 <_end+0x5554f552>
    3674:	00b54633          	xor	a2,a0,a1
    3678:	6cc6a623          	sw	a2,1740(a3)

0000367c <inst_454>:
    367c:	00000513          	li	a0,0
    3680:	aaaab5b7          	lui	a1,0xaaaab
    3684:	aab58593          	addi	a1,a1,-1365 # aaaaaaab <_end+0xaaaa4aa7>
    3688:	00b54633          	xor	a2,a0,a1
    368c:	6cc6a823          	sw	a2,1744(a3)

00003690 <inst_455>:
    3690:	00000513          	li	a0,0
    3694:	00600593          	li	a1,6
    3698:	00b54633          	xor	a2,a0,a1
    369c:	6cc6aa23          	sw	a2,1748(a3)

000036a0 <inst_456>:
    36a0:	00000513          	li	a0,0
    36a4:	333335b7          	lui	a1,0x33333
    36a8:	33458593          	addi	a1,a1,820 # 33333334 <_end+0x3332d330>
    36ac:	00b54633          	xor	a2,a0,a1
    36b0:	6cc6ac23          	sw	a2,1752(a3)

000036b4 <inst_457>:
    36b4:	00000513          	li	a0,0
    36b8:	666665b7          	lui	a1,0x66666
    36bc:	66758593          	addi	a1,a1,1639 # 66666667 <_end+0x66660663>
    36c0:	00b54633          	xor	a2,a0,a1
    36c4:	6cc6ae23          	sw	a2,1756(a3)

000036c8 <inst_458>:
    36c8:	00000513          	li	a0,0
    36cc:	ffff55b7          	lui	a1,0xffff5
    36d0:	afd58593          	addi	a1,a1,-1283 # ffff4afd <_end+0xfffeeaf9>
    36d4:	00b54633          	xor	a2,a0,a1
    36d8:	6ec6a023          	sw	a2,1760(a3)

000036dc <inst_459>:
    36dc:	00000513          	li	a0,0
    36e0:	0000b5b7          	lui	a1,0xb
    36e4:	50558593          	addi	a1,a1,1285 # b505 <_end+0x5501>
    36e8:	00b54633          	xor	a2,a0,a1
    36ec:	6ec6a223          	sw	a2,1764(a3)

000036f0 <inst_460>:
    36f0:	00400513          	li	a0,4
    36f4:	00300593          	li	a1,3
    36f8:	00b54633          	xor	a2,a0,a1
    36fc:	6ec6a423          	sw	a2,1768(a3)

00003700 <inst_461>:
    3700:	00400513          	li	a0,4
    3704:	555555b7          	lui	a1,0x55555
    3708:	55558593          	addi	a1,a1,1365 # 55555555 <_end+0x5554f551>
    370c:	00b54633          	xor	a2,a0,a1
    3710:	6ec6a623          	sw	a2,1772(a3)

00003714 <inst_462>:
    3714:	00400513          	li	a0,4
    3718:	aaaab5b7          	lui	a1,0xaaaab
    371c:	aaa58593          	addi	a1,a1,-1366 # aaaaaaaa <_end+0xaaaa4aa6>
    3720:	00b54633          	xor	a2,a0,a1
    3724:	6ec6a823          	sw	a2,1776(a3)

00003728 <inst_463>:
    3728:	00400513          	li	a0,4
    372c:	00500593          	li	a1,5
    3730:	00b54633          	xor	a2,a0,a1
    3734:	6ec6aa23          	sw	a2,1780(a3)

00003738 <inst_464>:
    3738:	00400513          	li	a0,4
    373c:	333335b7          	lui	a1,0x33333
    3740:	33358593          	addi	a1,a1,819 # 33333333 <_end+0x3332d32f>
    3744:	00b54633          	xor	a2,a0,a1
    3748:	6ec6ac23          	sw	a2,1784(a3)

0000374c <inst_465>:
    374c:	00400513          	li	a0,4
    3750:	666665b7          	lui	a1,0x66666
    3754:	66658593          	addi	a1,a1,1638 # 66666666 <_end+0x66660662>
    3758:	00b54633          	xor	a2,a0,a1
    375c:	6ec6ae23          	sw	a2,1788(a3)

00003760 <inst_466>:
    3760:	00400513          	li	a0,4
    3764:	ffff55b7          	lui	a1,0xffff5
    3768:	afc58593          	addi	a1,a1,-1284 # ffff4afc <_end+0xfffeeaf8>
    376c:	00b54633          	xor	a2,a0,a1
    3770:	70c6a023          	sw	a2,1792(a3)

00003774 <inst_467>:
    3774:	00400513          	li	a0,4
    3778:	0000b5b7          	lui	a1,0xb
    377c:	50458593          	addi	a1,a1,1284 # b504 <_end+0x5500>
    3780:	00b54633          	xor	a2,a0,a1
    3784:	70c6a223          	sw	a2,1796(a3)

00003788 <inst_468>:
    3788:	00400513          	li	a0,4
    378c:	00200593          	li	a1,2
    3790:	00b54633          	xor	a2,a0,a1
    3794:	70c6a423          	sw	a2,1800(a3)

00003798 <inst_469>:
    3798:	00400513          	li	a0,4
    379c:	555555b7          	lui	a1,0x55555
    37a0:	55458593          	addi	a1,a1,1364 # 55555554 <_end+0x5554f550>
    37a4:	00b54633          	xor	a2,a0,a1
    37a8:	70c6a623          	sw	a2,1804(a3)

000037ac <inst_470>:
    37ac:	00400513          	li	a0,4
    37b0:	00000593          	li	a1,0
    37b4:	00b54633          	xor	a2,a0,a1
    37b8:	70c6a823          	sw	a2,1808(a3)

000037bc <inst_471>:
    37bc:	00400513          	li	a0,4
    37c0:	00400593          	li	a1,4
    37c4:	00b54633          	xor	a2,a0,a1
    37c8:	70c6aa23          	sw	a2,1812(a3)

000037cc <inst_472>:
    37cc:	00400513          	li	a0,4
    37d0:	333335b7          	lui	a1,0x33333
    37d4:	33258593          	addi	a1,a1,818 # 33333332 <_end+0x3332d32e>
    37d8:	00b54633          	xor	a2,a0,a1
    37dc:	70c6ac23          	sw	a2,1816(a3)

000037e0 <inst_473>:
    37e0:	00400513          	li	a0,4
    37e4:	666665b7          	lui	a1,0x66666
    37e8:	66558593          	addi	a1,a1,1637 # 66666665 <_end+0x66660661>
    37ec:	00b54633          	xor	a2,a0,a1
    37f0:	70c6ae23          	sw	a2,1820(a3)

000037f4 <inst_474>:
    37f4:	00400513          	li	a0,4
    37f8:	0000b5b7          	lui	a1,0xb
    37fc:	50358593          	addi	a1,a1,1283 # b503 <_end+0x54ff>
    3800:	00b54633          	xor	a2,a0,a1
    3804:	72c6a023          	sw	a2,1824(a3)

00003808 <inst_475>:
    3808:	00400513          	li	a0,4
    380c:	555555b7          	lui	a1,0x55555
    3810:	55658593          	addi	a1,a1,1366 # 55555556 <_end+0x5554f552>
    3814:	00b54633          	xor	a2,a0,a1
    3818:	72c6a223          	sw	a2,1828(a3)

0000381c <inst_476>:
    381c:	00400513          	li	a0,4
    3820:	aaaab5b7          	lui	a1,0xaaaab
    3824:	aab58593          	addi	a1,a1,-1365 # aaaaaaab <_end+0xaaaa4aa7>
    3828:	00b54633          	xor	a2,a0,a1
    382c:	72c6a423          	sw	a2,1832(a3)

00003830 <inst_477>:
    3830:	00400513          	li	a0,4
    3834:	00600593          	li	a1,6
    3838:	00b54633          	xor	a2,a0,a1
    383c:	72c6a623          	sw	a2,1836(a3)

00003840 <inst_478>:
    3840:	00400513          	li	a0,4
    3844:	333335b7          	lui	a1,0x33333
    3848:	33458593          	addi	a1,a1,820 # 33333334 <_end+0x3332d330>
    384c:	00b54633          	xor	a2,a0,a1
    3850:	72c6a823          	sw	a2,1840(a3)

00003854 <inst_479>:
    3854:	00400513          	li	a0,4
    3858:	666665b7          	lui	a1,0x66666
    385c:	66758593          	addi	a1,a1,1639 # 66666667 <_end+0x66660663>
    3860:	00b54633          	xor	a2,a0,a1
    3864:	72c6aa23          	sw	a2,1844(a3)

00003868 <inst_480>:
    3868:	00400513          	li	a0,4
    386c:	ffff55b7          	lui	a1,0xffff5
    3870:	afd58593          	addi	a1,a1,-1283 # ffff4afd <_end+0xfffeeaf9>
    3874:	00b54633          	xor	a2,a0,a1
    3878:	72c6ac23          	sw	a2,1848(a3)

0000387c <inst_481>:
    387c:	00400513          	li	a0,4
    3880:	0000b5b7          	lui	a1,0xb
    3884:	50558593          	addi	a1,a1,1285 # b505 <_end+0x5501>
    3888:	00b54633          	xor	a2,a0,a1
    388c:	72c6ae23          	sw	a2,1852(a3)

00003890 <inst_482>:
    3890:	33333537          	lui	a0,0x33333
    3894:	33250513          	addi	a0,a0,818 # 33333332 <_end+0x3332d32e>
    3898:	00300593          	li	a1,3
    389c:	00b54633          	xor	a2,a0,a1
    38a0:	74c6a023          	sw	a2,1856(a3)

000038a4 <inst_483>:
    38a4:	33333537          	lui	a0,0x33333
    38a8:	33250513          	addi	a0,a0,818 # 33333332 <_end+0x3332d32e>
    38ac:	555555b7          	lui	a1,0x55555
    38b0:	55558593          	addi	a1,a1,1365 # 55555555 <_end+0x5554f551>
    38b4:	00b54633          	xor	a2,a0,a1
    38b8:	74c6a223          	sw	a2,1860(a3)

000038bc <inst_484>:
    38bc:	33333537          	lui	a0,0x33333
    38c0:	33250513          	addi	a0,a0,818 # 33333332 <_end+0x3332d32e>
    38c4:	aaaab5b7          	lui	a1,0xaaaab
    38c8:	aaa58593          	addi	a1,a1,-1366 # aaaaaaaa <_end+0xaaaa4aa6>
    38cc:	00b54633          	xor	a2,a0,a1
    38d0:	74c6a423          	sw	a2,1864(a3)

000038d4 <inst_485>:
    38d4:	33333537          	lui	a0,0x33333
    38d8:	33250513          	addi	a0,a0,818 # 33333332 <_end+0x3332d32e>
    38dc:	00500593          	li	a1,5
    38e0:	00b54633          	xor	a2,a0,a1
    38e4:	74c6a623          	sw	a2,1868(a3)

000038e8 <inst_486>:
    38e8:	33333537          	lui	a0,0x33333
    38ec:	33250513          	addi	a0,a0,818 # 33333332 <_end+0x3332d32e>
    38f0:	333335b7          	lui	a1,0x33333
    38f4:	33358593          	addi	a1,a1,819 # 33333333 <_end+0x3332d32f>
    38f8:	00b54633          	xor	a2,a0,a1
    38fc:	74c6a823          	sw	a2,1872(a3)

00003900 <inst_487>:
    3900:	33333537          	lui	a0,0x33333
    3904:	33250513          	addi	a0,a0,818 # 33333332 <_end+0x3332d32e>
    3908:	666665b7          	lui	a1,0x66666
    390c:	66658593          	addi	a1,a1,1638 # 66666666 <_end+0x66660662>
    3910:	00b54633          	xor	a2,a0,a1
    3914:	74c6aa23          	sw	a2,1876(a3)

00003918 <inst_488>:
    3918:	33333537          	lui	a0,0x33333
    391c:	33250513          	addi	a0,a0,818 # 33333332 <_end+0x3332d32e>
    3920:	ffff55b7          	lui	a1,0xffff5
    3924:	afc58593          	addi	a1,a1,-1284 # ffff4afc <_end+0xfffeeaf8>
    3928:	00b54633          	xor	a2,a0,a1
    392c:	74c6ac23          	sw	a2,1880(a3)

00003930 <inst_489>:
    3930:	33333537          	lui	a0,0x33333
    3934:	33250513          	addi	a0,a0,818 # 33333332 <_end+0x3332d32e>
    3938:	0000b5b7          	lui	a1,0xb
    393c:	50458593          	addi	a1,a1,1284 # b504 <_end+0x5500>
    3940:	00b54633          	xor	a2,a0,a1
    3944:	74c6ae23          	sw	a2,1884(a3)

00003948 <inst_490>:
    3948:	33333537          	lui	a0,0x33333
    394c:	33250513          	addi	a0,a0,818 # 33333332 <_end+0x3332d32e>
    3950:	00200593          	li	a1,2
    3954:	00b54633          	xor	a2,a0,a1
    3958:	76c6a023          	sw	a2,1888(a3)

0000395c <inst_491>:
    395c:	33333537          	lui	a0,0x33333
    3960:	33250513          	addi	a0,a0,818 # 33333332 <_end+0x3332d32e>
    3964:	555555b7          	lui	a1,0x55555
    3968:	55458593          	addi	a1,a1,1364 # 55555554 <_end+0x5554f550>
    396c:	00b54633          	xor	a2,a0,a1
    3970:	76c6a223          	sw	a2,1892(a3)

00003974 <inst_492>:
    3974:	33333537          	lui	a0,0x33333
    3978:	33250513          	addi	a0,a0,818 # 33333332 <_end+0x3332d32e>
    397c:	00000593          	li	a1,0
    3980:	00b54633          	xor	a2,a0,a1
    3984:	76c6a423          	sw	a2,1896(a3)

00003988 <inst_493>:
    3988:	33333537          	lui	a0,0x33333
    398c:	33250513          	addi	a0,a0,818 # 33333332 <_end+0x3332d32e>
    3990:	00400593          	li	a1,4
    3994:	00b54633          	xor	a2,a0,a1
    3998:	76c6a623          	sw	a2,1900(a3)

0000399c <inst_494>:
    399c:	33333537          	lui	a0,0x33333
    39a0:	33250513          	addi	a0,a0,818 # 33333332 <_end+0x3332d32e>
    39a4:	333335b7          	lui	a1,0x33333
    39a8:	33258593          	addi	a1,a1,818 # 33333332 <_end+0x3332d32e>
    39ac:	00b54633          	xor	a2,a0,a1
    39b0:	76c6a823          	sw	a2,1904(a3)

000039b4 <inst_495>:
    39b4:	33333537          	lui	a0,0x33333
    39b8:	33250513          	addi	a0,a0,818 # 33333332 <_end+0x3332d32e>
    39bc:	666665b7          	lui	a1,0x66666
    39c0:	66558593          	addi	a1,a1,1637 # 66666665 <_end+0x66660661>
    39c4:	00b54633          	xor	a2,a0,a1
    39c8:	76c6aa23          	sw	a2,1908(a3)

000039cc <inst_496>:
    39cc:	33333537          	lui	a0,0x33333
    39d0:	33250513          	addi	a0,a0,818 # 33333332 <_end+0x3332d32e>
    39d4:	0000b5b7          	lui	a1,0xb
    39d8:	50358593          	addi	a1,a1,1283 # b503 <_end+0x54ff>
    39dc:	00b54633          	xor	a2,a0,a1
    39e0:	76c6ac23          	sw	a2,1912(a3)

000039e4 <inst_497>:
    39e4:	33333537          	lui	a0,0x33333
    39e8:	33250513          	addi	a0,a0,818 # 33333332 <_end+0x3332d32e>
    39ec:	555555b7          	lui	a1,0x55555
    39f0:	55658593          	addi	a1,a1,1366 # 55555556 <_end+0x5554f552>
    39f4:	00b54633          	xor	a2,a0,a1
    39f8:	76c6ae23          	sw	a2,1916(a3)

000039fc <inst_498>:
    39fc:	33333537          	lui	a0,0x33333
    3a00:	33250513          	addi	a0,a0,818 # 33333332 <_end+0x3332d32e>
    3a04:	aaaab5b7          	lui	a1,0xaaaab
    3a08:	aab58593          	addi	a1,a1,-1365 # aaaaaaab <_end+0xaaaa4aa7>
    3a0c:	00b54633          	xor	a2,a0,a1
    3a10:	78c6a023          	sw	a2,1920(a3)

00003a14 <inst_499>:
    3a14:	33333537          	lui	a0,0x33333
    3a18:	33250513          	addi	a0,a0,818 # 33333332 <_end+0x3332d32e>
    3a1c:	00600593          	li	a1,6
    3a20:	00b54633          	xor	a2,a0,a1
    3a24:	78c6a223          	sw	a2,1924(a3)

00003a28 <inst_500>:
    3a28:	33333537          	lui	a0,0x33333
    3a2c:	33250513          	addi	a0,a0,818 # 33333332 <_end+0x3332d32e>
    3a30:	333335b7          	lui	a1,0x33333
    3a34:	33458593          	addi	a1,a1,820 # 33333334 <_end+0x3332d330>
    3a38:	00b54633          	xor	a2,a0,a1
    3a3c:	78c6a423          	sw	a2,1928(a3)

00003a40 <inst_501>:
    3a40:	33333537          	lui	a0,0x33333
    3a44:	33250513          	addi	a0,a0,818 # 33333332 <_end+0x3332d32e>
    3a48:	666665b7          	lui	a1,0x66666
    3a4c:	66758593          	addi	a1,a1,1639 # 66666667 <_end+0x66660663>
    3a50:	00b54633          	xor	a2,a0,a1
    3a54:	78c6a623          	sw	a2,1932(a3)

00003a58 <inst_502>:
    3a58:	33333537          	lui	a0,0x33333
    3a5c:	33250513          	addi	a0,a0,818 # 33333332 <_end+0x3332d32e>
    3a60:	ffff55b7          	lui	a1,0xffff5
    3a64:	afd58593          	addi	a1,a1,-1283 # ffff4afd <_end+0xfffeeaf9>
    3a68:	00b54633          	xor	a2,a0,a1
    3a6c:	78c6a823          	sw	a2,1936(a3)

00003a70 <inst_503>:
    3a70:	33333537          	lui	a0,0x33333
    3a74:	33250513          	addi	a0,a0,818 # 33333332 <_end+0x3332d32e>
    3a78:	0000b5b7          	lui	a1,0xb
    3a7c:	50558593          	addi	a1,a1,1285 # b505 <_end+0x5501>
    3a80:	00b54633          	xor	a2,a0,a1
    3a84:	78c6aa23          	sw	a2,1940(a3)

00003a88 <inst_504>:
    3a88:	66666537          	lui	a0,0x66666
    3a8c:	66550513          	addi	a0,a0,1637 # 66666665 <_end+0x66660661>
    3a90:	555555b7          	lui	a1,0x55555
    3a94:	55558593          	addi	a1,a1,1365 # 55555555 <_end+0x5554f551>
    3a98:	00b54633          	xor	a2,a0,a1
    3a9c:	78c6ac23          	sw	a2,1944(a3)

00003aa0 <inst_505>:
    3aa0:	66666537          	lui	a0,0x66666
    3aa4:	66550513          	addi	a0,a0,1637 # 66666665 <_end+0x66660661>
    3aa8:	aaaab5b7          	lui	a1,0xaaaab
    3aac:	aaa58593          	addi	a1,a1,-1366 # aaaaaaaa <_end+0xaaaa4aa6>
    3ab0:	00b54633          	xor	a2,a0,a1
    3ab4:	78c6ae23          	sw	a2,1948(a3)

00003ab8 <inst_506>:
    3ab8:	66666537          	lui	a0,0x66666
    3abc:	66550513          	addi	a0,a0,1637 # 66666665 <_end+0x66660661>
    3ac0:	00500593          	li	a1,5
    3ac4:	00b54633          	xor	a2,a0,a1
    3ac8:	7ac6a023          	sw	a2,1952(a3)

00003acc <inst_507>:
    3acc:	66666537          	lui	a0,0x66666
    3ad0:	66550513          	addi	a0,a0,1637 # 66666665 <_end+0x66660661>
    3ad4:	333335b7          	lui	a1,0x33333
    3ad8:	33358593          	addi	a1,a1,819 # 33333333 <_end+0x3332d32f>
    3adc:	00b54633          	xor	a2,a0,a1
    3ae0:	7ac6a223          	sw	a2,1956(a3)

00003ae4 <inst_508>:
    3ae4:	66666537          	lui	a0,0x66666
    3ae8:	66550513          	addi	a0,a0,1637 # 66666665 <_end+0x66660661>
    3aec:	666665b7          	lui	a1,0x66666
    3af0:	66658593          	addi	a1,a1,1638 # 66666666 <_end+0x66660662>
    3af4:	00b54633          	xor	a2,a0,a1
    3af8:	7ac6a423          	sw	a2,1960(a3)

00003afc <inst_509>:
    3afc:	66666537          	lui	a0,0x66666
    3b00:	66550513          	addi	a0,a0,1637 # 66666665 <_end+0x66660661>
    3b04:	ffff55b7          	lui	a1,0xffff5
    3b08:	afc58593          	addi	a1,a1,-1284 # ffff4afc <_end+0xfffeeaf8>
    3b0c:	00b54633          	xor	a2,a0,a1
    3b10:	7ac6a623          	sw	a2,1964(a3)

00003b14 <inst_510>:
    3b14:	66666537          	lui	a0,0x66666
    3b18:	66550513          	addi	a0,a0,1637 # 66666665 <_end+0x66660661>
    3b1c:	0000b5b7          	lui	a1,0xb
    3b20:	50458593          	addi	a1,a1,1284 # b504 <_end+0x5500>
    3b24:	00b54633          	xor	a2,a0,a1
    3b28:	7ac6a823          	sw	a2,1968(a3)

00003b2c <inst_511>:
    3b2c:	66666537          	lui	a0,0x66666
    3b30:	66550513          	addi	a0,a0,1637 # 66666665 <_end+0x66660661>
    3b34:	00200593          	li	a1,2
    3b38:	00b54633          	xor	a2,a0,a1
    3b3c:	7ac6aa23          	sw	a2,1972(a3)

00003b40 <inst_512>:
    3b40:	66666537          	lui	a0,0x66666
    3b44:	66550513          	addi	a0,a0,1637 # 66666665 <_end+0x66660661>
    3b48:	555555b7          	lui	a1,0x55555
    3b4c:	55458593          	addi	a1,a1,1364 # 55555554 <_end+0x5554f550>
    3b50:	00b54633          	xor	a2,a0,a1
    3b54:	7ac6ac23          	sw	a2,1976(a3)

00003b58 <inst_513>:
    3b58:	66666537          	lui	a0,0x66666
    3b5c:	66550513          	addi	a0,a0,1637 # 66666665 <_end+0x66660661>
    3b60:	00000593          	li	a1,0
    3b64:	00b54633          	xor	a2,a0,a1
    3b68:	7ac6ae23          	sw	a2,1980(a3)

00003b6c <inst_514>:
    3b6c:	66666537          	lui	a0,0x66666
    3b70:	66550513          	addi	a0,a0,1637 # 66666665 <_end+0x66660661>
    3b74:	00400593          	li	a1,4
    3b78:	00b54633          	xor	a2,a0,a1
    3b7c:	7cc6a023          	sw	a2,1984(a3)

00003b80 <inst_515>:
    3b80:	66666537          	lui	a0,0x66666
    3b84:	66550513          	addi	a0,a0,1637 # 66666665 <_end+0x66660661>
    3b88:	333335b7          	lui	a1,0x33333
    3b8c:	33258593          	addi	a1,a1,818 # 33333332 <_end+0x3332d32e>
    3b90:	00b54633          	xor	a2,a0,a1
    3b94:	7cc6a223          	sw	a2,1988(a3)

00003b98 <inst_516>:
    3b98:	66666537          	lui	a0,0x66666
    3b9c:	66550513          	addi	a0,a0,1637 # 66666665 <_end+0x66660661>
    3ba0:	666665b7          	lui	a1,0x66666
    3ba4:	66558593          	addi	a1,a1,1637 # 66666665 <_end+0x66660661>
    3ba8:	00b54633          	xor	a2,a0,a1
    3bac:	7cc6a423          	sw	a2,1992(a3)

00003bb0 <inst_517>:
    3bb0:	66666537          	lui	a0,0x66666
    3bb4:	66550513          	addi	a0,a0,1637 # 66666665 <_end+0x66660661>
    3bb8:	0000b5b7          	lui	a1,0xb
    3bbc:	50358593          	addi	a1,a1,1283 # b503 <_end+0x54ff>
    3bc0:	00b54633          	xor	a2,a0,a1
    3bc4:	7cc6a623          	sw	a2,1996(a3)

00003bc8 <inst_518>:
    3bc8:	66666537          	lui	a0,0x66666
    3bcc:	66550513          	addi	a0,a0,1637 # 66666665 <_end+0x66660661>
    3bd0:	555555b7          	lui	a1,0x55555
    3bd4:	55658593          	addi	a1,a1,1366 # 55555556 <_end+0x5554f552>
    3bd8:	00b54633          	xor	a2,a0,a1
    3bdc:	7cc6a823          	sw	a2,2000(a3)

00003be0 <inst_519>:
    3be0:	66666537          	lui	a0,0x66666
    3be4:	66550513          	addi	a0,a0,1637 # 66666665 <_end+0x66660661>
    3be8:	aaaab5b7          	lui	a1,0xaaaab
    3bec:	aab58593          	addi	a1,a1,-1365 # aaaaaaab <_end+0xaaaa4aa7>
    3bf0:	00b54633          	xor	a2,a0,a1
    3bf4:	7cc6aa23          	sw	a2,2004(a3)

00003bf8 <inst_520>:
    3bf8:	66666537          	lui	a0,0x66666
    3bfc:	66550513          	addi	a0,a0,1637 # 66666665 <_end+0x66660661>
    3c00:	00600593          	li	a1,6
    3c04:	00b54633          	xor	a2,a0,a1
    3c08:	7cc6ac23          	sw	a2,2008(a3)

00003c0c <inst_521>:
    3c0c:	66666537          	lui	a0,0x66666
    3c10:	66550513          	addi	a0,a0,1637 # 66666665 <_end+0x66660661>
    3c14:	333335b7          	lui	a1,0x33333
    3c18:	33458593          	addi	a1,a1,820 # 33333334 <_end+0x3332d330>
    3c1c:	00b54633          	xor	a2,a0,a1
    3c20:	7cc6ae23          	sw	a2,2012(a3)

00003c24 <inst_522>:
    3c24:	66666537          	lui	a0,0x66666
    3c28:	66550513          	addi	a0,a0,1637 # 66666665 <_end+0x66660661>
    3c2c:	666665b7          	lui	a1,0x66666
    3c30:	66758593          	addi	a1,a1,1639 # 66666667 <_end+0x66660663>
    3c34:	00b54633          	xor	a2,a0,a1
    3c38:	7ec6a023          	sw	a2,2016(a3)

00003c3c <inst_523>:
    3c3c:	66666537          	lui	a0,0x66666
    3c40:	66550513          	addi	a0,a0,1637 # 66666665 <_end+0x66660661>
    3c44:	ffff55b7          	lui	a1,0xffff5
    3c48:	afd58593          	addi	a1,a1,-1283 # ffff4afd <_end+0xfffeeaf9>
    3c4c:	00b54633          	xor	a2,a0,a1
    3c50:	7ec6a223          	sw	a2,2020(a3)

00003c54 <inst_524>:
    3c54:	66666537          	lui	a0,0x66666
    3c58:	66550513          	addi	a0,a0,1637 # 66666665 <_end+0x66660661>
    3c5c:	0000b5b7          	lui	a1,0xb
    3c60:	50558593          	addi	a1,a1,1285 # b505 <_end+0x5501>
    3c64:	00b54633          	xor	a2,a0,a1
    3c68:	7ec6a423          	sw	a2,2024(a3)

00003c6c <inst_525>:
    3c6c:	0000b537          	lui	a0,0xb
    3c70:	50350513          	addi	a0,a0,1283 # b503 <_end+0x54ff>
    3c74:	00300593          	li	a1,3
    3c78:	00b54633          	xor	a2,a0,a1
    3c7c:	7ec6a623          	sw	a2,2028(a3)

00003c80 <inst_526>:
    3c80:	0000b537          	lui	a0,0xb
    3c84:	50350513          	addi	a0,a0,1283 # b503 <_end+0x54ff>
    3c88:	555555b7          	lui	a1,0x55555
    3c8c:	55558593          	addi	a1,a1,1365 # 55555555 <_end+0x5554f551>
    3c90:	00b54633          	xor	a2,a0,a1
    3c94:	7ec6a823          	sw	a2,2032(a3)

00003c98 <inst_527>:
    3c98:	0000b537          	lui	a0,0xb
    3c9c:	50350513          	addi	a0,a0,1283 # b503 <_end+0x54ff>
    3ca0:	aaaab5b7          	lui	a1,0xaaaab
    3ca4:	aaa58593          	addi	a1,a1,-1366 # aaaaaaaa <_end+0xaaaa4aa6>
    3ca8:	00b54633          	xor	a2,a0,a1
    3cac:	7ec6aa23          	sw	a2,2036(a3)

00003cb0 <inst_528>:
    3cb0:	0000b537          	lui	a0,0xb
    3cb4:	50350513          	addi	a0,a0,1283 # b503 <_end+0x54ff>
    3cb8:	00500593          	li	a1,5
    3cbc:	00b54633          	xor	a2,a0,a1
    3cc0:	7ec6ac23          	sw	a2,2040(a3)

00003cc4 <inst_529>:
    3cc4:	0000b537          	lui	a0,0xb
    3cc8:	50350513          	addi	a0,a0,1283 # b503 <_end+0x54ff>
    3ccc:	333335b7          	lui	a1,0x33333
    3cd0:	33358593          	addi	a1,a1,819 # 33333333 <_end+0x3332d32f>
    3cd4:	00b54633          	xor	a2,a0,a1
    3cd8:	7ec6ae23          	sw	a2,2044(a3)
    3cdc:	00002697          	auipc	a3,0x2
    3ce0:	b7c68693          	addi	a3,a3,-1156 # 5858 <signature_x13_1>

00003ce4 <inst_530>:
    3ce4:	0000b537          	lui	a0,0xb
    3ce8:	50350513          	addi	a0,a0,1283 # b503 <_end+0x54ff>
    3cec:	666665b7          	lui	a1,0x66666
    3cf0:	66658593          	addi	a1,a1,1638 # 66666666 <_end+0x66660662>
    3cf4:	00b54633          	xor	a2,a0,a1
    3cf8:	00c6a023          	sw	a2,0(a3)

00003cfc <inst_531>:
    3cfc:	0000b537          	lui	a0,0xb
    3d00:	50350513          	addi	a0,a0,1283 # b503 <_end+0x54ff>
    3d04:	ffff55b7          	lui	a1,0xffff5
    3d08:	afc58593          	addi	a1,a1,-1284 # ffff4afc <_end+0xfffeeaf8>
    3d0c:	00b54633          	xor	a2,a0,a1
    3d10:	00c6a223          	sw	a2,4(a3)

00003d14 <inst_532>:
    3d14:	0000b537          	lui	a0,0xb
    3d18:	50350513          	addi	a0,a0,1283 # b503 <_end+0x54ff>
    3d1c:	0000b5b7          	lui	a1,0xb
    3d20:	50458593          	addi	a1,a1,1284 # b504 <_end+0x5500>
    3d24:	00b54633          	xor	a2,a0,a1
    3d28:	00c6a423          	sw	a2,8(a3)

00003d2c <inst_533>:
    3d2c:	0000b537          	lui	a0,0xb
    3d30:	50350513          	addi	a0,a0,1283 # b503 <_end+0x54ff>
    3d34:	00200593          	li	a1,2
    3d38:	00b54633          	xor	a2,a0,a1
    3d3c:	00c6a623          	sw	a2,12(a3)

00003d40 <inst_534>:
    3d40:	0000b537          	lui	a0,0xb
    3d44:	50350513          	addi	a0,a0,1283 # b503 <_end+0x54ff>
    3d48:	555555b7          	lui	a1,0x55555
    3d4c:	55458593          	addi	a1,a1,1364 # 55555554 <_end+0x5554f550>
    3d50:	00b54633          	xor	a2,a0,a1
    3d54:	00c6a823          	sw	a2,16(a3)

00003d58 <inst_535>:
    3d58:	0000b537          	lui	a0,0xb
    3d5c:	50350513          	addi	a0,a0,1283 # b503 <_end+0x54ff>
    3d60:	00000593          	li	a1,0
    3d64:	00b54633          	xor	a2,a0,a1
    3d68:	00c6aa23          	sw	a2,20(a3)

00003d6c <inst_536>:
    3d6c:	0000b537          	lui	a0,0xb
    3d70:	50350513          	addi	a0,a0,1283 # b503 <_end+0x54ff>
    3d74:	00400593          	li	a1,4
    3d78:	00b54633          	xor	a2,a0,a1
    3d7c:	00c6ac23          	sw	a2,24(a3)

00003d80 <inst_537>:
    3d80:	0000b537          	lui	a0,0xb
    3d84:	50350513          	addi	a0,a0,1283 # b503 <_end+0x54ff>
    3d88:	333335b7          	lui	a1,0x33333
    3d8c:	33258593          	addi	a1,a1,818 # 33333332 <_end+0x3332d32e>
    3d90:	00b54633          	xor	a2,a0,a1
    3d94:	00c6ae23          	sw	a2,28(a3)

00003d98 <inst_538>:
    3d98:	0000b537          	lui	a0,0xb
    3d9c:	50350513          	addi	a0,a0,1283 # b503 <_end+0x54ff>
    3da0:	666665b7          	lui	a1,0x66666
    3da4:	66558593          	addi	a1,a1,1637 # 66666665 <_end+0x66660661>
    3da8:	00b54633          	xor	a2,a0,a1
    3dac:	02c6a023          	sw	a2,32(a3)

00003db0 <inst_539>:
    3db0:	0000b537          	lui	a0,0xb
    3db4:	50350513          	addi	a0,a0,1283 # b503 <_end+0x54ff>
    3db8:	0000b5b7          	lui	a1,0xb
    3dbc:	50358593          	addi	a1,a1,1283 # b503 <_end+0x54ff>
    3dc0:	00b54633          	xor	a2,a0,a1
    3dc4:	02c6a223          	sw	a2,36(a3)

00003dc8 <inst_540>:
    3dc8:	0000b537          	lui	a0,0xb
    3dcc:	50350513          	addi	a0,a0,1283 # b503 <_end+0x54ff>
    3dd0:	555555b7          	lui	a1,0x55555
    3dd4:	55658593          	addi	a1,a1,1366 # 55555556 <_end+0x5554f552>
    3dd8:	00b54633          	xor	a2,a0,a1
    3ddc:	02c6a423          	sw	a2,40(a3)

00003de0 <inst_541>:
    3de0:	0000b537          	lui	a0,0xb
    3de4:	50350513          	addi	a0,a0,1283 # b503 <_end+0x54ff>
    3de8:	aaaab5b7          	lui	a1,0xaaaab
    3dec:	aab58593          	addi	a1,a1,-1365 # aaaaaaab <_end+0xaaaa4aa7>
    3df0:	00b54633          	xor	a2,a0,a1
    3df4:	02c6a623          	sw	a2,44(a3)

00003df8 <inst_542>:
    3df8:	0000b537          	lui	a0,0xb
    3dfc:	50350513          	addi	a0,a0,1283 # b503 <_end+0x54ff>
    3e00:	00600593          	li	a1,6
    3e04:	00b54633          	xor	a2,a0,a1
    3e08:	02c6a823          	sw	a2,48(a3)

00003e0c <inst_543>:
    3e0c:	0000b537          	lui	a0,0xb
    3e10:	50350513          	addi	a0,a0,1283 # b503 <_end+0x54ff>
    3e14:	333335b7          	lui	a1,0x33333
    3e18:	33458593          	addi	a1,a1,820 # 33333334 <_end+0x3332d330>
    3e1c:	00b54633          	xor	a2,a0,a1
    3e20:	02c6aa23          	sw	a2,52(a3)

00003e24 <inst_544>:
    3e24:	0000b537          	lui	a0,0xb
    3e28:	50350513          	addi	a0,a0,1283 # b503 <_end+0x54ff>
    3e2c:	666665b7          	lui	a1,0x66666
    3e30:	66758593          	addi	a1,a1,1639 # 66666667 <_end+0x66660663>
    3e34:	00b54633          	xor	a2,a0,a1
    3e38:	02c6ac23          	sw	a2,56(a3)

00003e3c <inst_545>:
    3e3c:	0000b537          	lui	a0,0xb
    3e40:	50350513          	addi	a0,a0,1283 # b503 <_end+0x54ff>
    3e44:	ffff55b7          	lui	a1,0xffff5
    3e48:	afd58593          	addi	a1,a1,-1283 # ffff4afd <_end+0xfffeeaf9>
    3e4c:	00b54633          	xor	a2,a0,a1
    3e50:	02c6ae23          	sw	a2,60(a3)

00003e54 <inst_546>:
    3e54:	0000b537          	lui	a0,0xb
    3e58:	50350513          	addi	a0,a0,1283 # b503 <_end+0x54ff>
    3e5c:	0000b5b7          	lui	a1,0xb
    3e60:	50558593          	addi	a1,a1,1285 # b505 <_end+0x5501>
    3e64:	00b54633          	xor	a2,a0,a1
    3e68:	04c6a023          	sw	a2,64(a3)

00003e6c <inst_547>:
    3e6c:	55555537          	lui	a0,0x55555
    3e70:	55650513          	addi	a0,a0,1366 # 55555556 <_end+0x5554f552>
    3e74:	00300593          	li	a1,3
    3e78:	00b54633          	xor	a2,a0,a1
    3e7c:	04c6a223          	sw	a2,68(a3)

00003e80 <inst_548>:
    3e80:	55555537          	lui	a0,0x55555
    3e84:	55650513          	addi	a0,a0,1366 # 55555556 <_end+0x5554f552>
    3e88:	555555b7          	lui	a1,0x55555
    3e8c:	55558593          	addi	a1,a1,1365 # 55555555 <_end+0x5554f551>
    3e90:	00b54633          	xor	a2,a0,a1
    3e94:	04c6a423          	sw	a2,72(a3)

00003e98 <inst_549>:
    3e98:	55555537          	lui	a0,0x55555
    3e9c:	55650513          	addi	a0,a0,1366 # 55555556 <_end+0x5554f552>
    3ea0:	aaaab5b7          	lui	a1,0xaaaab
    3ea4:	aaa58593          	addi	a1,a1,-1366 # aaaaaaaa <_end+0xaaaa4aa6>
    3ea8:	00b54633          	xor	a2,a0,a1
    3eac:	04c6a623          	sw	a2,76(a3)

00003eb0 <inst_550>:
    3eb0:	55555537          	lui	a0,0x55555
    3eb4:	55650513          	addi	a0,a0,1366 # 55555556 <_end+0x5554f552>
    3eb8:	00500593          	li	a1,5
    3ebc:	00b54633          	xor	a2,a0,a1
    3ec0:	04c6a823          	sw	a2,80(a3)

00003ec4 <inst_551>:
    3ec4:	55555537          	lui	a0,0x55555
    3ec8:	55650513          	addi	a0,a0,1366 # 55555556 <_end+0x5554f552>
    3ecc:	333335b7          	lui	a1,0x33333
    3ed0:	33358593          	addi	a1,a1,819 # 33333333 <_end+0x3332d32f>
    3ed4:	00b54633          	xor	a2,a0,a1
    3ed8:	04c6aa23          	sw	a2,84(a3)

00003edc <inst_552>:
    3edc:	55555537          	lui	a0,0x55555
    3ee0:	55650513          	addi	a0,a0,1366 # 55555556 <_end+0x5554f552>
    3ee4:	666665b7          	lui	a1,0x66666
    3ee8:	66658593          	addi	a1,a1,1638 # 66666666 <_end+0x66660662>
    3eec:	00b54633          	xor	a2,a0,a1
    3ef0:	04c6ac23          	sw	a2,88(a3)

00003ef4 <inst_553>:
    3ef4:	55555537          	lui	a0,0x55555
    3ef8:	55650513          	addi	a0,a0,1366 # 55555556 <_end+0x5554f552>
    3efc:	ffff55b7          	lui	a1,0xffff5
    3f00:	afc58593          	addi	a1,a1,-1284 # ffff4afc <_end+0xfffeeaf8>
    3f04:	00b54633          	xor	a2,a0,a1
    3f08:	04c6ae23          	sw	a2,92(a3)

00003f0c <inst_554>:
    3f0c:	55555537          	lui	a0,0x55555
    3f10:	55650513          	addi	a0,a0,1366 # 55555556 <_end+0x5554f552>
    3f14:	0000b5b7          	lui	a1,0xb
    3f18:	50458593          	addi	a1,a1,1284 # b504 <_end+0x5500>
    3f1c:	00b54633          	xor	a2,a0,a1
    3f20:	06c6a023          	sw	a2,96(a3)

00003f24 <inst_555>:
    3f24:	55555537          	lui	a0,0x55555
    3f28:	55650513          	addi	a0,a0,1366 # 55555556 <_end+0x5554f552>
    3f2c:	00200593          	li	a1,2
    3f30:	00b54633          	xor	a2,a0,a1
    3f34:	06c6a223          	sw	a2,100(a3)

00003f38 <inst_556>:
    3f38:	55555537          	lui	a0,0x55555
    3f3c:	55650513          	addi	a0,a0,1366 # 55555556 <_end+0x5554f552>
    3f40:	555555b7          	lui	a1,0x55555
    3f44:	55458593          	addi	a1,a1,1364 # 55555554 <_end+0x5554f550>
    3f48:	00b54633          	xor	a2,a0,a1
    3f4c:	06c6a423          	sw	a2,104(a3)

00003f50 <inst_557>:
    3f50:	55555537          	lui	a0,0x55555
    3f54:	55650513          	addi	a0,a0,1366 # 55555556 <_end+0x5554f552>
    3f58:	00000593          	li	a1,0
    3f5c:	00b54633          	xor	a2,a0,a1
    3f60:	06c6a623          	sw	a2,108(a3)

00003f64 <inst_558>:
    3f64:	55555537          	lui	a0,0x55555
    3f68:	55650513          	addi	a0,a0,1366 # 55555556 <_end+0x5554f552>
    3f6c:	00400593          	li	a1,4
    3f70:	00b54633          	xor	a2,a0,a1
    3f74:	06c6a823          	sw	a2,112(a3)

00003f78 <inst_559>:
    3f78:	55555537          	lui	a0,0x55555
    3f7c:	55650513          	addi	a0,a0,1366 # 55555556 <_end+0x5554f552>
    3f80:	333335b7          	lui	a1,0x33333
    3f84:	33258593          	addi	a1,a1,818 # 33333332 <_end+0x3332d32e>
    3f88:	00b54633          	xor	a2,a0,a1
    3f8c:	06c6aa23          	sw	a2,116(a3)

00003f90 <inst_560>:
    3f90:	55555537          	lui	a0,0x55555
    3f94:	55650513          	addi	a0,a0,1366 # 55555556 <_end+0x5554f552>
    3f98:	666665b7          	lui	a1,0x66666
    3f9c:	66558593          	addi	a1,a1,1637 # 66666665 <_end+0x66660661>
    3fa0:	00b54633          	xor	a2,a0,a1
    3fa4:	06c6ac23          	sw	a2,120(a3)

00003fa8 <inst_561>:
    3fa8:	55555537          	lui	a0,0x55555
    3fac:	55650513          	addi	a0,a0,1366 # 55555556 <_end+0x5554f552>
    3fb0:	0000b5b7          	lui	a1,0xb
    3fb4:	50358593          	addi	a1,a1,1283 # b503 <_end+0x54ff>
    3fb8:	00b54633          	xor	a2,a0,a1
    3fbc:	06c6ae23          	sw	a2,124(a3)

00003fc0 <inst_562>:
    3fc0:	55555537          	lui	a0,0x55555
    3fc4:	55650513          	addi	a0,a0,1366 # 55555556 <_end+0x5554f552>
    3fc8:	555555b7          	lui	a1,0x55555
    3fcc:	55658593          	addi	a1,a1,1366 # 55555556 <_end+0x5554f552>
    3fd0:	00b54633          	xor	a2,a0,a1
    3fd4:	08c6a023          	sw	a2,128(a3)

00003fd8 <inst_563>:
    3fd8:	55555537          	lui	a0,0x55555
    3fdc:	55650513          	addi	a0,a0,1366 # 55555556 <_end+0x5554f552>
    3fe0:	aaaab5b7          	lui	a1,0xaaaab
    3fe4:	aab58593          	addi	a1,a1,-1365 # aaaaaaab <_end+0xaaaa4aa7>
    3fe8:	00b54633          	xor	a2,a0,a1
    3fec:	08c6a223          	sw	a2,132(a3)

00003ff0 <inst_564>:
    3ff0:	55555537          	lui	a0,0x55555
    3ff4:	55650513          	addi	a0,a0,1366 # 55555556 <_end+0x5554f552>
    3ff8:	00600593          	li	a1,6
    3ffc:	00b54633          	xor	a2,a0,a1
    4000:	08c6a423          	sw	a2,136(a3)

00004004 <inst_565>:
    4004:	55555537          	lui	a0,0x55555
    4008:	55650513          	addi	a0,a0,1366 # 55555556 <_end+0x5554f552>
    400c:	333335b7          	lui	a1,0x33333
    4010:	33458593          	addi	a1,a1,820 # 33333334 <_end+0x3332d330>
    4014:	00b54633          	xor	a2,a0,a1
    4018:	08c6a623          	sw	a2,140(a3)

0000401c <inst_566>:
    401c:	55555537          	lui	a0,0x55555
    4020:	55650513          	addi	a0,a0,1366 # 55555556 <_end+0x5554f552>
    4024:	666665b7          	lui	a1,0x66666
    4028:	66758593          	addi	a1,a1,1639 # 66666667 <_end+0x66660663>
    402c:	00b54633          	xor	a2,a0,a1
    4030:	08c6a823          	sw	a2,144(a3)

00004034 <inst_567>:
    4034:	55555537          	lui	a0,0x55555
    4038:	55650513          	addi	a0,a0,1366 # 55555556 <_end+0x5554f552>
    403c:	ffff55b7          	lui	a1,0xffff5
    4040:	afd58593          	addi	a1,a1,-1283 # ffff4afd <_end+0xfffeeaf9>
    4044:	00b54633          	xor	a2,a0,a1
    4048:	08c6aa23          	sw	a2,148(a3)

0000404c <inst_568>:
    404c:	55555537          	lui	a0,0x55555
    4050:	55650513          	addi	a0,a0,1366 # 55555556 <_end+0x5554f552>
    4054:	0000b5b7          	lui	a1,0xb
    4058:	50558593          	addi	a1,a1,1285 # b505 <_end+0x5501>
    405c:	00b54633          	xor	a2,a0,a1
    4060:	08c6ac23          	sw	a2,152(a3)

00004064 <inst_569>:
    4064:	aaaab537          	lui	a0,0xaaaab
    4068:	aab50513          	addi	a0,a0,-1365 # aaaaaaab <_end+0xaaaa4aa7>
    406c:	00300593          	li	a1,3
    4070:	00b54633          	xor	a2,a0,a1
    4074:	08c6ae23          	sw	a2,156(a3)

00004078 <inst_570>:
    4078:	aaaab537          	lui	a0,0xaaaab
    407c:	aab50513          	addi	a0,a0,-1365 # aaaaaaab <_end+0xaaaa4aa7>
    4080:	555555b7          	lui	a1,0x55555
    4084:	55558593          	addi	a1,a1,1365 # 55555555 <_end+0x5554f551>
    4088:	00b54633          	xor	a2,a0,a1
    408c:	0ac6a023          	sw	a2,160(a3)

00004090 <inst_571>:
    4090:	aaaab537          	lui	a0,0xaaaab
    4094:	aab50513          	addi	a0,a0,-1365 # aaaaaaab <_end+0xaaaa4aa7>
    4098:	aaaab5b7          	lui	a1,0xaaaab
    409c:	aaa58593          	addi	a1,a1,-1366 # aaaaaaaa <_end+0xaaaa4aa6>
    40a0:	00b54633          	xor	a2,a0,a1
    40a4:	0ac6a223          	sw	a2,164(a3)

000040a8 <inst_572>:
    40a8:	aaaab537          	lui	a0,0xaaaab
    40ac:	aab50513          	addi	a0,a0,-1365 # aaaaaaab <_end+0xaaaa4aa7>
    40b0:	00500593          	li	a1,5
    40b4:	00b54633          	xor	a2,a0,a1
    40b8:	0ac6a423          	sw	a2,168(a3)

000040bc <inst_573>:
    40bc:	aaaab537          	lui	a0,0xaaaab
    40c0:	aab50513          	addi	a0,a0,-1365 # aaaaaaab <_end+0xaaaa4aa7>
    40c4:	333335b7          	lui	a1,0x33333
    40c8:	33358593          	addi	a1,a1,819 # 33333333 <_end+0x3332d32f>
    40cc:	00b54633          	xor	a2,a0,a1
    40d0:	0ac6a623          	sw	a2,172(a3)

000040d4 <inst_574>:
    40d4:	aaaab537          	lui	a0,0xaaaab
    40d8:	aab50513          	addi	a0,a0,-1365 # aaaaaaab <_end+0xaaaa4aa7>
    40dc:	666665b7          	lui	a1,0x66666
    40e0:	66658593          	addi	a1,a1,1638 # 66666666 <_end+0x66660662>
    40e4:	00b54633          	xor	a2,a0,a1
    40e8:	0ac6a823          	sw	a2,176(a3)

000040ec <inst_575>:
    40ec:	aaaab537          	lui	a0,0xaaaab
    40f0:	aab50513          	addi	a0,a0,-1365 # aaaaaaab <_end+0xaaaa4aa7>
    40f4:	ffff55b7          	lui	a1,0xffff5
    40f8:	afc58593          	addi	a1,a1,-1284 # ffff4afc <_end+0xfffeeaf8>
    40fc:	00b54633          	xor	a2,a0,a1
    4100:	0ac6aa23          	sw	a2,180(a3)

00004104 <inst_576>:
    4104:	aaaab537          	lui	a0,0xaaaab
    4108:	aab50513          	addi	a0,a0,-1365 # aaaaaaab <_end+0xaaaa4aa7>
    410c:	0000b5b7          	lui	a1,0xb
    4110:	50458593          	addi	a1,a1,1284 # b504 <_end+0x5500>
    4114:	00b54633          	xor	a2,a0,a1
    4118:	0ac6ac23          	sw	a2,184(a3)

0000411c <inst_577>:
    411c:	aaaab537          	lui	a0,0xaaaab
    4120:	aab50513          	addi	a0,a0,-1365 # aaaaaaab <_end+0xaaaa4aa7>
    4124:	00200593          	li	a1,2
    4128:	00b54633          	xor	a2,a0,a1
    412c:	0ac6ae23          	sw	a2,188(a3)

00004130 <inst_578>:
    4130:	aaaab537          	lui	a0,0xaaaab
    4134:	aab50513          	addi	a0,a0,-1365 # aaaaaaab <_end+0xaaaa4aa7>
    4138:	555555b7          	lui	a1,0x55555
    413c:	55458593          	addi	a1,a1,1364 # 55555554 <_end+0x5554f550>
    4140:	00b54633          	xor	a2,a0,a1
    4144:	0cc6a023          	sw	a2,192(a3)

00004148 <inst_579>:
    4148:	aaaab537          	lui	a0,0xaaaab
    414c:	aab50513          	addi	a0,a0,-1365 # aaaaaaab <_end+0xaaaa4aa7>
    4150:	00000593          	li	a1,0
    4154:	00b54633          	xor	a2,a0,a1
    4158:	0cc6a223          	sw	a2,196(a3)

0000415c <inst_580>:
    415c:	aaaab537          	lui	a0,0xaaaab
    4160:	aab50513          	addi	a0,a0,-1365 # aaaaaaab <_end+0xaaaa4aa7>
    4164:	00400593          	li	a1,4
    4168:	00b54633          	xor	a2,a0,a1
    416c:	0cc6a423          	sw	a2,200(a3)

00004170 <inst_581>:
    4170:	aaaab537          	lui	a0,0xaaaab
    4174:	aab50513          	addi	a0,a0,-1365 # aaaaaaab <_end+0xaaaa4aa7>
    4178:	333335b7          	lui	a1,0x33333
    417c:	33258593          	addi	a1,a1,818 # 33333332 <_end+0x3332d32e>
    4180:	00b54633          	xor	a2,a0,a1
    4184:	0cc6a623          	sw	a2,204(a3)

00004188 <inst_582>:
    4188:	aaaab537          	lui	a0,0xaaaab
    418c:	aab50513          	addi	a0,a0,-1365 # aaaaaaab <_end+0xaaaa4aa7>
    4190:	666665b7          	lui	a1,0x66666
    4194:	66558593          	addi	a1,a1,1637 # 66666665 <_end+0x66660661>
    4198:	00b54633          	xor	a2,a0,a1
    419c:	0cc6a823          	sw	a2,208(a3)

000041a0 <inst_583>:
    41a0:	aaaab537          	lui	a0,0xaaaab
    41a4:	aab50513          	addi	a0,a0,-1365 # aaaaaaab <_end+0xaaaa4aa7>
    41a8:	0000b5b7          	lui	a1,0xb
    41ac:	50358593          	addi	a1,a1,1283 # b503 <_end+0x54ff>
    41b0:	00b54633          	xor	a2,a0,a1
    41b4:	0cc6aa23          	sw	a2,212(a3)

000041b8 <inst_584>:
    41b8:	aaaab537          	lui	a0,0xaaaab
    41bc:	aab50513          	addi	a0,a0,-1365 # aaaaaaab <_end+0xaaaa4aa7>
    41c0:	555555b7          	lui	a1,0x55555
    41c4:	55658593          	addi	a1,a1,1366 # 55555556 <_end+0x5554f552>
    41c8:	00b54633          	xor	a2,a0,a1
    41cc:	0cc6ac23          	sw	a2,216(a3)

000041d0 <inst_585>:
    41d0:	ffffc537          	lui	a0,0xffffc
    41d4:	fff50513          	addi	a0,a0,-1 # ffffbfff <_end+0xffff5ffb>
    41d8:	ffff05b7          	lui	a1,0xffff0
    41dc:	fff58593          	addi	a1,a1,-1 # fffeffff <_end+0xfffe9ffb>
    41e0:	00b54633          	xor	a2,a0,a1
    41e4:	0cc6ae23          	sw	a2,220(a3)

000041e8 <inst_586>:
    41e8:	80000537          	lui	a0,0x80000
    41ec:	fff50513          	addi	a0,a0,-1 # 7fffffff <_end+0x7fff9ffb>
    41f0:	000015b7          	lui	a1,0x1
    41f4:	00b54633          	xor	a2,a0,a1
    41f8:	0ec6a023          	sw	a2,224(a3)

000041fc <inst_587>:
    41fc:	08000513          	li	a0,128
    4200:	40000593          	li	a1,1024
    4204:	00b54633          	xor	a2,a0,a1
    4208:	0ec6a223          	sw	a2,228(a3)
    420c:	00000013          	nop

00004210 <rvtest_code_end>:
    4210:	babed0b7          	lui	ra,0xbabed
    4214:	afe08093          	addi	ra,ra,-1282 # babecafe <_end+0xbabe6afa>

00004218 <write_tohost>:
    4218:	00002017          	auipc	zero,0x2
    421c:	de102423          	sw	ra,-536(zero) # fffffde8 <_end+0xffff9de4>

00004220 <loop>:
    4220:	0000006f          	j	4220 <loop>
	...

Disassembly of section .data:

00005000 <rvtest_data_begin>:
    5000:	cafe                	sw	t6,84(sp)
    5002:	babe                	fsd	fa5,368(sp)

00005004 <rvtest_data_end>:
	...

00005010 <begin_signature>:
    5010:	deadbeef          	jal	t4,fffe05fa <_end+0xfffda5f6>
    5014:	deadbeef          	jal	t4,fffe05fe <_end+0xfffda5fa>
    5018:	deadbeef          	jal	t4,fffe0602 <_end+0xfffda5fe>
    501c:	deadbeef          	jal	t4,fffe0606 <_end+0xfffda602>
    5020:	deadbeef          	jal	t4,fffe060a <_end+0xfffda606>
    5024:	deadbeef          	jal	t4,fffe060e <_end+0xfffda60a>
    5028:	deadbeef          	jal	t4,fffe0612 <_end+0xfffda60e>
    502c:	deadbeef          	jal	t4,fffe0616 <_end+0xfffda612>
    5030:	deadbeef          	jal	t4,fffe061a <_end+0xfffda616>
    5034:	deadbeef          	jal	t4,fffe061e <_end+0xfffda61a>
    5038:	deadbeef          	jal	t4,fffe0622 <_end+0xfffda61e>
    503c:	deadbeef          	jal	t4,fffe0626 <_end+0xfffda622>
    5040:	deadbeef          	jal	t4,fffe062a <_end+0xfffda626>
    5044:	deadbeef          	jal	t4,fffe062e <_end+0xfffda62a>
    5048:	deadbeef          	jal	t4,fffe0632 <_end+0xfffda62e>
    504c:	deadbeef          	jal	t4,fffe0636 <_end+0xfffda632>
    5050:	deadbeef          	jal	t4,fffe063a <_end+0xfffda636>
    5054:	deadbeef          	jal	t4,fffe063e <_end+0xfffda63a>

00005058 <signature_x13_0>:
    5058:	deadbeef          	jal	t4,fffe0642 <_end+0xfffda63e>
    505c:	deadbeef          	jal	t4,fffe0646 <_end+0xfffda642>
    5060:	deadbeef          	jal	t4,fffe064a <_end+0xfffda646>
    5064:	deadbeef          	jal	t4,fffe064e <_end+0xfffda64a>
    5068:	deadbeef          	jal	t4,fffe0652 <_end+0xfffda64e>
    506c:	deadbeef          	jal	t4,fffe0656 <_end+0xfffda652>
    5070:	deadbeef          	jal	t4,fffe065a <_end+0xfffda656>
    5074:	deadbeef          	jal	t4,fffe065e <_end+0xfffda65a>
    5078:	deadbeef          	jal	t4,fffe0662 <_end+0xfffda65e>
    507c:	deadbeef          	jal	t4,fffe0666 <_end+0xfffda662>
    5080:	deadbeef          	jal	t4,fffe066a <_end+0xfffda666>
    5084:	deadbeef          	jal	t4,fffe066e <_end+0xfffda66a>
    5088:	deadbeef          	jal	t4,fffe0672 <_end+0xfffda66e>
    508c:	deadbeef          	jal	t4,fffe0676 <_end+0xfffda672>
    5090:	deadbeef          	jal	t4,fffe067a <_end+0xfffda676>
    5094:	deadbeef          	jal	t4,fffe067e <_end+0xfffda67a>
    5098:	deadbeef          	jal	t4,fffe0682 <_end+0xfffda67e>
    509c:	deadbeef          	jal	t4,fffe0686 <_end+0xfffda682>
    50a0:	deadbeef          	jal	t4,fffe068a <_end+0xfffda686>
    50a4:	deadbeef          	jal	t4,fffe068e <_end+0xfffda68a>
    50a8:	deadbeef          	jal	t4,fffe0692 <_end+0xfffda68e>
    50ac:	deadbeef          	jal	t4,fffe0696 <_end+0xfffda692>
    50b0:	deadbeef          	jal	t4,fffe069a <_end+0xfffda696>
    50b4:	deadbeef          	jal	t4,fffe069e <_end+0xfffda69a>
    50b8:	deadbeef          	jal	t4,fffe06a2 <_end+0xfffda69e>
    50bc:	deadbeef          	jal	t4,fffe06a6 <_end+0xfffda6a2>
    50c0:	deadbeef          	jal	t4,fffe06aa <_end+0xfffda6a6>
    50c4:	deadbeef          	jal	t4,fffe06ae <_end+0xfffda6aa>
    50c8:	deadbeef          	jal	t4,fffe06b2 <_end+0xfffda6ae>
    50cc:	deadbeef          	jal	t4,fffe06b6 <_end+0xfffda6b2>
    50d0:	deadbeef          	jal	t4,fffe06ba <_end+0xfffda6b6>
    50d4:	deadbeef          	jal	t4,fffe06be <_end+0xfffda6ba>
    50d8:	deadbeef          	jal	t4,fffe06c2 <_end+0xfffda6be>
    50dc:	deadbeef          	jal	t4,fffe06c6 <_end+0xfffda6c2>
    50e0:	deadbeef          	jal	t4,fffe06ca <_end+0xfffda6c6>
    50e4:	deadbeef          	jal	t4,fffe06ce <_end+0xfffda6ca>
    50e8:	deadbeef          	jal	t4,fffe06d2 <_end+0xfffda6ce>
    50ec:	deadbeef          	jal	t4,fffe06d6 <_end+0xfffda6d2>
    50f0:	deadbeef          	jal	t4,fffe06da <_end+0xfffda6d6>
    50f4:	deadbeef          	jal	t4,fffe06de <_end+0xfffda6da>
    50f8:	deadbeef          	jal	t4,fffe06e2 <_end+0xfffda6de>
    50fc:	deadbeef          	jal	t4,fffe06e6 <_end+0xfffda6e2>
    5100:	deadbeef          	jal	t4,fffe06ea <_end+0xfffda6e6>
    5104:	deadbeef          	jal	t4,fffe06ee <_end+0xfffda6ea>
    5108:	deadbeef          	jal	t4,fffe06f2 <_end+0xfffda6ee>
    510c:	deadbeef          	jal	t4,fffe06f6 <_end+0xfffda6f2>
    5110:	deadbeef          	jal	t4,fffe06fa <_end+0xfffda6f6>
    5114:	deadbeef          	jal	t4,fffe06fe <_end+0xfffda6fa>
    5118:	deadbeef          	jal	t4,fffe0702 <_end+0xfffda6fe>
    511c:	deadbeef          	jal	t4,fffe0706 <_end+0xfffda702>
    5120:	deadbeef          	jal	t4,fffe070a <_end+0xfffda706>
    5124:	deadbeef          	jal	t4,fffe070e <_end+0xfffda70a>
    5128:	deadbeef          	jal	t4,fffe0712 <_end+0xfffda70e>
    512c:	deadbeef          	jal	t4,fffe0716 <_end+0xfffda712>
    5130:	deadbeef          	jal	t4,fffe071a <_end+0xfffda716>
    5134:	deadbeef          	jal	t4,fffe071e <_end+0xfffda71a>
    5138:	deadbeef          	jal	t4,fffe0722 <_end+0xfffda71e>
    513c:	deadbeef          	jal	t4,fffe0726 <_end+0xfffda722>
    5140:	deadbeef          	jal	t4,fffe072a <_end+0xfffda726>
    5144:	deadbeef          	jal	t4,fffe072e <_end+0xfffda72a>
    5148:	deadbeef          	jal	t4,fffe0732 <_end+0xfffda72e>
    514c:	deadbeef          	jal	t4,fffe0736 <_end+0xfffda732>
    5150:	deadbeef          	jal	t4,fffe073a <_end+0xfffda736>
    5154:	deadbeef          	jal	t4,fffe073e <_end+0xfffda73a>
    5158:	deadbeef          	jal	t4,fffe0742 <_end+0xfffda73e>
    515c:	deadbeef          	jal	t4,fffe0746 <_end+0xfffda742>
    5160:	deadbeef          	jal	t4,fffe074a <_end+0xfffda746>
    5164:	deadbeef          	jal	t4,fffe074e <_end+0xfffda74a>
    5168:	deadbeef          	jal	t4,fffe0752 <_end+0xfffda74e>
    516c:	deadbeef          	jal	t4,fffe0756 <_end+0xfffda752>
    5170:	deadbeef          	jal	t4,fffe075a <_end+0xfffda756>
    5174:	deadbeef          	jal	t4,fffe075e <_end+0xfffda75a>
    5178:	deadbeef          	jal	t4,fffe0762 <_end+0xfffda75e>
    517c:	deadbeef          	jal	t4,fffe0766 <_end+0xfffda762>
    5180:	deadbeef          	jal	t4,fffe076a <_end+0xfffda766>
    5184:	deadbeef          	jal	t4,fffe076e <_end+0xfffda76a>
    5188:	deadbeef          	jal	t4,fffe0772 <_end+0xfffda76e>
    518c:	deadbeef          	jal	t4,fffe0776 <_end+0xfffda772>
    5190:	deadbeef          	jal	t4,fffe077a <_end+0xfffda776>
    5194:	deadbeef          	jal	t4,fffe077e <_end+0xfffda77a>
    5198:	deadbeef          	jal	t4,fffe0782 <_end+0xfffda77e>
    519c:	deadbeef          	jal	t4,fffe0786 <_end+0xfffda782>
    51a0:	deadbeef          	jal	t4,fffe078a <_end+0xfffda786>
    51a4:	deadbeef          	jal	t4,fffe078e <_end+0xfffda78a>
    51a8:	deadbeef          	jal	t4,fffe0792 <_end+0xfffda78e>
    51ac:	deadbeef          	jal	t4,fffe0796 <_end+0xfffda792>
    51b0:	deadbeef          	jal	t4,fffe079a <_end+0xfffda796>
    51b4:	deadbeef          	jal	t4,fffe079e <_end+0xfffda79a>
    51b8:	deadbeef          	jal	t4,fffe07a2 <_end+0xfffda79e>
    51bc:	deadbeef          	jal	t4,fffe07a6 <_end+0xfffda7a2>
    51c0:	deadbeef          	jal	t4,fffe07aa <_end+0xfffda7a6>
    51c4:	deadbeef          	jal	t4,fffe07ae <_end+0xfffda7aa>
    51c8:	deadbeef          	jal	t4,fffe07b2 <_end+0xfffda7ae>
    51cc:	deadbeef          	jal	t4,fffe07b6 <_end+0xfffda7b2>
    51d0:	deadbeef          	jal	t4,fffe07ba <_end+0xfffda7b6>
    51d4:	deadbeef          	jal	t4,fffe07be <_end+0xfffda7ba>
    51d8:	deadbeef          	jal	t4,fffe07c2 <_end+0xfffda7be>
    51dc:	deadbeef          	jal	t4,fffe07c6 <_end+0xfffda7c2>
    51e0:	deadbeef          	jal	t4,fffe07ca <_end+0xfffda7c6>
    51e4:	deadbeef          	jal	t4,fffe07ce <_end+0xfffda7ca>
    51e8:	deadbeef          	jal	t4,fffe07d2 <_end+0xfffda7ce>
    51ec:	deadbeef          	jal	t4,fffe07d6 <_end+0xfffda7d2>
    51f0:	deadbeef          	jal	t4,fffe07da <_end+0xfffda7d6>
    51f4:	deadbeef          	jal	t4,fffe07de <_end+0xfffda7da>
    51f8:	deadbeef          	jal	t4,fffe07e2 <_end+0xfffda7de>
    51fc:	deadbeef          	jal	t4,fffe07e6 <_end+0xfffda7e2>
    5200:	deadbeef          	jal	t4,fffe07ea <_end+0xfffda7e6>
    5204:	deadbeef          	jal	t4,fffe07ee <_end+0xfffda7ea>
    5208:	deadbeef          	jal	t4,fffe07f2 <_end+0xfffda7ee>
    520c:	deadbeef          	jal	t4,fffe07f6 <_end+0xfffda7f2>
    5210:	deadbeef          	jal	t4,fffe07fa <_end+0xfffda7f6>
    5214:	deadbeef          	jal	t4,fffe07fe <_end+0xfffda7fa>
    5218:	deadbeef          	jal	t4,fffe0802 <_end+0xfffda7fe>
    521c:	deadbeef          	jal	t4,fffe0806 <_end+0xfffda802>
    5220:	deadbeef          	jal	t4,fffe080a <_end+0xfffda806>
    5224:	deadbeef          	jal	t4,fffe080e <_end+0xfffda80a>
    5228:	deadbeef          	jal	t4,fffe0812 <_end+0xfffda80e>
    522c:	deadbeef          	jal	t4,fffe0816 <_end+0xfffda812>
    5230:	deadbeef          	jal	t4,fffe081a <_end+0xfffda816>
    5234:	deadbeef          	jal	t4,fffe081e <_end+0xfffda81a>
    5238:	deadbeef          	jal	t4,fffe0822 <_end+0xfffda81e>
    523c:	deadbeef          	jal	t4,fffe0826 <_end+0xfffda822>
    5240:	deadbeef          	jal	t4,fffe082a <_end+0xfffda826>
    5244:	deadbeef          	jal	t4,fffe082e <_end+0xfffda82a>
    5248:	deadbeef          	jal	t4,fffe0832 <_end+0xfffda82e>
    524c:	deadbeef          	jal	t4,fffe0836 <_end+0xfffda832>
    5250:	deadbeef          	jal	t4,fffe083a <_end+0xfffda836>
    5254:	deadbeef          	jal	t4,fffe083e <_end+0xfffda83a>
    5258:	deadbeef          	jal	t4,fffe0842 <_end+0xfffda83e>
    525c:	deadbeef          	jal	t4,fffe0846 <_end+0xfffda842>
    5260:	deadbeef          	jal	t4,fffe084a <_end+0xfffda846>
    5264:	deadbeef          	jal	t4,fffe084e <_end+0xfffda84a>
    5268:	deadbeef          	jal	t4,fffe0852 <_end+0xfffda84e>
    526c:	deadbeef          	jal	t4,fffe0856 <_end+0xfffda852>
    5270:	deadbeef          	jal	t4,fffe085a <_end+0xfffda856>
    5274:	deadbeef          	jal	t4,fffe085e <_end+0xfffda85a>
    5278:	deadbeef          	jal	t4,fffe0862 <_end+0xfffda85e>
    527c:	deadbeef          	jal	t4,fffe0866 <_end+0xfffda862>
    5280:	deadbeef          	jal	t4,fffe086a <_end+0xfffda866>
    5284:	deadbeef          	jal	t4,fffe086e <_end+0xfffda86a>
    5288:	deadbeef          	jal	t4,fffe0872 <_end+0xfffda86e>
    528c:	deadbeef          	jal	t4,fffe0876 <_end+0xfffda872>
    5290:	deadbeef          	jal	t4,fffe087a <_end+0xfffda876>
    5294:	deadbeef          	jal	t4,fffe087e <_end+0xfffda87a>
    5298:	deadbeef          	jal	t4,fffe0882 <_end+0xfffda87e>
    529c:	deadbeef          	jal	t4,fffe0886 <_end+0xfffda882>
    52a0:	deadbeef          	jal	t4,fffe088a <_end+0xfffda886>
    52a4:	deadbeef          	jal	t4,fffe088e <_end+0xfffda88a>
    52a8:	deadbeef          	jal	t4,fffe0892 <_end+0xfffda88e>
    52ac:	deadbeef          	jal	t4,fffe0896 <_end+0xfffda892>
    52b0:	deadbeef          	jal	t4,fffe089a <_end+0xfffda896>
    52b4:	deadbeef          	jal	t4,fffe089e <_end+0xfffda89a>
    52b8:	deadbeef          	jal	t4,fffe08a2 <_end+0xfffda89e>
    52bc:	deadbeef          	jal	t4,fffe08a6 <_end+0xfffda8a2>
    52c0:	deadbeef          	jal	t4,fffe08aa <_end+0xfffda8a6>
    52c4:	deadbeef          	jal	t4,fffe08ae <_end+0xfffda8aa>
    52c8:	deadbeef          	jal	t4,fffe08b2 <_end+0xfffda8ae>
    52cc:	deadbeef          	jal	t4,fffe08b6 <_end+0xfffda8b2>
    52d0:	deadbeef          	jal	t4,fffe08ba <_end+0xfffda8b6>
    52d4:	deadbeef          	jal	t4,fffe08be <_end+0xfffda8ba>
    52d8:	deadbeef          	jal	t4,fffe08c2 <_end+0xfffda8be>
    52dc:	deadbeef          	jal	t4,fffe08c6 <_end+0xfffda8c2>
    52e0:	deadbeef          	jal	t4,fffe08ca <_end+0xfffda8c6>
    52e4:	deadbeef          	jal	t4,fffe08ce <_end+0xfffda8ca>
    52e8:	deadbeef          	jal	t4,fffe08d2 <_end+0xfffda8ce>
    52ec:	deadbeef          	jal	t4,fffe08d6 <_end+0xfffda8d2>
    52f0:	deadbeef          	jal	t4,fffe08da <_end+0xfffda8d6>
    52f4:	deadbeef          	jal	t4,fffe08de <_end+0xfffda8da>
    52f8:	deadbeef          	jal	t4,fffe08e2 <_end+0xfffda8de>
    52fc:	deadbeef          	jal	t4,fffe08e6 <_end+0xfffda8e2>
    5300:	deadbeef          	jal	t4,fffe08ea <_end+0xfffda8e6>
    5304:	deadbeef          	jal	t4,fffe08ee <_end+0xfffda8ea>
    5308:	deadbeef          	jal	t4,fffe08f2 <_end+0xfffda8ee>
    530c:	deadbeef          	jal	t4,fffe08f6 <_end+0xfffda8f2>
    5310:	deadbeef          	jal	t4,fffe08fa <_end+0xfffda8f6>
    5314:	deadbeef          	jal	t4,fffe08fe <_end+0xfffda8fa>
    5318:	deadbeef          	jal	t4,fffe0902 <_end+0xfffda8fe>
    531c:	deadbeef          	jal	t4,fffe0906 <_end+0xfffda902>
    5320:	deadbeef          	jal	t4,fffe090a <_end+0xfffda906>
    5324:	deadbeef          	jal	t4,fffe090e <_end+0xfffda90a>
    5328:	deadbeef          	jal	t4,fffe0912 <_end+0xfffda90e>
    532c:	deadbeef          	jal	t4,fffe0916 <_end+0xfffda912>
    5330:	deadbeef          	jal	t4,fffe091a <_end+0xfffda916>
    5334:	deadbeef          	jal	t4,fffe091e <_end+0xfffda91a>
    5338:	deadbeef          	jal	t4,fffe0922 <_end+0xfffda91e>
    533c:	deadbeef          	jal	t4,fffe0926 <_end+0xfffda922>
    5340:	deadbeef          	jal	t4,fffe092a <_end+0xfffda926>
    5344:	deadbeef          	jal	t4,fffe092e <_end+0xfffda92a>
    5348:	deadbeef          	jal	t4,fffe0932 <_end+0xfffda92e>
    534c:	deadbeef          	jal	t4,fffe0936 <_end+0xfffda932>
    5350:	deadbeef          	jal	t4,fffe093a <_end+0xfffda936>
    5354:	deadbeef          	jal	t4,fffe093e <_end+0xfffda93a>
    5358:	deadbeef          	jal	t4,fffe0942 <_end+0xfffda93e>
    535c:	deadbeef          	jal	t4,fffe0946 <_end+0xfffda942>
    5360:	deadbeef          	jal	t4,fffe094a <_end+0xfffda946>
    5364:	deadbeef          	jal	t4,fffe094e <_end+0xfffda94a>
    5368:	deadbeef          	jal	t4,fffe0952 <_end+0xfffda94e>
    536c:	deadbeef          	jal	t4,fffe0956 <_end+0xfffda952>
    5370:	deadbeef          	jal	t4,fffe095a <_end+0xfffda956>
    5374:	deadbeef          	jal	t4,fffe095e <_end+0xfffda95a>
    5378:	deadbeef          	jal	t4,fffe0962 <_end+0xfffda95e>
    537c:	deadbeef          	jal	t4,fffe0966 <_end+0xfffda962>
    5380:	deadbeef          	jal	t4,fffe096a <_end+0xfffda966>
    5384:	deadbeef          	jal	t4,fffe096e <_end+0xfffda96a>
    5388:	deadbeef          	jal	t4,fffe0972 <_end+0xfffda96e>
    538c:	deadbeef          	jal	t4,fffe0976 <_end+0xfffda972>
    5390:	deadbeef          	jal	t4,fffe097a <_end+0xfffda976>
    5394:	deadbeef          	jal	t4,fffe097e <_end+0xfffda97a>
    5398:	deadbeef          	jal	t4,fffe0982 <_end+0xfffda97e>
    539c:	deadbeef          	jal	t4,fffe0986 <_end+0xfffda982>
    53a0:	deadbeef          	jal	t4,fffe098a <_end+0xfffda986>
    53a4:	deadbeef          	jal	t4,fffe098e <_end+0xfffda98a>
    53a8:	deadbeef          	jal	t4,fffe0992 <_end+0xfffda98e>
    53ac:	deadbeef          	jal	t4,fffe0996 <_end+0xfffda992>
    53b0:	deadbeef          	jal	t4,fffe099a <_end+0xfffda996>
    53b4:	deadbeef          	jal	t4,fffe099e <_end+0xfffda99a>
    53b8:	deadbeef          	jal	t4,fffe09a2 <_end+0xfffda99e>
    53bc:	deadbeef          	jal	t4,fffe09a6 <_end+0xfffda9a2>
    53c0:	deadbeef          	jal	t4,fffe09aa <_end+0xfffda9a6>
    53c4:	deadbeef          	jal	t4,fffe09ae <_end+0xfffda9aa>
    53c8:	deadbeef          	jal	t4,fffe09b2 <_end+0xfffda9ae>
    53cc:	deadbeef          	jal	t4,fffe09b6 <_end+0xfffda9b2>
    53d0:	deadbeef          	jal	t4,fffe09ba <_end+0xfffda9b6>
    53d4:	deadbeef          	jal	t4,fffe09be <_end+0xfffda9ba>
    53d8:	deadbeef          	jal	t4,fffe09c2 <_end+0xfffda9be>
    53dc:	deadbeef          	jal	t4,fffe09c6 <_end+0xfffda9c2>
    53e0:	deadbeef          	jal	t4,fffe09ca <_end+0xfffda9c6>
    53e4:	deadbeef          	jal	t4,fffe09ce <_end+0xfffda9ca>
    53e8:	deadbeef          	jal	t4,fffe09d2 <_end+0xfffda9ce>
    53ec:	deadbeef          	jal	t4,fffe09d6 <_end+0xfffda9d2>
    53f0:	deadbeef          	jal	t4,fffe09da <_end+0xfffda9d6>
    53f4:	deadbeef          	jal	t4,fffe09de <_end+0xfffda9da>
    53f8:	deadbeef          	jal	t4,fffe09e2 <_end+0xfffda9de>
    53fc:	deadbeef          	jal	t4,fffe09e6 <_end+0xfffda9e2>
    5400:	deadbeef          	jal	t4,fffe09ea <_end+0xfffda9e6>
    5404:	deadbeef          	jal	t4,fffe09ee <_end+0xfffda9ea>
    5408:	deadbeef          	jal	t4,fffe09f2 <_end+0xfffda9ee>
    540c:	deadbeef          	jal	t4,fffe09f6 <_end+0xfffda9f2>
    5410:	deadbeef          	jal	t4,fffe09fa <_end+0xfffda9f6>
    5414:	deadbeef          	jal	t4,fffe09fe <_end+0xfffda9fa>
    5418:	deadbeef          	jal	t4,fffe0a02 <_end+0xfffda9fe>
    541c:	deadbeef          	jal	t4,fffe0a06 <_end+0xfffdaa02>
    5420:	deadbeef          	jal	t4,fffe0a0a <_end+0xfffdaa06>
    5424:	deadbeef          	jal	t4,fffe0a0e <_end+0xfffdaa0a>
    5428:	deadbeef          	jal	t4,fffe0a12 <_end+0xfffdaa0e>
    542c:	deadbeef          	jal	t4,fffe0a16 <_end+0xfffdaa12>
    5430:	deadbeef          	jal	t4,fffe0a1a <_end+0xfffdaa16>
    5434:	deadbeef          	jal	t4,fffe0a1e <_end+0xfffdaa1a>
    5438:	deadbeef          	jal	t4,fffe0a22 <_end+0xfffdaa1e>
    543c:	deadbeef          	jal	t4,fffe0a26 <_end+0xfffdaa22>
    5440:	deadbeef          	jal	t4,fffe0a2a <_end+0xfffdaa26>
    5444:	deadbeef          	jal	t4,fffe0a2e <_end+0xfffdaa2a>
    5448:	deadbeef          	jal	t4,fffe0a32 <_end+0xfffdaa2e>
    544c:	deadbeef          	jal	t4,fffe0a36 <_end+0xfffdaa32>
    5450:	deadbeef          	jal	t4,fffe0a3a <_end+0xfffdaa36>
    5454:	deadbeef          	jal	t4,fffe0a3e <_end+0xfffdaa3a>
    5458:	deadbeef          	jal	t4,fffe0a42 <_end+0xfffdaa3e>
    545c:	deadbeef          	jal	t4,fffe0a46 <_end+0xfffdaa42>
    5460:	deadbeef          	jal	t4,fffe0a4a <_end+0xfffdaa46>
    5464:	deadbeef          	jal	t4,fffe0a4e <_end+0xfffdaa4a>
    5468:	deadbeef          	jal	t4,fffe0a52 <_end+0xfffdaa4e>
    546c:	deadbeef          	jal	t4,fffe0a56 <_end+0xfffdaa52>
    5470:	deadbeef          	jal	t4,fffe0a5a <_end+0xfffdaa56>
    5474:	deadbeef          	jal	t4,fffe0a5e <_end+0xfffdaa5a>
    5478:	deadbeef          	jal	t4,fffe0a62 <_end+0xfffdaa5e>
    547c:	deadbeef          	jal	t4,fffe0a66 <_end+0xfffdaa62>
    5480:	deadbeef          	jal	t4,fffe0a6a <_end+0xfffdaa66>
    5484:	deadbeef          	jal	t4,fffe0a6e <_end+0xfffdaa6a>
    5488:	deadbeef          	jal	t4,fffe0a72 <_end+0xfffdaa6e>
    548c:	deadbeef          	jal	t4,fffe0a76 <_end+0xfffdaa72>
    5490:	deadbeef          	jal	t4,fffe0a7a <_end+0xfffdaa76>
    5494:	deadbeef          	jal	t4,fffe0a7e <_end+0xfffdaa7a>
    5498:	deadbeef          	jal	t4,fffe0a82 <_end+0xfffdaa7e>
    549c:	deadbeef          	jal	t4,fffe0a86 <_end+0xfffdaa82>
    54a0:	deadbeef          	jal	t4,fffe0a8a <_end+0xfffdaa86>
    54a4:	deadbeef          	jal	t4,fffe0a8e <_end+0xfffdaa8a>
    54a8:	deadbeef          	jal	t4,fffe0a92 <_end+0xfffdaa8e>
    54ac:	deadbeef          	jal	t4,fffe0a96 <_end+0xfffdaa92>
    54b0:	deadbeef          	jal	t4,fffe0a9a <_end+0xfffdaa96>
    54b4:	deadbeef          	jal	t4,fffe0a9e <_end+0xfffdaa9a>
    54b8:	deadbeef          	jal	t4,fffe0aa2 <_end+0xfffdaa9e>
    54bc:	deadbeef          	jal	t4,fffe0aa6 <_end+0xfffdaaa2>
    54c0:	deadbeef          	jal	t4,fffe0aaa <_end+0xfffdaaa6>
    54c4:	deadbeef          	jal	t4,fffe0aae <_end+0xfffdaaaa>
    54c8:	deadbeef          	jal	t4,fffe0ab2 <_end+0xfffdaaae>
    54cc:	deadbeef          	jal	t4,fffe0ab6 <_end+0xfffdaab2>
    54d0:	deadbeef          	jal	t4,fffe0aba <_end+0xfffdaab6>
    54d4:	deadbeef          	jal	t4,fffe0abe <_end+0xfffdaaba>
    54d8:	deadbeef          	jal	t4,fffe0ac2 <_end+0xfffdaabe>
    54dc:	deadbeef          	jal	t4,fffe0ac6 <_end+0xfffdaac2>
    54e0:	deadbeef          	jal	t4,fffe0aca <_end+0xfffdaac6>
    54e4:	deadbeef          	jal	t4,fffe0ace <_end+0xfffdaaca>
    54e8:	deadbeef          	jal	t4,fffe0ad2 <_end+0xfffdaace>
    54ec:	deadbeef          	jal	t4,fffe0ad6 <_end+0xfffdaad2>
    54f0:	deadbeef          	jal	t4,fffe0ada <_end+0xfffdaad6>
    54f4:	deadbeef          	jal	t4,fffe0ade <_end+0xfffdaada>
    54f8:	deadbeef          	jal	t4,fffe0ae2 <_end+0xfffdaade>
    54fc:	deadbeef          	jal	t4,fffe0ae6 <_end+0xfffdaae2>
    5500:	deadbeef          	jal	t4,fffe0aea <_end+0xfffdaae6>
    5504:	deadbeef          	jal	t4,fffe0aee <_end+0xfffdaaea>
    5508:	deadbeef          	jal	t4,fffe0af2 <_end+0xfffdaaee>
    550c:	deadbeef          	jal	t4,fffe0af6 <_end+0xfffdaaf2>
    5510:	deadbeef          	jal	t4,fffe0afa <_end+0xfffdaaf6>
    5514:	deadbeef          	jal	t4,fffe0afe <_end+0xfffdaafa>
    5518:	deadbeef          	jal	t4,fffe0b02 <_end+0xfffdaafe>
    551c:	deadbeef          	jal	t4,fffe0b06 <_end+0xfffdab02>
    5520:	deadbeef          	jal	t4,fffe0b0a <_end+0xfffdab06>
    5524:	deadbeef          	jal	t4,fffe0b0e <_end+0xfffdab0a>
    5528:	deadbeef          	jal	t4,fffe0b12 <_end+0xfffdab0e>
    552c:	deadbeef          	jal	t4,fffe0b16 <_end+0xfffdab12>
    5530:	deadbeef          	jal	t4,fffe0b1a <_end+0xfffdab16>
    5534:	deadbeef          	jal	t4,fffe0b1e <_end+0xfffdab1a>
    5538:	deadbeef          	jal	t4,fffe0b22 <_end+0xfffdab1e>
    553c:	deadbeef          	jal	t4,fffe0b26 <_end+0xfffdab22>
    5540:	deadbeef          	jal	t4,fffe0b2a <_end+0xfffdab26>
    5544:	deadbeef          	jal	t4,fffe0b2e <_end+0xfffdab2a>
    5548:	deadbeef          	jal	t4,fffe0b32 <_end+0xfffdab2e>
    554c:	deadbeef          	jal	t4,fffe0b36 <_end+0xfffdab32>
    5550:	deadbeef          	jal	t4,fffe0b3a <_end+0xfffdab36>
    5554:	deadbeef          	jal	t4,fffe0b3e <_end+0xfffdab3a>
    5558:	deadbeef          	jal	t4,fffe0b42 <_end+0xfffdab3e>
    555c:	deadbeef          	jal	t4,fffe0b46 <_end+0xfffdab42>
    5560:	deadbeef          	jal	t4,fffe0b4a <_end+0xfffdab46>
    5564:	deadbeef          	jal	t4,fffe0b4e <_end+0xfffdab4a>
    5568:	deadbeef          	jal	t4,fffe0b52 <_end+0xfffdab4e>
    556c:	deadbeef          	jal	t4,fffe0b56 <_end+0xfffdab52>
    5570:	deadbeef          	jal	t4,fffe0b5a <_end+0xfffdab56>
    5574:	deadbeef          	jal	t4,fffe0b5e <_end+0xfffdab5a>
    5578:	deadbeef          	jal	t4,fffe0b62 <_end+0xfffdab5e>
    557c:	deadbeef          	jal	t4,fffe0b66 <_end+0xfffdab62>
    5580:	deadbeef          	jal	t4,fffe0b6a <_end+0xfffdab66>
    5584:	deadbeef          	jal	t4,fffe0b6e <_end+0xfffdab6a>
    5588:	deadbeef          	jal	t4,fffe0b72 <_end+0xfffdab6e>
    558c:	deadbeef          	jal	t4,fffe0b76 <_end+0xfffdab72>
    5590:	deadbeef          	jal	t4,fffe0b7a <_end+0xfffdab76>
    5594:	deadbeef          	jal	t4,fffe0b7e <_end+0xfffdab7a>
    5598:	deadbeef          	jal	t4,fffe0b82 <_end+0xfffdab7e>
    559c:	deadbeef          	jal	t4,fffe0b86 <_end+0xfffdab82>
    55a0:	deadbeef          	jal	t4,fffe0b8a <_end+0xfffdab86>
    55a4:	deadbeef          	jal	t4,fffe0b8e <_end+0xfffdab8a>
    55a8:	deadbeef          	jal	t4,fffe0b92 <_end+0xfffdab8e>
    55ac:	deadbeef          	jal	t4,fffe0b96 <_end+0xfffdab92>
    55b0:	deadbeef          	jal	t4,fffe0b9a <_end+0xfffdab96>
    55b4:	deadbeef          	jal	t4,fffe0b9e <_end+0xfffdab9a>
    55b8:	deadbeef          	jal	t4,fffe0ba2 <_end+0xfffdab9e>
    55bc:	deadbeef          	jal	t4,fffe0ba6 <_end+0xfffdaba2>
    55c0:	deadbeef          	jal	t4,fffe0baa <_end+0xfffdaba6>
    55c4:	deadbeef          	jal	t4,fffe0bae <_end+0xfffdabaa>
    55c8:	deadbeef          	jal	t4,fffe0bb2 <_end+0xfffdabae>
    55cc:	deadbeef          	jal	t4,fffe0bb6 <_end+0xfffdabb2>
    55d0:	deadbeef          	jal	t4,fffe0bba <_end+0xfffdabb6>
    55d4:	deadbeef          	jal	t4,fffe0bbe <_end+0xfffdabba>
    55d8:	deadbeef          	jal	t4,fffe0bc2 <_end+0xfffdabbe>
    55dc:	deadbeef          	jal	t4,fffe0bc6 <_end+0xfffdabc2>
    55e0:	deadbeef          	jal	t4,fffe0bca <_end+0xfffdabc6>
    55e4:	deadbeef          	jal	t4,fffe0bce <_end+0xfffdabca>
    55e8:	deadbeef          	jal	t4,fffe0bd2 <_end+0xfffdabce>
    55ec:	deadbeef          	jal	t4,fffe0bd6 <_end+0xfffdabd2>
    55f0:	deadbeef          	jal	t4,fffe0bda <_end+0xfffdabd6>
    55f4:	deadbeef          	jal	t4,fffe0bde <_end+0xfffdabda>
    55f8:	deadbeef          	jal	t4,fffe0be2 <_end+0xfffdabde>
    55fc:	deadbeef          	jal	t4,fffe0be6 <_end+0xfffdabe2>
    5600:	deadbeef          	jal	t4,fffe0bea <_end+0xfffdabe6>
    5604:	deadbeef          	jal	t4,fffe0bee <_end+0xfffdabea>
    5608:	deadbeef          	jal	t4,fffe0bf2 <_end+0xfffdabee>
    560c:	deadbeef          	jal	t4,fffe0bf6 <_end+0xfffdabf2>
    5610:	deadbeef          	jal	t4,fffe0bfa <_end+0xfffdabf6>
    5614:	deadbeef          	jal	t4,fffe0bfe <_end+0xfffdabfa>
    5618:	deadbeef          	jal	t4,fffe0c02 <_end+0xfffdabfe>
    561c:	deadbeef          	jal	t4,fffe0c06 <_end+0xfffdac02>
    5620:	deadbeef          	jal	t4,fffe0c0a <_end+0xfffdac06>
    5624:	deadbeef          	jal	t4,fffe0c0e <_end+0xfffdac0a>
    5628:	deadbeef          	jal	t4,fffe0c12 <_end+0xfffdac0e>
    562c:	deadbeef          	jal	t4,fffe0c16 <_end+0xfffdac12>
    5630:	deadbeef          	jal	t4,fffe0c1a <_end+0xfffdac16>
    5634:	deadbeef          	jal	t4,fffe0c1e <_end+0xfffdac1a>
    5638:	deadbeef          	jal	t4,fffe0c22 <_end+0xfffdac1e>
    563c:	deadbeef          	jal	t4,fffe0c26 <_end+0xfffdac22>
    5640:	deadbeef          	jal	t4,fffe0c2a <_end+0xfffdac26>
    5644:	deadbeef          	jal	t4,fffe0c2e <_end+0xfffdac2a>
    5648:	deadbeef          	jal	t4,fffe0c32 <_end+0xfffdac2e>
    564c:	deadbeef          	jal	t4,fffe0c36 <_end+0xfffdac32>
    5650:	deadbeef          	jal	t4,fffe0c3a <_end+0xfffdac36>
    5654:	deadbeef          	jal	t4,fffe0c3e <_end+0xfffdac3a>
    5658:	deadbeef          	jal	t4,fffe0c42 <_end+0xfffdac3e>
    565c:	deadbeef          	jal	t4,fffe0c46 <_end+0xfffdac42>
    5660:	deadbeef          	jal	t4,fffe0c4a <_end+0xfffdac46>
    5664:	deadbeef          	jal	t4,fffe0c4e <_end+0xfffdac4a>
    5668:	deadbeef          	jal	t4,fffe0c52 <_end+0xfffdac4e>
    566c:	deadbeef          	jal	t4,fffe0c56 <_end+0xfffdac52>
    5670:	deadbeef          	jal	t4,fffe0c5a <_end+0xfffdac56>
    5674:	deadbeef          	jal	t4,fffe0c5e <_end+0xfffdac5a>
    5678:	deadbeef          	jal	t4,fffe0c62 <_end+0xfffdac5e>
    567c:	deadbeef          	jal	t4,fffe0c66 <_end+0xfffdac62>
    5680:	deadbeef          	jal	t4,fffe0c6a <_end+0xfffdac66>
    5684:	deadbeef          	jal	t4,fffe0c6e <_end+0xfffdac6a>
    5688:	deadbeef          	jal	t4,fffe0c72 <_end+0xfffdac6e>
    568c:	deadbeef          	jal	t4,fffe0c76 <_end+0xfffdac72>
    5690:	deadbeef          	jal	t4,fffe0c7a <_end+0xfffdac76>
    5694:	deadbeef          	jal	t4,fffe0c7e <_end+0xfffdac7a>
    5698:	deadbeef          	jal	t4,fffe0c82 <_end+0xfffdac7e>
    569c:	deadbeef          	jal	t4,fffe0c86 <_end+0xfffdac82>
    56a0:	deadbeef          	jal	t4,fffe0c8a <_end+0xfffdac86>
    56a4:	deadbeef          	jal	t4,fffe0c8e <_end+0xfffdac8a>
    56a8:	deadbeef          	jal	t4,fffe0c92 <_end+0xfffdac8e>
    56ac:	deadbeef          	jal	t4,fffe0c96 <_end+0xfffdac92>
    56b0:	deadbeef          	jal	t4,fffe0c9a <_end+0xfffdac96>
    56b4:	deadbeef          	jal	t4,fffe0c9e <_end+0xfffdac9a>
    56b8:	deadbeef          	jal	t4,fffe0ca2 <_end+0xfffdac9e>
    56bc:	deadbeef          	jal	t4,fffe0ca6 <_end+0xfffdaca2>
    56c0:	deadbeef          	jal	t4,fffe0caa <_end+0xfffdaca6>
    56c4:	deadbeef          	jal	t4,fffe0cae <_end+0xfffdacaa>
    56c8:	deadbeef          	jal	t4,fffe0cb2 <_end+0xfffdacae>
    56cc:	deadbeef          	jal	t4,fffe0cb6 <_end+0xfffdacb2>
    56d0:	deadbeef          	jal	t4,fffe0cba <_end+0xfffdacb6>
    56d4:	deadbeef          	jal	t4,fffe0cbe <_end+0xfffdacba>
    56d8:	deadbeef          	jal	t4,fffe0cc2 <_end+0xfffdacbe>
    56dc:	deadbeef          	jal	t4,fffe0cc6 <_end+0xfffdacc2>
    56e0:	deadbeef          	jal	t4,fffe0cca <_end+0xfffdacc6>
    56e4:	deadbeef          	jal	t4,fffe0cce <_end+0xfffdacca>
    56e8:	deadbeef          	jal	t4,fffe0cd2 <_end+0xfffdacce>
    56ec:	deadbeef          	jal	t4,fffe0cd6 <_end+0xfffdacd2>
    56f0:	deadbeef          	jal	t4,fffe0cda <_end+0xfffdacd6>
    56f4:	deadbeef          	jal	t4,fffe0cde <_end+0xfffdacda>
    56f8:	deadbeef          	jal	t4,fffe0ce2 <_end+0xfffdacde>
    56fc:	deadbeef          	jal	t4,fffe0ce6 <_end+0xfffdace2>
    5700:	deadbeef          	jal	t4,fffe0cea <_end+0xfffdace6>
    5704:	deadbeef          	jal	t4,fffe0cee <_end+0xfffdacea>
    5708:	deadbeef          	jal	t4,fffe0cf2 <_end+0xfffdacee>
    570c:	deadbeef          	jal	t4,fffe0cf6 <_end+0xfffdacf2>
    5710:	deadbeef          	jal	t4,fffe0cfa <_end+0xfffdacf6>
    5714:	deadbeef          	jal	t4,fffe0cfe <_end+0xfffdacfa>
    5718:	deadbeef          	jal	t4,fffe0d02 <_end+0xfffdacfe>
    571c:	deadbeef          	jal	t4,fffe0d06 <_end+0xfffdad02>
    5720:	deadbeef          	jal	t4,fffe0d0a <_end+0xfffdad06>
    5724:	deadbeef          	jal	t4,fffe0d0e <_end+0xfffdad0a>
    5728:	deadbeef          	jal	t4,fffe0d12 <_end+0xfffdad0e>
    572c:	deadbeef          	jal	t4,fffe0d16 <_end+0xfffdad12>
    5730:	deadbeef          	jal	t4,fffe0d1a <_end+0xfffdad16>
    5734:	deadbeef          	jal	t4,fffe0d1e <_end+0xfffdad1a>
    5738:	deadbeef          	jal	t4,fffe0d22 <_end+0xfffdad1e>
    573c:	deadbeef          	jal	t4,fffe0d26 <_end+0xfffdad22>
    5740:	deadbeef          	jal	t4,fffe0d2a <_end+0xfffdad26>
    5744:	deadbeef          	jal	t4,fffe0d2e <_end+0xfffdad2a>
    5748:	deadbeef          	jal	t4,fffe0d32 <_end+0xfffdad2e>
    574c:	deadbeef          	jal	t4,fffe0d36 <_end+0xfffdad32>
    5750:	deadbeef          	jal	t4,fffe0d3a <_end+0xfffdad36>
    5754:	deadbeef          	jal	t4,fffe0d3e <_end+0xfffdad3a>
    5758:	deadbeef          	jal	t4,fffe0d42 <_end+0xfffdad3e>
    575c:	deadbeef          	jal	t4,fffe0d46 <_end+0xfffdad42>
    5760:	deadbeef          	jal	t4,fffe0d4a <_end+0xfffdad46>
    5764:	deadbeef          	jal	t4,fffe0d4e <_end+0xfffdad4a>
    5768:	deadbeef          	jal	t4,fffe0d52 <_end+0xfffdad4e>
    576c:	deadbeef          	jal	t4,fffe0d56 <_end+0xfffdad52>
    5770:	deadbeef          	jal	t4,fffe0d5a <_end+0xfffdad56>
    5774:	deadbeef          	jal	t4,fffe0d5e <_end+0xfffdad5a>
    5778:	deadbeef          	jal	t4,fffe0d62 <_end+0xfffdad5e>
    577c:	deadbeef          	jal	t4,fffe0d66 <_end+0xfffdad62>
    5780:	deadbeef          	jal	t4,fffe0d6a <_end+0xfffdad66>
    5784:	deadbeef          	jal	t4,fffe0d6e <_end+0xfffdad6a>
    5788:	deadbeef          	jal	t4,fffe0d72 <_end+0xfffdad6e>
    578c:	deadbeef          	jal	t4,fffe0d76 <_end+0xfffdad72>
    5790:	deadbeef          	jal	t4,fffe0d7a <_end+0xfffdad76>
    5794:	deadbeef          	jal	t4,fffe0d7e <_end+0xfffdad7a>
    5798:	deadbeef          	jal	t4,fffe0d82 <_end+0xfffdad7e>
    579c:	deadbeef          	jal	t4,fffe0d86 <_end+0xfffdad82>
    57a0:	deadbeef          	jal	t4,fffe0d8a <_end+0xfffdad86>
    57a4:	deadbeef          	jal	t4,fffe0d8e <_end+0xfffdad8a>
    57a8:	deadbeef          	jal	t4,fffe0d92 <_end+0xfffdad8e>
    57ac:	deadbeef          	jal	t4,fffe0d96 <_end+0xfffdad92>
    57b0:	deadbeef          	jal	t4,fffe0d9a <_end+0xfffdad96>
    57b4:	deadbeef          	jal	t4,fffe0d9e <_end+0xfffdad9a>
    57b8:	deadbeef          	jal	t4,fffe0da2 <_end+0xfffdad9e>
    57bc:	deadbeef          	jal	t4,fffe0da6 <_end+0xfffdada2>
    57c0:	deadbeef          	jal	t4,fffe0daa <_end+0xfffdada6>
    57c4:	deadbeef          	jal	t4,fffe0dae <_end+0xfffdadaa>
    57c8:	deadbeef          	jal	t4,fffe0db2 <_end+0xfffdadae>
    57cc:	deadbeef          	jal	t4,fffe0db6 <_end+0xfffdadb2>
    57d0:	deadbeef          	jal	t4,fffe0dba <_end+0xfffdadb6>
    57d4:	deadbeef          	jal	t4,fffe0dbe <_end+0xfffdadba>
    57d8:	deadbeef          	jal	t4,fffe0dc2 <_end+0xfffdadbe>
    57dc:	deadbeef          	jal	t4,fffe0dc6 <_end+0xfffdadc2>
    57e0:	deadbeef          	jal	t4,fffe0dca <_end+0xfffdadc6>
    57e4:	deadbeef          	jal	t4,fffe0dce <_end+0xfffdadca>
    57e8:	deadbeef          	jal	t4,fffe0dd2 <_end+0xfffdadce>
    57ec:	deadbeef          	jal	t4,fffe0dd6 <_end+0xfffdadd2>
    57f0:	deadbeef          	jal	t4,fffe0dda <_end+0xfffdadd6>
    57f4:	deadbeef          	jal	t4,fffe0dde <_end+0xfffdadda>
    57f8:	deadbeef          	jal	t4,fffe0de2 <_end+0xfffdadde>
    57fc:	deadbeef          	jal	t4,fffe0de6 <_end+0xfffdade2>
    5800:	deadbeef          	jal	t4,fffe0dea <_end+0xfffdade6>
    5804:	deadbeef          	jal	t4,fffe0dee <_end+0xfffdadea>
    5808:	deadbeef          	jal	t4,fffe0df2 <_end+0xfffdadee>
    580c:	deadbeef          	jal	t4,fffe0df6 <_end+0xfffdadf2>
    5810:	deadbeef          	jal	t4,fffe0dfa <_end+0xfffdadf6>
    5814:	deadbeef          	jal	t4,fffe0dfe <_end+0xfffdadfa>
    5818:	deadbeef          	jal	t4,fffe0e02 <_end+0xfffdadfe>
    581c:	deadbeef          	jal	t4,fffe0e06 <_end+0xfffdae02>
    5820:	deadbeef          	jal	t4,fffe0e0a <_end+0xfffdae06>
    5824:	deadbeef          	jal	t4,fffe0e0e <_end+0xfffdae0a>
    5828:	deadbeef          	jal	t4,fffe0e12 <_end+0xfffdae0e>
    582c:	deadbeef          	jal	t4,fffe0e16 <_end+0xfffdae12>
    5830:	deadbeef          	jal	t4,fffe0e1a <_end+0xfffdae16>
    5834:	deadbeef          	jal	t4,fffe0e1e <_end+0xfffdae1a>
    5838:	deadbeef          	jal	t4,fffe0e22 <_end+0xfffdae1e>
    583c:	deadbeef          	jal	t4,fffe0e26 <_end+0xfffdae22>
    5840:	deadbeef          	jal	t4,fffe0e2a <_end+0xfffdae26>
    5844:	deadbeef          	jal	t4,fffe0e2e <_end+0xfffdae2a>
    5848:	deadbeef          	jal	t4,fffe0e32 <_end+0xfffdae2e>
    584c:	deadbeef          	jal	t4,fffe0e36 <_end+0xfffdae32>
    5850:	deadbeef          	jal	t4,fffe0e3a <_end+0xfffdae36>
    5854:	deadbeef          	jal	t4,fffe0e3e <_end+0xfffdae3a>

00005858 <signature_x13_1>:
    5858:	deadbeef          	jal	t4,fffe0e42 <_end+0xfffdae3e>
    585c:	deadbeef          	jal	t4,fffe0e46 <_end+0xfffdae42>
    5860:	deadbeef          	jal	t4,fffe0e4a <_end+0xfffdae46>
    5864:	deadbeef          	jal	t4,fffe0e4e <_end+0xfffdae4a>
    5868:	deadbeef          	jal	t4,fffe0e52 <_end+0xfffdae4e>
    586c:	deadbeef          	jal	t4,fffe0e56 <_end+0xfffdae52>
    5870:	deadbeef          	jal	t4,fffe0e5a <_end+0xfffdae56>
    5874:	deadbeef          	jal	t4,fffe0e5e <_end+0xfffdae5a>
    5878:	deadbeef          	jal	t4,fffe0e62 <_end+0xfffdae5e>
    587c:	deadbeef          	jal	t4,fffe0e66 <_end+0xfffdae62>
    5880:	deadbeef          	jal	t4,fffe0e6a <_end+0xfffdae66>
    5884:	deadbeef          	jal	t4,fffe0e6e <_end+0xfffdae6a>
    5888:	deadbeef          	jal	t4,fffe0e72 <_end+0xfffdae6e>
    588c:	deadbeef          	jal	t4,fffe0e76 <_end+0xfffdae72>
    5890:	deadbeef          	jal	t4,fffe0e7a <_end+0xfffdae76>
    5894:	deadbeef          	jal	t4,fffe0e7e <_end+0xfffdae7a>
    5898:	deadbeef          	jal	t4,fffe0e82 <_end+0xfffdae7e>
    589c:	deadbeef          	jal	t4,fffe0e86 <_end+0xfffdae82>
    58a0:	deadbeef          	jal	t4,fffe0e8a <_end+0xfffdae86>
    58a4:	deadbeef          	jal	t4,fffe0e8e <_end+0xfffdae8a>
    58a8:	deadbeef          	jal	t4,fffe0e92 <_end+0xfffdae8e>
    58ac:	deadbeef          	jal	t4,fffe0e96 <_end+0xfffdae92>
    58b0:	deadbeef          	jal	t4,fffe0e9a <_end+0xfffdae96>
    58b4:	deadbeef          	jal	t4,fffe0e9e <_end+0xfffdae9a>
    58b8:	deadbeef          	jal	t4,fffe0ea2 <_end+0xfffdae9e>
    58bc:	deadbeef          	jal	t4,fffe0ea6 <_end+0xfffdaea2>
    58c0:	deadbeef          	jal	t4,fffe0eaa <_end+0xfffdaea6>
    58c4:	deadbeef          	jal	t4,fffe0eae <_end+0xfffdaeaa>
    58c8:	deadbeef          	jal	t4,fffe0eb2 <_end+0xfffdaeae>
    58cc:	deadbeef          	jal	t4,fffe0eb6 <_end+0xfffdaeb2>
    58d0:	deadbeef          	jal	t4,fffe0eba <_end+0xfffdaeb6>
    58d4:	deadbeef          	jal	t4,fffe0ebe <_end+0xfffdaeba>
    58d8:	deadbeef          	jal	t4,fffe0ec2 <_end+0xfffdaebe>
    58dc:	deadbeef          	jal	t4,fffe0ec6 <_end+0xfffdaec2>
    58e0:	deadbeef          	jal	t4,fffe0eca <_end+0xfffdaec6>
    58e4:	deadbeef          	jal	t4,fffe0ece <_end+0xfffdaeca>
    58e8:	deadbeef          	jal	t4,fffe0ed2 <_end+0xfffdaece>
    58ec:	deadbeef          	jal	t4,fffe0ed6 <_end+0xfffdaed2>
    58f0:	deadbeef          	jal	t4,fffe0eda <_end+0xfffdaed6>
    58f4:	deadbeef          	jal	t4,fffe0ede <_end+0xfffdaeda>
    58f8:	deadbeef          	jal	t4,fffe0ee2 <_end+0xfffdaede>
    58fc:	deadbeef          	jal	t4,fffe0ee6 <_end+0xfffdaee2>
    5900:	deadbeef          	jal	t4,fffe0eea <_end+0xfffdaee6>
    5904:	deadbeef          	jal	t4,fffe0eee <_end+0xfffdaeea>
    5908:	deadbeef          	jal	t4,fffe0ef2 <_end+0xfffdaeee>
    590c:	deadbeef          	jal	t4,fffe0ef6 <_end+0xfffdaef2>
    5910:	deadbeef          	jal	t4,fffe0efa <_end+0xfffdaef6>
    5914:	deadbeef          	jal	t4,fffe0efe <_end+0xfffdaefa>
    5918:	deadbeef          	jal	t4,fffe0f02 <_end+0xfffdaefe>
    591c:	deadbeef          	jal	t4,fffe0f06 <_end+0xfffdaf02>
    5920:	deadbeef          	jal	t4,fffe0f0a <_end+0xfffdaf06>
    5924:	deadbeef          	jal	t4,fffe0f0e <_end+0xfffdaf0a>
    5928:	deadbeef          	jal	t4,fffe0f12 <_end+0xfffdaf0e>
    592c:	deadbeef          	jal	t4,fffe0f16 <_end+0xfffdaf12>
    5930:	deadbeef          	jal	t4,fffe0f1a <_end+0xfffdaf16>
    5934:	deadbeef          	jal	t4,fffe0f1e <_end+0xfffdaf1a>
    5938:	deadbeef          	jal	t4,fffe0f22 <_end+0xfffdaf1e>
    593c:	deadbeef          	jal	t4,fffe0f26 <_end+0xfffdaf22>

Disassembly of section .tohost:

00006000 <tohost>:
    6000:	0000                	unimp
	...

Disassembly of section .riscv.attributes:

00000000 <.riscv.attributes>:
   0:	1941                	addi	s2,s2,-16
   2:	0000                	unimp
   4:	7200                	flw	fs0,32(a2)
   6:	7369                	lui	t1,0xffffa
   8:	01007663          	bgeu	zero,a6,14 <offset-0xd4>
   c:	0000000f          	fence	unknown,unknown
  10:	7205                	lui	tp,0xfffe1
  12:	3376                	fld	ft6,376(sp)
  14:	6932                	flw	fs2,12(sp)
  16:	7032                	flw	ft0,44(sp)
  18:	0030                	addi	a2,sp,8

Disassembly of section .debug_line:

00000000 <.debug_line>:
   0:	0e59                	addi	t3,t3,22
   2:	0000                	unimp
   4:	00630003          	lb	zero,6(t1) # ffffa006 <_end+0xffff4002>
   8:	0000                	unimp
   a:	0101                	addi	sp,sp,0
   c:	000d0efb          	0xd0efb
  10:	0101                	addi	sp,sp,0
  12:	0101                	addi	sp,sp,0
  14:	0000                	unimp
  16:	0100                	addi	s0,sp,128
  18:	0000                	unimp
  1a:	2f01                	jal	72a <offset+0x642>
  1c:	6f68                	flw	fa0,92(a4)
  1e:	656d                	lui	a0,0x1b
  20:	6769742f          	0x6769742f
  24:	7265                	lui	tp,0xffff9
  26:	7439                	lui	s0,0xfffee
  28:	2f75                	jal	7e4 <offset+0x6fc>
  2a:	6f74                	flw	fa3,92(a4)
  2c:	2f736c6f          	jal	s8,36b22 <_end+0x30b1e>
  30:	6972                	flw	fs2,28(sp)
  32:	2d766373          	csrrsi	t1,0x2d7,12
  36:	7261                	lui	tp,0xffff8
  38:	742d6863          	bltu	s10,sp,788 <offset+0x6a0>
  3c:	7365                	lui	t1,0xffff9
  3e:	2f74                	fld	fa3,216(a4)
  40:	6972                	flw	fs2,28(sp)
  42:	2d766373          	csrrsi	t1,0x2d7,12
  46:	6574                	flw	fa3,76(a0)
  48:	732d7473          	csrrci	s0,0x732,26
  4c:	6975                	lui	s2,0x1d
  4e:	6574                	flw	fa3,76(a0)
  50:	3376722f          	0x3376722f
  54:	6932                	flw	fs2,12(sp)
  56:	6d5f 492f 732f      	0x732f492f6d5f
  5c:	6372                	flw	ft6,28(sp)
  5e:	0000                	unimp
  60:	6f78                	flw	fa4,92(a4)
  62:	2d72                	fld	fs10,280(sp)
  64:	3130                	fld	fa2,96(a0)
  66:	532e                	lw	t1,232(sp)
  68:	0100                	addi	s0,sp,128
  6a:	0000                	unimp
  6c:	0000                	unimp
  6e:	0205                	addi	tp,tp,1
  70:	1000                	addi	s0,sp,32
  72:	0000                	unimp
  74:	03011903          	lh	s2,48(sp)
  78:	0906                	slli	s2,s2,0x1
  7a:	00f8                	addi	a4,sp,76
  7c:	0301                	addi	t1,t1,0
  7e:	0905                	addi	s2,s2,1
  80:	0008                	0x8
  82:	0301                	addi	t1,t1,0
  84:	0905                	addi	s2,s2,1
  86:	0014                	0x14
  88:	0301                	addi	t1,t1,0
  8a:	0905                	addi	s2,s2,1
  8c:	0010                	0x10
  8e:	0301                	addi	t1,t1,0
  90:	0905                	addi	s2,s2,1
  92:	0018                	0x18
  94:	0301                	addi	t1,t1,0
  96:	0905                	addi	s2,s2,1
  98:	0010                	0x10
  9a:	0301                	addi	t1,t1,0
  9c:	0905                	addi	s2,s2,1
  9e:	0010                	0x10
  a0:	0301                	addi	t1,t1,0
  a2:	0905                	addi	s2,s2,1
  a4:	0010                	0x10
  a6:	0301                	addi	t1,t1,0
  a8:	0905                	addi	s2,s2,1
  aa:	0010                	0x10
  ac:	0301                	addi	t1,t1,0
  ae:	0905                	addi	s2,s2,1
  b0:	0018                	0x18
  b2:	0301                	addi	t1,t1,0
  b4:	0905                	addi	s2,s2,1
  b6:	0010                	0x10
  b8:	0301                	addi	t1,t1,0
  ba:	0905                	addi	s2,s2,1
  bc:	0014                	0x14
  be:	0301                	addi	t1,t1,0
  c0:	0905                	addi	s2,s2,1
  c2:	0014                	0x14
  c4:	0301                	addi	t1,t1,0
  c6:	0905                	addi	s2,s2,1
  c8:	0010                	0x10
  ca:	0301                	addi	t1,t1,0
  cc:	0905                	addi	s2,s2,1
  ce:	0010                	0x10
  d0:	0301                	addi	t1,t1,0
  d2:	0905                	addi	s2,s2,1
  d4:	0010                	0x10
  d6:	0301                	addi	t1,t1,0
  d8:	0905                	addi	s2,s2,1
  da:	0010                	0x10
  dc:	0301                	addi	t1,t1,0
  de:	0905                	addi	s2,s2,1
  e0:	0010                	0x10
  e2:	0301                	addi	t1,t1,0
  e4:	0905                	addi	s2,s2,1
  e6:	0014                	0x14
  e8:	0301                	addi	t1,t1,0
  ea:	0901                	addi	s2,s2,0
  ec:	0014                	0x14
  ee:	0301                	addi	t1,t1,0
  f0:	0905                	addi	s2,s2,1
  f2:	0008                	0x8
  f4:	0301                	addi	t1,t1,0
  f6:	0905                	addi	s2,s2,1
  f8:	0014                	0x14
  fa:	0301                	addi	t1,t1,0
  fc:	0905                	addi	s2,s2,1
  fe:	0014                	0x14
 100:	0301                	addi	t1,t1,0
 102:	0905                	addi	s2,s2,1
 104:	0010                	0x10
 106:	0301                	addi	t1,t1,0
 108:	0905                	addi	s2,s2,1
 10a:	0018                	0x18
 10c:	0301                	addi	t1,t1,0
 10e:	0905                	addi	s2,s2,1
 110:	0010                	0x10
 112:	0301                	addi	t1,t1,0
 114:	0905                	addi	s2,s2,1
 116:	0010                	0x10
 118:	0301                	addi	t1,t1,0
 11a:	0905                	addi	s2,s2,1
 11c:	0010                	0x10
 11e:	0301                	addi	t1,t1,0
 120:	0905                	addi	s2,s2,1
 122:	0010                	0x10
 124:	0301                	addi	t1,t1,0
 126:	0905                	addi	s2,s2,1
 128:	0014                	0x14
 12a:	0301                	addi	t1,t1,0
 12c:	0905                	addi	s2,s2,1
 12e:	0014                	0x14
 130:	0301                	addi	t1,t1,0
 132:	0905                	addi	s2,s2,1
 134:	0010                	0x10
 136:	0301                	addi	t1,t1,0
 138:	0905                	addi	s2,s2,1
 13a:	0010                	0x10
 13c:	0301                	addi	t1,t1,0
 13e:	0905                	addi	s2,s2,1
 140:	0014                	0x14
 142:	0301                	addi	t1,t1,0
 144:	0905                	addi	s2,s2,1
 146:	0014                	0x14
 148:	0301                	addi	t1,t1,0
 14a:	0905                	addi	s2,s2,1
 14c:	0010                	0x10
 14e:	0301                	addi	t1,t1,0
 150:	0905                	addi	s2,s2,1
 152:	0014                	0x14
 154:	0301                	addi	t1,t1,0
 156:	0905                	addi	s2,s2,1
 158:	0014                	0x14
 15a:	0301                	addi	t1,t1,0
 15c:	0905                	addi	s2,s2,1
 15e:	0014                	0x14
 160:	0301                	addi	t1,t1,0
 162:	0905                	addi	s2,s2,1
 164:	0010                	0x10
 166:	0301                	addi	t1,t1,0
 168:	0905                	addi	s2,s2,1
 16a:	0010                	0x10
 16c:	0301                	addi	t1,t1,0
 16e:	0905                	addi	s2,s2,1
 170:	0014                	0x14
 172:	0301                	addi	t1,t1,0
 174:	0905                	addi	s2,s2,1
 176:	0014                	0x14
 178:	0301                	addi	t1,t1,0
 17a:	0905                	addi	s2,s2,1
 17c:	0014                	0x14
 17e:	0301                	addi	t1,t1,0
 180:	0905                	addi	s2,s2,1
 182:	0010                	0x10
 184:	0301                	addi	t1,t1,0
 186:	0905                	addi	s2,s2,1
 188:	0014                	0x14
 18a:	0301                	addi	t1,t1,0
 18c:	0905                	addi	s2,s2,1
 18e:	0010                	0x10
 190:	0301                	addi	t1,t1,0
 192:	0905                	addi	s2,s2,1
 194:	0010                	0x10
 196:	0301                	addi	t1,t1,0
 198:	0905                	addi	s2,s2,1
 19a:	0010                	0x10
 19c:	0301                	addi	t1,t1,0
 19e:	0905                	addi	s2,s2,1
 1a0:	0010                	0x10
 1a2:	0301                	addi	t1,t1,0
 1a4:	0905                	addi	s2,s2,1
 1a6:	0010                	0x10
 1a8:	0301                	addi	t1,t1,0
 1aa:	0905                	addi	s2,s2,1
 1ac:	0014                	0x14
 1ae:	0301                	addi	t1,t1,0
 1b0:	0905                	addi	s2,s2,1
 1b2:	0010                	0x10
 1b4:	0301                	addi	t1,t1,0
 1b6:	0905                	addi	s2,s2,1
 1b8:	0010                	0x10
 1ba:	0301                	addi	t1,t1,0
 1bc:	0905                	addi	s2,s2,1
 1be:	0018                	0x18
 1c0:	0301                	addi	t1,t1,0
 1c2:	0905                	addi	s2,s2,1
 1c4:	0014                	0x14
 1c6:	0301                	addi	t1,t1,0
 1c8:	0905                	addi	s2,s2,1
 1ca:	0014                	0x14
 1cc:	0301                	addi	t1,t1,0
 1ce:	0905                	addi	s2,s2,1
 1d0:	0018                	0x18
 1d2:	0301                	addi	t1,t1,0
 1d4:	0905                	addi	s2,s2,1
 1d6:	0014                	0x14
 1d8:	0301                	addi	t1,t1,0
 1da:	0905                	addi	s2,s2,1
 1dc:	0014                	0x14
 1de:	0301                	addi	t1,t1,0
 1e0:	0905                	addi	s2,s2,1
 1e2:	0014                	0x14
 1e4:	0301                	addi	t1,t1,0
 1e6:	0905                	addi	s2,s2,1
 1e8:	0014                	0x14
 1ea:	0301                	addi	t1,t1,0
 1ec:	0905                	addi	s2,s2,1
 1ee:	0014                	0x14
 1f0:	0301                	addi	t1,t1,0
 1f2:	0905                	addi	s2,s2,1
 1f4:	0014                	0x14
 1f6:	0301                	addi	t1,t1,0
 1f8:	0905                	addi	s2,s2,1
 1fa:	0014                	0x14
 1fc:	0301                	addi	t1,t1,0
 1fe:	0905                	addi	s2,s2,1
 200:	0018                	0x18
 202:	0301                	addi	t1,t1,0
 204:	0905                	addi	s2,s2,1
 206:	0014                	0x14
 208:	0301                	addi	t1,t1,0
 20a:	0905                	addi	s2,s2,1
 20c:	0018                	0x18
 20e:	0301                	addi	t1,t1,0
 210:	0905                	addi	s2,s2,1
 212:	0014                	0x14
 214:	0301                	addi	t1,t1,0
 216:	0905                	addi	s2,s2,1
 218:	0018                	0x18
 21a:	0301                	addi	t1,t1,0
 21c:	0905                	addi	s2,s2,1
 21e:	0018                	0x18
 220:	0301                	addi	t1,t1,0
 222:	0905                	addi	s2,s2,1
 224:	0018                	0x18
 226:	0301                	addi	t1,t1,0
 228:	0905                	addi	s2,s2,1
 22a:	0018                	0x18
 22c:	0301                	addi	t1,t1,0
 22e:	0905                	addi	s2,s2,1
 230:	0014                	0x14
 232:	0301                	addi	t1,t1,0
 234:	0905                	addi	s2,s2,1
 236:	0010                	0x10
 238:	0301                	addi	t1,t1,0
 23a:	0905                	addi	s2,s2,1
 23c:	0010                	0x10
 23e:	0301                	addi	t1,t1,0
 240:	0905                	addi	s2,s2,1
 242:	0010                	0x10
 244:	0301                	addi	t1,t1,0
 246:	0905                	addi	s2,s2,1
 248:	0010                	0x10
 24a:	0301                	addi	t1,t1,0
 24c:	0905                	addi	s2,s2,1
 24e:	0014                	0x14
 250:	0301                	addi	t1,t1,0
 252:	0905                	addi	s2,s2,1
 254:	0014                	0x14
 256:	0301                	addi	t1,t1,0
 258:	0905                	addi	s2,s2,1
 25a:	0014                	0x14
 25c:	0301                	addi	t1,t1,0
 25e:	0905                	addi	s2,s2,1
 260:	0018                	0x18
 262:	0301                	addi	t1,t1,0
 264:	0905                	addi	s2,s2,1
 266:	0014                	0x14
 268:	0301                	addi	t1,t1,0
 26a:	0905                	addi	s2,s2,1
 26c:	0014                	0x14
 26e:	0301                	addi	t1,t1,0
 270:	0905                	addi	s2,s2,1
 272:	0010                	0x10
 274:	0301                	addi	t1,t1,0
 276:	0905                	addi	s2,s2,1
 278:	0014                	0x14
 27a:	0301                	addi	t1,t1,0
 27c:	0905                	addi	s2,s2,1
 27e:	0014                	0x14
 280:	0301                	addi	t1,t1,0
 282:	0905                	addi	s2,s2,1
 284:	0014                	0x14
 286:	0301                	addi	t1,t1,0
 288:	0905                	addi	s2,s2,1
 28a:	0010                	0x10
 28c:	0301                	addi	t1,t1,0
 28e:	0905                	addi	s2,s2,1
 290:	0014                	0x14
 292:	0301                	addi	t1,t1,0
 294:	0905                	addi	s2,s2,1
 296:	0010                	0x10
 298:	0301                	addi	t1,t1,0
 29a:	0905                	addi	s2,s2,1
 29c:	0014                	0x14
 29e:	0301                	addi	t1,t1,0
 2a0:	0905                	addi	s2,s2,1
 2a2:	0010                	0x10
 2a4:	0301                	addi	t1,t1,0
 2a6:	0905                	addi	s2,s2,1
 2a8:	0014                	0x14
 2aa:	0301                	addi	t1,t1,0
 2ac:	0905                	addi	s2,s2,1
 2ae:	0010                	0x10
 2b0:	0301                	addi	t1,t1,0
 2b2:	0905                	addi	s2,s2,1
 2b4:	0010                	0x10
 2b6:	0301                	addi	t1,t1,0
 2b8:	0905                	addi	s2,s2,1
 2ba:	0014                	0x14
 2bc:	0301                	addi	t1,t1,0
 2be:	0905                	addi	s2,s2,1
 2c0:	0014                	0x14
 2c2:	0301                	addi	t1,t1,0
 2c4:	0905                	addi	s2,s2,1
 2c6:	0014                	0x14
 2c8:	0301                	addi	t1,t1,0
 2ca:	0905                	addi	s2,s2,1
 2cc:	0014                	0x14
 2ce:	0301                	addi	t1,t1,0
 2d0:	0905                	addi	s2,s2,1
 2d2:	0014                	0x14
 2d4:	0301                	addi	t1,t1,0
 2d6:	0905                	addi	s2,s2,1
 2d8:	0018                	0x18
 2da:	0301                	addi	t1,t1,0
 2dc:	0905                	addi	s2,s2,1
 2de:	0014                	0x14
 2e0:	0301                	addi	t1,t1,0
 2e2:	0905                	addi	s2,s2,1
 2e4:	0014                	0x14
 2e6:	0301                	addi	t1,t1,0
 2e8:	0905                	addi	s2,s2,1
 2ea:	0018                	0x18
 2ec:	0301                	addi	t1,t1,0
 2ee:	0905                	addi	s2,s2,1
 2f0:	0014                	0x14
 2f2:	0301                	addi	t1,t1,0
 2f4:	0905                	addi	s2,s2,1
 2f6:	0018                	0x18
 2f8:	0301                	addi	t1,t1,0
 2fa:	0905                	addi	s2,s2,1
 2fc:	0018                	0x18
 2fe:	0301                	addi	t1,t1,0
 300:	0905                	addi	s2,s2,1
 302:	0010                	0x10
 304:	0301                	addi	t1,t1,0
 306:	0905                	addi	s2,s2,1
 308:	0014                	0x14
 30a:	0301                	addi	t1,t1,0
 30c:	0905                	addi	s2,s2,1
 30e:	0014                	0x14
 310:	0301                	addi	t1,t1,0
 312:	0905                	addi	s2,s2,1
 314:	0010                	0x10
 316:	0301                	addi	t1,t1,0
 318:	0905                	addi	s2,s2,1
 31a:	0014                	0x14
 31c:	0301                	addi	t1,t1,0
 31e:	0905                	addi	s2,s2,1
 320:	0014                	0x14
 322:	0301                	addi	t1,t1,0
 324:	0905                	addi	s2,s2,1
 326:	0014                	0x14
 328:	0301                	addi	t1,t1,0
 32a:	0905                	addi	s2,s2,1
 32c:	0014                	0x14
 32e:	0301                	addi	t1,t1,0
 330:	0905                	addi	s2,s2,1
 332:	0010                	0x10
 334:	0301                	addi	t1,t1,0
 336:	0905                	addi	s2,s2,1
 338:	0014                	0x14
 33a:	0301                	addi	t1,t1,0
 33c:	0905                	addi	s2,s2,1
 33e:	0010                	0x10
 340:	0301                	addi	t1,t1,0
 342:	0905                	addi	s2,s2,1
 344:	0010                	0x10
 346:	0301                	addi	t1,t1,0
 348:	0905                	addi	s2,s2,1
 34a:	0014                	0x14
 34c:	0301                	addi	t1,t1,0
 34e:	0905                	addi	s2,s2,1
 350:	0014                	0x14
 352:	0301                	addi	t1,t1,0
 354:	0905                	addi	s2,s2,1
 356:	0014                	0x14
 358:	0301                	addi	t1,t1,0
 35a:	0905                	addi	s2,s2,1
 35c:	0014                	0x14
 35e:	0301                	addi	t1,t1,0
 360:	0905                	addi	s2,s2,1
 362:	0014                	0x14
 364:	0301                	addi	t1,t1,0
 366:	0905                	addi	s2,s2,1
 368:	0010                	0x10
 36a:	0301                	addi	t1,t1,0
 36c:	0905                	addi	s2,s2,1
 36e:	0014                	0x14
 370:	0301                	addi	t1,t1,0
 372:	0905                	addi	s2,s2,1
 374:	0014                	0x14
 376:	0301                	addi	t1,t1,0
 378:	0905                	addi	s2,s2,1
 37a:	0014                	0x14
 37c:	0301                	addi	t1,t1,0
 37e:	0905                	addi	s2,s2,1
 380:	0014                	0x14
 382:	0301                	addi	t1,t1,0
 384:	0905                	addi	s2,s2,1
 386:	0014                	0x14
 388:	0301                	addi	t1,t1,0
 38a:	0905                	addi	s2,s2,1
 38c:	0018                	0x18
 38e:	0301                	addi	t1,t1,0
 390:	0905                	addi	s2,s2,1
 392:	0018                	0x18
 394:	0301                	addi	t1,t1,0
 396:	0905                	addi	s2,s2,1
 398:	0014                	0x14
 39a:	0301                	addi	t1,t1,0
 39c:	0905                	addi	s2,s2,1
 39e:	0018                	0x18
 3a0:	0301                	addi	t1,t1,0
 3a2:	0905                	addi	s2,s2,1
 3a4:	0018                	0x18
 3a6:	0301                	addi	t1,t1,0
 3a8:	0905                	addi	s2,s2,1
 3aa:	0018                	0x18
 3ac:	0301                	addi	t1,t1,0
 3ae:	0905                	addi	s2,s2,1
 3b0:	0018                	0x18
 3b2:	0301                	addi	t1,t1,0
 3b4:	0905                	addi	s2,s2,1
 3b6:	0014                	0x14
 3b8:	0301                	addi	t1,t1,0
 3ba:	0905                	addi	s2,s2,1
 3bc:	0018                	0x18
 3be:	0301                	addi	t1,t1,0
 3c0:	0905                	addi	s2,s2,1
 3c2:	0014                	0x14
 3c4:	0301                	addi	t1,t1,0
 3c6:	0905                	addi	s2,s2,1
 3c8:	0014                	0x14
 3ca:	0301                	addi	t1,t1,0
 3cc:	0905                	addi	s2,s2,1
 3ce:	0018                	0x18
 3d0:	0301                	addi	t1,t1,0
 3d2:	0905                	addi	s2,s2,1
 3d4:	0018                	0x18
 3d6:	0301                	addi	t1,t1,0
 3d8:	0905                	addi	s2,s2,1
 3da:	0018                	0x18
 3dc:	0301                	addi	t1,t1,0
 3de:	0905                	addi	s2,s2,1
 3e0:	0018                	0x18
 3e2:	0301                	addi	t1,t1,0
 3e4:	0905                	addi	s2,s2,1
 3e6:	0018                	0x18
 3e8:	0301                	addi	t1,t1,0
 3ea:	0905                	addi	s2,s2,1
 3ec:	0014                	0x14
 3ee:	0301                	addi	t1,t1,0
 3f0:	0905                	addi	s2,s2,1
 3f2:	0018                	0x18
 3f4:	0301                	addi	t1,t1,0
 3f6:	0905                	addi	s2,s2,1
 3f8:	0018                	0x18
 3fa:	0301                	addi	t1,t1,0
 3fc:	0905                	addi	s2,s2,1
 3fe:	0018                	0x18
 400:	0301                	addi	t1,t1,0
 402:	0905                	addi	s2,s2,1
 404:	0014                	0x14
 406:	0301                	addi	t1,t1,0
 408:	0905                	addi	s2,s2,1
 40a:	0018                	0x18
 40c:	0301                	addi	t1,t1,0
 40e:	0905                	addi	s2,s2,1
 410:	0018                	0x18
 412:	0301                	addi	t1,t1,0
 414:	0905                	addi	s2,s2,1
 416:	0014                	0x14
 418:	0301                	addi	t1,t1,0
 41a:	0905                	addi	s2,s2,1
 41c:	0018                	0x18
 41e:	0301                	addi	t1,t1,0
 420:	0905                	addi	s2,s2,1
 422:	0018                	0x18
 424:	0301                	addi	t1,t1,0
 426:	0905                	addi	s2,s2,1
 428:	0018                	0x18
 42a:	0301                	addi	t1,t1,0
 42c:	0905                	addi	s2,s2,1
 42e:	0018                	0x18
 430:	0301                	addi	t1,t1,0
 432:	0905                	addi	s2,s2,1
 434:	0014                	0x14
 436:	0301                	addi	t1,t1,0
 438:	0905                	addi	s2,s2,1
 43a:	0018                	0x18
 43c:	0301                	addi	t1,t1,0
 43e:	0905                	addi	s2,s2,1
 440:	0014                	0x14
 442:	0301                	addi	t1,t1,0
 444:	0905                	addi	s2,s2,1
 446:	0014                	0x14
 448:	0301                	addi	t1,t1,0
 44a:	0905                	addi	s2,s2,1
 44c:	0018                	0x18
 44e:	0301                	addi	t1,t1,0
 450:	0905                	addi	s2,s2,1
 452:	0018                	0x18
 454:	0301                	addi	t1,t1,0
 456:	0905                	addi	s2,s2,1
 458:	0018                	0x18
 45a:	0301                	addi	t1,t1,0
 45c:	0905                	addi	s2,s2,1
 45e:	0018                	0x18
 460:	0301                	addi	t1,t1,0
 462:	0905                	addi	s2,s2,1
 464:	0018                	0x18
 466:	0301                	addi	t1,t1,0
 468:	0905                	addi	s2,s2,1
 46a:	0014                	0x14
 46c:	0301                	addi	t1,t1,0
 46e:	0905                	addi	s2,s2,1
 470:	0018                	0x18
 472:	0301                	addi	t1,t1,0
 474:	0905                	addi	s2,s2,1
 476:	0018                	0x18
 478:	0301                	addi	t1,t1,0
 47a:	0905                	addi	s2,s2,1
 47c:	0018                	0x18
 47e:	0301                	addi	t1,t1,0
 480:	0905                	addi	s2,s2,1
 482:	0018                	0x18
 484:	0301                	addi	t1,t1,0
 486:	0905                	addi	s2,s2,1
 488:	0010                	0x10
 48a:	0301                	addi	t1,t1,0
 48c:	0905                	addi	s2,s2,1
 48e:	0014                	0x14
 490:	0301                	addi	t1,t1,0
 492:	0905                	addi	s2,s2,1
 494:	0014                	0x14
 496:	0301                	addi	t1,t1,0
 498:	0905                	addi	s2,s2,1
 49a:	0010                	0x10
 49c:	0301                	addi	t1,t1,0
 49e:	0905                	addi	s2,s2,1
 4a0:	0014                	0x14
 4a2:	0301                	addi	t1,t1,0
 4a4:	0905                	addi	s2,s2,1
 4a6:	0014                	0x14
 4a8:	0301                	addi	t1,t1,0
 4aa:	0905                	addi	s2,s2,1
 4ac:	0014                	0x14
 4ae:	0301                	addi	t1,t1,0
 4b0:	0905                	addi	s2,s2,1
 4b2:	0014                	0x14
 4b4:	0301                	addi	t1,t1,0
 4b6:	0905                	addi	s2,s2,1
 4b8:	0010                	0x10
 4ba:	0301                	addi	t1,t1,0
 4bc:	0905                	addi	s2,s2,1
 4be:	0014                	0x14
 4c0:	0301                	addi	t1,t1,0
 4c2:	0905                	addi	s2,s2,1
 4c4:	0010                	0x10
 4c6:	0301                	addi	t1,t1,0
 4c8:	0905                	addi	s2,s2,1
 4ca:	0010                	0x10
 4cc:	0301                	addi	t1,t1,0
 4ce:	0905                	addi	s2,s2,1
 4d0:	0014                	0x14
 4d2:	0301                	addi	t1,t1,0
 4d4:	0905                	addi	s2,s2,1
 4d6:	0014                	0x14
 4d8:	0301                	addi	t1,t1,0
 4da:	0905                	addi	s2,s2,1
 4dc:	0014                	0x14
 4de:	0301                	addi	t1,t1,0
 4e0:	0905                	addi	s2,s2,1
 4e2:	0014                	0x14
 4e4:	0301                	addi	t1,t1,0
 4e6:	0905                	addi	s2,s2,1
 4e8:	0014                	0x14
 4ea:	0301                	addi	t1,t1,0
 4ec:	0905                	addi	s2,s2,1
 4ee:	0010                	0x10
 4f0:	0301                	addi	t1,t1,0
 4f2:	0905                	addi	s2,s2,1
 4f4:	0014                	0x14
 4f6:	0301                	addi	t1,t1,0
 4f8:	0905                	addi	s2,s2,1
 4fa:	0014                	0x14
 4fc:	0301                	addi	t1,t1,0
 4fe:	0905                	addi	s2,s2,1
 500:	0014                	0x14
 502:	0301                	addi	t1,t1,0
 504:	0905                	addi	s2,s2,1
 506:	0014                	0x14
 508:	0301                	addi	t1,t1,0
 50a:	0905                	addi	s2,s2,1
 50c:	0014                	0x14
 50e:	0301                	addi	t1,t1,0
 510:	0905                	addi	s2,s2,1
 512:	0018                	0x18
 514:	0301                	addi	t1,t1,0
 516:	0905                	addi	s2,s2,1
 518:	0018                	0x18
 51a:	0301                	addi	t1,t1,0
 51c:	0905                	addi	s2,s2,1
 51e:	0014                	0x14
 520:	0301                	addi	t1,t1,0
 522:	0905                	addi	s2,s2,1
 524:	0018                	0x18
 526:	0301                	addi	t1,t1,0
 528:	0905                	addi	s2,s2,1
 52a:	0018                	0x18
 52c:	0301                	addi	t1,t1,0
 52e:	0905                	addi	s2,s2,1
 530:	0018                	0x18
 532:	0301                	addi	t1,t1,0
 534:	0905                	addi	s2,s2,1
 536:	0018                	0x18
 538:	0301                	addi	t1,t1,0
 53a:	0905                	addi	s2,s2,1
 53c:	0014                	0x14
 53e:	0301                	addi	t1,t1,0
 540:	0905                	addi	s2,s2,1
 542:	0018                	0x18
 544:	0301                	addi	t1,t1,0
 546:	0905                	addi	s2,s2,1
 548:	0014                	0x14
 54a:	0301                	addi	t1,t1,0
 54c:	0905                	addi	s2,s2,1
 54e:	0014                	0x14
 550:	0301                	addi	t1,t1,0
 552:	0905                	addi	s2,s2,1
 554:	0018                	0x18
 556:	0301                	addi	t1,t1,0
 558:	0905                	addi	s2,s2,1
 55a:	0018                	0x18
 55c:	0301                	addi	t1,t1,0
 55e:	0905                	addi	s2,s2,1
 560:	0018                	0x18
 562:	0301                	addi	t1,t1,0
 564:	0905                	addi	s2,s2,1
 566:	0018                	0x18
 568:	0301                	addi	t1,t1,0
 56a:	0905                	addi	s2,s2,1
 56c:	0018                	0x18
 56e:	0301                	addi	t1,t1,0
 570:	0905                	addi	s2,s2,1
 572:	0014                	0x14
 574:	0301                	addi	t1,t1,0
 576:	0905                	addi	s2,s2,1
 578:	0018                	0x18
 57a:	0301                	addi	t1,t1,0
 57c:	0905                	addi	s2,s2,1
 57e:	0018                	0x18
 580:	0301                	addi	t1,t1,0
 582:	0905                	addi	s2,s2,1
 584:	0018                	0x18
 586:	0301                	addi	t1,t1,0
 588:	0905                	addi	s2,s2,1
 58a:	0018                	0x18
 58c:	0301                	addi	t1,t1,0
 58e:	0905                	addi	s2,s2,1
 590:	0014                	0x14
 592:	0301                	addi	t1,t1,0
 594:	0905                	addi	s2,s2,1
 596:	0018                	0x18
 598:	0301                	addi	t1,t1,0
 59a:	0905                	addi	s2,s2,1
 59c:	0018                	0x18
 59e:	0301                	addi	t1,t1,0
 5a0:	0905                	addi	s2,s2,1
 5a2:	0014                	0x14
 5a4:	0301                	addi	t1,t1,0
 5a6:	0905                	addi	s2,s2,1
 5a8:	0018                	0x18
 5aa:	0301                	addi	t1,t1,0
 5ac:	0905                	addi	s2,s2,1
 5ae:	0018                	0x18
 5b0:	0301                	addi	t1,t1,0
 5b2:	0905                	addi	s2,s2,1
 5b4:	0018                	0x18
 5b6:	0301                	addi	t1,t1,0
 5b8:	0905                	addi	s2,s2,1
 5ba:	0018                	0x18
 5bc:	0301                	addi	t1,t1,0
 5be:	0905                	addi	s2,s2,1
 5c0:	0014                	0x14
 5c2:	0301                	addi	t1,t1,0
 5c4:	0905                	addi	s2,s2,1
 5c6:	0018                	0x18
 5c8:	0301                	addi	t1,t1,0
 5ca:	0905                	addi	s2,s2,1
 5cc:	0014                	0x14
 5ce:	0301                	addi	t1,t1,0
 5d0:	0905                	addi	s2,s2,1
 5d2:	0014                	0x14
 5d4:	0301                	addi	t1,t1,0
 5d6:	0905                	addi	s2,s2,1
 5d8:	0018                	0x18
 5da:	0301                	addi	t1,t1,0
 5dc:	0905                	addi	s2,s2,1
 5de:	0018                	0x18
 5e0:	0301                	addi	t1,t1,0
 5e2:	0905                	addi	s2,s2,1
 5e4:	0018                	0x18
 5e6:	0301                	addi	t1,t1,0
 5e8:	0905                	addi	s2,s2,1
 5ea:	0018                	0x18
 5ec:	0301                	addi	t1,t1,0
 5ee:	0905                	addi	s2,s2,1
 5f0:	0018                	0x18
 5f2:	0301                	addi	t1,t1,0
 5f4:	0905                	addi	s2,s2,1
 5f6:	0014                	0x14
 5f8:	0301                	addi	t1,t1,0
 5fa:	0905                	addi	s2,s2,1
 5fc:	0018                	0x18
 5fe:	0301                	addi	t1,t1,0
 600:	0905                	addi	s2,s2,1
 602:	0018                	0x18
 604:	0301                	addi	t1,t1,0
 606:	0905                	addi	s2,s2,1
 608:	0018                	0x18
 60a:	0301                	addi	t1,t1,0
 60c:	0905                	addi	s2,s2,1
 60e:	0018                	0x18
 610:	0301                	addi	t1,t1,0
 612:	0905                	addi	s2,s2,1
 614:	0014                	0x14
 616:	0301                	addi	t1,t1,0
 618:	0905                	addi	s2,s2,1
 61a:	0018                	0x18
 61c:	0301                	addi	t1,t1,0
 61e:	0905                	addi	s2,s2,1
 620:	0018                	0x18
 622:	0301                	addi	t1,t1,0
 624:	0905                	addi	s2,s2,1
 626:	0014                	0x14
 628:	0301                	addi	t1,t1,0
 62a:	0905                	addi	s2,s2,1
 62c:	0018                	0x18
 62e:	0301                	addi	t1,t1,0
 630:	0905                	addi	s2,s2,1
 632:	0018                	0x18
 634:	0301                	addi	t1,t1,0
 636:	0905                	addi	s2,s2,1
 638:	0018                	0x18
 63a:	0301                	addi	t1,t1,0
 63c:	0905                	addi	s2,s2,1
 63e:	0018                	0x18
 640:	0301                	addi	t1,t1,0
 642:	0905                	addi	s2,s2,1
 644:	0014                	0x14
 646:	0301                	addi	t1,t1,0
 648:	0905                	addi	s2,s2,1
 64a:	0018                	0x18
 64c:	0301                	addi	t1,t1,0
 64e:	0905                	addi	s2,s2,1
 650:	0014                	0x14
 652:	0301                	addi	t1,t1,0
 654:	0905                	addi	s2,s2,1
 656:	0014                	0x14
 658:	0301                	addi	t1,t1,0
 65a:	0905                	addi	s2,s2,1
 65c:	0018                	0x18
 65e:	0301                	addi	t1,t1,0
 660:	0905                	addi	s2,s2,1
 662:	0018                	0x18
 664:	0301                	addi	t1,t1,0
 666:	0905                	addi	s2,s2,1
 668:	0018                	0x18
 66a:	0301                	addi	t1,t1,0
 66c:	0905                	addi	s2,s2,1
 66e:	0018                	0x18
 670:	0301                	addi	t1,t1,0
 672:	0905                	addi	s2,s2,1
 674:	0018                	0x18
 676:	0301                	addi	t1,t1,0
 678:	0905                	addi	s2,s2,1
 67a:	0014                	0x14
 67c:	0301                	addi	t1,t1,0
 67e:	0905                	addi	s2,s2,1
 680:	0018                	0x18
 682:	0301                	addi	t1,t1,0
 684:	0905                	addi	s2,s2,1
 686:	0018                	0x18
 688:	0301                	addi	t1,t1,0
 68a:	0905                	addi	s2,s2,1
 68c:	0018                	0x18
 68e:	0301                	addi	t1,t1,0
 690:	0905                	addi	s2,s2,1
 692:	0018                	0x18
 694:	0301                	addi	t1,t1,0
 696:	0905                	addi	s2,s2,1
 698:	0014                	0x14
 69a:	0301                	addi	t1,t1,0
 69c:	0905                	addi	s2,s2,1
 69e:	0018                	0x18
 6a0:	0301                	addi	t1,t1,0
 6a2:	0905                	addi	s2,s2,1
 6a4:	0018                	0x18
 6a6:	0301                	addi	t1,t1,0
 6a8:	0905                	addi	s2,s2,1
 6aa:	0014                	0x14
 6ac:	0301                	addi	t1,t1,0
 6ae:	0905                	addi	s2,s2,1
 6b0:	0018                	0x18
 6b2:	0301                	addi	t1,t1,0
 6b4:	0905                	addi	s2,s2,1
 6b6:	0018                	0x18
 6b8:	0301                	addi	t1,t1,0
 6ba:	0905                	addi	s2,s2,1
 6bc:	0018                	0x18
 6be:	0301                	addi	t1,t1,0
 6c0:	0905                	addi	s2,s2,1
 6c2:	0018                	0x18
 6c4:	0301                	addi	t1,t1,0
 6c6:	0905                	addi	s2,s2,1
 6c8:	0014                	0x14
 6ca:	0301                	addi	t1,t1,0
 6cc:	0905                	addi	s2,s2,1
 6ce:	0018                	0x18
 6d0:	0301                	addi	t1,t1,0
 6d2:	0905                	addi	s2,s2,1
 6d4:	0014                	0x14
 6d6:	0301                	addi	t1,t1,0
 6d8:	0905                	addi	s2,s2,1
 6da:	0014                	0x14
 6dc:	0301                	addi	t1,t1,0
 6de:	0905                	addi	s2,s2,1
 6e0:	0018                	0x18
 6e2:	0301                	addi	t1,t1,0
 6e4:	0905                	addi	s2,s2,1
 6e6:	0018                	0x18
 6e8:	0301                	addi	t1,t1,0
 6ea:	0905                	addi	s2,s2,1
 6ec:	0018                	0x18
 6ee:	0301                	addi	t1,t1,0
 6f0:	0905                	addi	s2,s2,1
 6f2:	0018                	0x18
 6f4:	0301                	addi	t1,t1,0
 6f6:	0905                	addi	s2,s2,1
 6f8:	0018                	0x18
 6fa:	0301                	addi	t1,t1,0
 6fc:	0905                	addi	s2,s2,1
 6fe:	0014                	0x14
 700:	0301                	addi	t1,t1,0
 702:	0905                	addi	s2,s2,1
 704:	0018                	0x18
 706:	0301                	addi	t1,t1,0
 708:	0905                	addi	s2,s2,1
 70a:	0018                	0x18
 70c:	0301                	addi	t1,t1,0
 70e:	0905                	addi	s2,s2,1
 710:	0018                	0x18
 712:	0301                	addi	t1,t1,0
 714:	0905                	addi	s2,s2,1
 716:	0018                	0x18
 718:	0301                	addi	t1,t1,0
 71a:	0905                	addi	s2,s2,1
 71c:	0010                	0x10
 71e:	0301                	addi	t1,t1,0
 720:	0905                	addi	s2,s2,1
 722:	0014                	0x14
 724:	0301                	addi	t1,t1,0
 726:	0905                	addi	s2,s2,1
 728:	0014                	0x14
 72a:	0301                	addi	t1,t1,0
 72c:	0905                	addi	s2,s2,1
 72e:	0010                	0x10
 730:	0301                	addi	t1,t1,0
 732:	0905                	addi	s2,s2,1
 734:	0014                	0x14
 736:	0301                	addi	t1,t1,0
 738:	0905                	addi	s2,s2,1
 73a:	0014                	0x14
 73c:	0301                	addi	t1,t1,0
 73e:	0905                	addi	s2,s2,1
 740:	0014                	0x14
 742:	0301                	addi	t1,t1,0
 744:	0905                	addi	s2,s2,1
 746:	0014                	0x14
 748:	0301                	addi	t1,t1,0
 74a:	0905                	addi	s2,s2,1
 74c:	0010                	0x10
 74e:	0301                	addi	t1,t1,0
 750:	0905                	addi	s2,s2,1
 752:	0014                	0x14
 754:	0301                	addi	t1,t1,0
 756:	0905                	addi	s2,s2,1
 758:	0010                	0x10
 75a:	0301                	addi	t1,t1,0
 75c:	0905                	addi	s2,s2,1
 75e:	0010                	0x10
 760:	0301                	addi	t1,t1,0
 762:	0905                	addi	s2,s2,1
 764:	0014                	0x14
 766:	0301                	addi	t1,t1,0
 768:	0905                	addi	s2,s2,1
 76a:	0014                	0x14
 76c:	0301                	addi	t1,t1,0
 76e:	0905                	addi	s2,s2,1
 770:	0014                	0x14
 772:	0301                	addi	t1,t1,0
 774:	0905                	addi	s2,s2,1
 776:	0014                	0x14
 778:	0301                	addi	t1,t1,0
 77a:	0905                	addi	s2,s2,1
 77c:	0014                	0x14
 77e:	0301                	addi	t1,t1,0
 780:	0905                	addi	s2,s2,1
 782:	0010                	0x10
 784:	0301                	addi	t1,t1,0
 786:	0905                	addi	s2,s2,1
 788:	0014                	0x14
 78a:	0301                	addi	t1,t1,0
 78c:	0905                	addi	s2,s2,1
 78e:	0014                	0x14
 790:	0301                	addi	t1,t1,0
 792:	0905                	addi	s2,s2,1
 794:	0014                	0x14
 796:	0301                	addi	t1,t1,0
 798:	0905                	addi	s2,s2,1
 79a:	0014                	0x14
 79c:	0301                	addi	t1,t1,0
 79e:	0905                	addi	s2,s2,1
 7a0:	0014                	0x14
 7a2:	0301                	addi	t1,t1,0
 7a4:	0905                	addi	s2,s2,1
 7a6:	0018                	0x18
 7a8:	0301                	addi	t1,t1,0
 7aa:	0905                	addi	s2,s2,1
 7ac:	0014                	0x14
 7ae:	0301                	addi	t1,t1,0
 7b0:	0905                	addi	s2,s2,1
 7b2:	0018                	0x18
 7b4:	0301                	addi	t1,t1,0
 7b6:	0905                	addi	s2,s2,1
 7b8:	0018                	0x18
 7ba:	0301                	addi	t1,t1,0
 7bc:	0905                	addi	s2,s2,1
 7be:	0018                	0x18
 7c0:	0301                	addi	t1,t1,0
 7c2:	0905                	addi	s2,s2,1
 7c4:	0018                	0x18
 7c6:	0301                	addi	t1,t1,0
 7c8:	0905                	addi	s2,s2,1
 7ca:	0014                	0x14
 7cc:	0301                	addi	t1,t1,0
 7ce:	0905                	addi	s2,s2,1
 7d0:	0018                	0x18
 7d2:	0301                	addi	t1,t1,0
 7d4:	0905                	addi	s2,s2,1
 7d6:	0014                	0x14
 7d8:	0301                	addi	t1,t1,0
 7da:	0905                	addi	s2,s2,1
 7dc:	0014                	0x14
 7de:	0301                	addi	t1,t1,0
 7e0:	0905                	addi	s2,s2,1
 7e2:	0018                	0x18
 7e4:	0301                	addi	t1,t1,0
 7e6:	0905                	addi	s2,s2,1
 7e8:	0018                	0x18
 7ea:	0301                	addi	t1,t1,0
 7ec:	0905                	addi	s2,s2,1
 7ee:	0018                	0x18
 7f0:	0301                	addi	t1,t1,0
 7f2:	0905                	addi	s2,s2,1
 7f4:	0018                	0x18
 7f6:	0301                	addi	t1,t1,0
 7f8:	0905                	addi	s2,s2,1
 7fa:	0018                	0x18
 7fc:	0301                	addi	t1,t1,0
 7fe:	0905                	addi	s2,s2,1
 800:	0014                	0x14
 802:	0301                	addi	t1,t1,0
 804:	0905                	addi	s2,s2,1
 806:	0018                	0x18
 808:	0301                	addi	t1,t1,0
 80a:	0905                	addi	s2,s2,1
 80c:	0018                	0x18
 80e:	0301                	addi	t1,t1,0
 810:	0905                	addi	s2,s2,1
 812:	0018                	0x18
 814:	0301                	addi	t1,t1,0
 816:	0905                	addi	s2,s2,1
 818:	0018                	0x18
 81a:	0301                	addi	t1,t1,0
 81c:	0905                	addi	s2,s2,1
 81e:	0010                	0x10
 820:	0301                	addi	t1,t1,0
 822:	0905                	addi	s2,s2,1
 824:	0014                	0x14
 826:	0301                	addi	t1,t1,0
 828:	0905                	addi	s2,s2,1
 82a:	0014                	0x14
 82c:	0301                	addi	t1,t1,0
 82e:	0905                	addi	s2,s2,1
 830:	0010                	0x10
 832:	0301                	addi	t1,t1,0
 834:	0905                	addi	s2,s2,1
 836:	0014                	0x14
 838:	0301                	addi	t1,t1,0
 83a:	0905                	addi	s2,s2,1
 83c:	0014                	0x14
 83e:	0301                	addi	t1,t1,0
 840:	0905                	addi	s2,s2,1
 842:	0014                	0x14
 844:	0301                	addi	t1,t1,0
 846:	0905                	addi	s2,s2,1
 848:	0018                	0x18
 84a:	0301                	addi	t1,t1,0
 84c:	0905                	addi	s2,s2,1
 84e:	0014                	0x14
 850:	0301                	addi	t1,t1,0
 852:	0905                	addi	s2,s2,1
 854:	0018                	0x18
 856:	0301                	addi	t1,t1,0
 858:	0905                	addi	s2,s2,1
 85a:	0018                	0x18
 85c:	0301                	addi	t1,t1,0
 85e:	0905                	addi	s2,s2,1
 860:	0018                	0x18
 862:	0301                	addi	t1,t1,0
 864:	0905                	addi	s2,s2,1
 866:	0018                	0x18
 868:	0301                	addi	t1,t1,0
 86a:	0905                	addi	s2,s2,1
 86c:	0010                	0x10
 86e:	0301                	addi	t1,t1,0
 870:	0905                	addi	s2,s2,1
 872:	0014                	0x14
 874:	0301                	addi	t1,t1,0
 876:	0905                	addi	s2,s2,1
 878:	0014                	0x14
 87a:	0301                	addi	t1,t1,0
 87c:	0905                	addi	s2,s2,1
 87e:	0010                	0x10
 880:	0301                	addi	t1,t1,0
 882:	0905                	addi	s2,s2,1
 884:	0014                	0x14
 886:	0301                	addi	t1,t1,0
 888:	0905                	addi	s2,s2,1
 88a:	0014                	0x14
 88c:	0301                	addi	t1,t1,0
 88e:	0905                	addi	s2,s2,1
 890:	0014                	0x14
 892:	0301                	addi	t1,t1,0
 894:	0905                	addi	s2,s2,1
 896:	0014                	0x14
 898:	0301                	addi	t1,t1,0
 89a:	0905                	addi	s2,s2,1
 89c:	0010                	0x10
 89e:	0301                	addi	t1,t1,0
 8a0:	0905                	addi	s2,s2,1
 8a2:	0014                	0x14
 8a4:	0301                	addi	t1,t1,0
 8a6:	0905                	addi	s2,s2,1
 8a8:	0010                	0x10
 8aa:	0301                	addi	t1,t1,0
 8ac:	0905                	addi	s2,s2,1
 8ae:	0010                	0x10
 8b0:	0301                	addi	t1,t1,0
 8b2:	0905                	addi	s2,s2,1
 8b4:	0014                	0x14
 8b6:	0301                	addi	t1,t1,0
 8b8:	0905                	addi	s2,s2,1
 8ba:	0014                	0x14
 8bc:	0301                	addi	t1,t1,0
 8be:	0905                	addi	s2,s2,1
 8c0:	0014                	0x14
 8c2:	0301                	addi	t1,t1,0
 8c4:	0905                	addi	s2,s2,1
 8c6:	0014                	0x14
 8c8:	0301                	addi	t1,t1,0
 8ca:	0905                	addi	s2,s2,1
 8cc:	0014                	0x14
 8ce:	0301                	addi	t1,t1,0
 8d0:	0905                	addi	s2,s2,1
 8d2:	0010                	0x10
 8d4:	0301                	addi	t1,t1,0
 8d6:	0905                	addi	s2,s2,1
 8d8:	0014                	0x14
 8da:	0301                	addi	t1,t1,0
 8dc:	0905                	addi	s2,s2,1
 8de:	0014                	0x14
 8e0:	0301                	addi	t1,t1,0
 8e2:	0905                	addi	s2,s2,1
 8e4:	0014                	0x14
 8e6:	0301                	addi	t1,t1,0
 8e8:	0905                	addi	s2,s2,1
 8ea:	0014                	0x14
 8ec:	0301                	addi	t1,t1,0
 8ee:	0905                	addi	s2,s2,1
 8f0:	0014                	0x14
 8f2:	0301                	addi	t1,t1,0
 8f4:	0905                	addi	s2,s2,1
 8f6:	0018                	0x18
 8f8:	0301                	addi	t1,t1,0
 8fa:	0905                	addi	s2,s2,1
 8fc:	0018                	0x18
 8fe:	0301                	addi	t1,t1,0
 900:	0905                	addi	s2,s2,1
 902:	0014                	0x14
 904:	0301                	addi	t1,t1,0
 906:	0905                	addi	s2,s2,1
 908:	0018                	0x18
 90a:	0301                	addi	t1,t1,0
 90c:	0905                	addi	s2,s2,1
 90e:	0018                	0x18
 910:	0301                	addi	t1,t1,0
 912:	0905                	addi	s2,s2,1
 914:	0018                	0x18
 916:	0301                	addi	t1,t1,0
 918:	0905                	addi	s2,s2,1
 91a:	0018                	0x18
 91c:	0301                	addi	t1,t1,0
 91e:	0905                	addi	s2,s2,1
 920:	0014                	0x14
 922:	0301                	addi	t1,t1,0
 924:	0905                	addi	s2,s2,1
 926:	0018                	0x18
 928:	0301                	addi	t1,t1,0
 92a:	0905                	addi	s2,s2,1
 92c:	0014                	0x14
 92e:	0301                	addi	t1,t1,0
 930:	0905                	addi	s2,s2,1
 932:	0014                	0x14
 934:	0301                	addi	t1,t1,0
 936:	0905                	addi	s2,s2,1
 938:	0018                	0x18
 93a:	0301                	addi	t1,t1,0
 93c:	0905                	addi	s2,s2,1
 93e:	0018                	0x18
 940:	0301                	addi	t1,t1,0
 942:	0905                	addi	s2,s2,1
 944:	0018                	0x18
 946:	0301                	addi	t1,t1,0
 948:	0905                	addi	s2,s2,1
 94a:	0018                	0x18
 94c:	0301                	addi	t1,t1,0
 94e:	0905                	addi	s2,s2,1
 950:	0018                	0x18
 952:	0301                	addi	t1,t1,0
 954:	0905                	addi	s2,s2,1
 956:	0014                	0x14
 958:	0301                	addi	t1,t1,0
 95a:	0905                	addi	s2,s2,1
 95c:	0018                	0x18
 95e:	0301                	addi	t1,t1,0
 960:	0905                	addi	s2,s2,1
 962:	0018                	0x18
 964:	0301                	addi	t1,t1,0
 966:	0905                	addi	s2,s2,1
 968:	0018                	0x18
 96a:	0301                	addi	t1,t1,0
 96c:	0905                	addi	s2,s2,1
 96e:	0018                	0x18
 970:	0301                	addi	t1,t1,0
 972:	0905                	addi	s2,s2,1
 974:	0014                	0x14
 976:	0301                	addi	t1,t1,0
 978:	0905                	addi	s2,s2,1
 97a:	0018                	0x18
 97c:	0301                	addi	t1,t1,0
 97e:	0905                	addi	s2,s2,1
 980:	0018                	0x18
 982:	0301                	addi	t1,t1,0
 984:	0905                	addi	s2,s2,1
 986:	0014                	0x14
 988:	0301                	addi	t1,t1,0
 98a:	0905                	addi	s2,s2,1
 98c:	0018                	0x18
 98e:	0301                	addi	t1,t1,0
 990:	0905                	addi	s2,s2,1
 992:	0018                	0x18
 994:	0301                	addi	t1,t1,0
 996:	0905                	addi	s2,s2,1
 998:	0018                	0x18
 99a:	0301                	addi	t1,t1,0
 99c:	0905                	addi	s2,s2,1
 99e:	0018                	0x18
 9a0:	0301                	addi	t1,t1,0
 9a2:	0905                	addi	s2,s2,1
 9a4:	0014                	0x14
 9a6:	0301                	addi	t1,t1,0
 9a8:	0905                	addi	s2,s2,1
 9aa:	0018                	0x18
 9ac:	0301                	addi	t1,t1,0
 9ae:	0905                	addi	s2,s2,1
 9b0:	0014                	0x14
 9b2:	0301                	addi	t1,t1,0
 9b4:	0905                	addi	s2,s2,1
 9b6:	0014                	0x14
 9b8:	0301                	addi	t1,t1,0
 9ba:	0905                	addi	s2,s2,1
 9bc:	0018                	0x18
 9be:	0301                	addi	t1,t1,0
 9c0:	0905                	addi	s2,s2,1
 9c2:	0018                	0x18
 9c4:	0301                	addi	t1,t1,0
 9c6:	0905                	addi	s2,s2,1
 9c8:	0018                	0x18
 9ca:	0301                	addi	t1,t1,0
 9cc:	0905                	addi	s2,s2,1
 9ce:	0018                	0x18
 9d0:	0301                	addi	t1,t1,0
 9d2:	0905                	addi	s2,s2,1
 9d4:	0018                	0x18
 9d6:	0301                	addi	t1,t1,0
 9d8:	0905                	addi	s2,s2,1
 9da:	0014                	0x14
 9dc:	0301                	addi	t1,t1,0
 9de:	0905                	addi	s2,s2,1
 9e0:	0018                	0x18
 9e2:	0301                	addi	t1,t1,0
 9e4:	0905                	addi	s2,s2,1
 9e6:	0018                	0x18
 9e8:	0301                	addi	t1,t1,0
 9ea:	0905                	addi	s2,s2,1
 9ec:	0018                	0x18
 9ee:	0301                	addi	t1,t1,0
 9f0:	0905                	addi	s2,s2,1
 9f2:	0018                	0x18
 9f4:	0301                	addi	t1,t1,0
 9f6:	0905                	addi	s2,s2,1
 9f8:	0014                	0x14
 9fa:	0301                	addi	t1,t1,0
 9fc:	0905                	addi	s2,s2,1
 9fe:	0018                	0x18
 a00:	0301                	addi	t1,t1,0
 a02:	0905                	addi	s2,s2,1
 a04:	0018                	0x18
 a06:	0301                	addi	t1,t1,0
 a08:	0905                	addi	s2,s2,1
 a0a:	0014                	0x14
 a0c:	0301                	addi	t1,t1,0
 a0e:	0905                	addi	s2,s2,1
 a10:	0018                	0x18
 a12:	0301                	addi	t1,t1,0
 a14:	0905                	addi	s2,s2,1
 a16:	0018                	0x18
 a18:	0301                	addi	t1,t1,0
 a1a:	0905                	addi	s2,s2,1
 a1c:	0018                	0x18
 a1e:	0301                	addi	t1,t1,0
 a20:	0905                	addi	s2,s2,1
 a22:	0018                	0x18
 a24:	0301                	addi	t1,t1,0
 a26:	0905                	addi	s2,s2,1
 a28:	0014                	0x14
 a2a:	0301                	addi	t1,t1,0
 a2c:	0905                	addi	s2,s2,1
 a2e:	0018                	0x18
 a30:	0301                	addi	t1,t1,0
 a32:	0905                	addi	s2,s2,1
 a34:	0014                	0x14
 a36:	0301                	addi	t1,t1,0
 a38:	0905                	addi	s2,s2,1
 a3a:	0014                	0x14
 a3c:	0301                	addi	t1,t1,0
 a3e:	0905                	addi	s2,s2,1
 a40:	0018                	0x18
 a42:	0301                	addi	t1,t1,0
 a44:	0905                	addi	s2,s2,1
 a46:	0018                	0x18
 a48:	0301                	addi	t1,t1,0
 a4a:	0905                	addi	s2,s2,1
 a4c:	0018                	0x18
 a4e:	0301                	addi	t1,t1,0
 a50:	0905                	addi	s2,s2,1
 a52:	0018                	0x18
 a54:	0301                	addi	t1,t1,0
 a56:	0905                	addi	s2,s2,1
 a58:	0018                	0x18
 a5a:	0301                	addi	t1,t1,0
 a5c:	0905                	addi	s2,s2,1
 a5e:	0014                	0x14
 a60:	0301                	addi	t1,t1,0
 a62:	0905                	addi	s2,s2,1
 a64:	0018                	0x18
 a66:	0301                	addi	t1,t1,0
 a68:	0905                	addi	s2,s2,1
 a6a:	0018                	0x18
 a6c:	0301                	addi	t1,t1,0
 a6e:	0905                	addi	s2,s2,1
 a70:	0018                	0x18
 a72:	0301                	addi	t1,t1,0
 a74:	0905                	addi	s2,s2,1
 a76:	0018                	0x18
 a78:	0301                	addi	t1,t1,0
 a7a:	0905                	addi	s2,s2,1
 a7c:	0014                	0x14
 a7e:	0301                	addi	t1,t1,0
 a80:	0905                	addi	s2,s2,1
 a82:	0018                	0x18
 a84:	0301                	addi	t1,t1,0
 a86:	0905                	addi	s2,s2,1
 a88:	0018                	0x18
 a8a:	0301                	addi	t1,t1,0
 a8c:	0905                	addi	s2,s2,1
 a8e:	0014                	0x14
 a90:	0301                	addi	t1,t1,0
 a92:	0905                	addi	s2,s2,1
 a94:	0018                	0x18
 a96:	0301                	addi	t1,t1,0
 a98:	0905                	addi	s2,s2,1
 a9a:	0018                	0x18
 a9c:	0301                	addi	t1,t1,0
 a9e:	0905                	addi	s2,s2,1
 aa0:	0018                	0x18
 aa2:	0301                	addi	t1,t1,0
 aa4:	0905                	addi	s2,s2,1
 aa6:	0018                	0x18
 aa8:	0301                	addi	t1,t1,0
 aaa:	0905                	addi	s2,s2,1
 aac:	0014                	0x14
 aae:	0301                	addi	t1,t1,0
 ab0:	0905                	addi	s2,s2,1
 ab2:	0018                	0x18
 ab4:	0301                	addi	t1,t1,0
 ab6:	0905                	addi	s2,s2,1
 ab8:	0014                	0x14
 aba:	0301                	addi	t1,t1,0
 abc:	0905                	addi	s2,s2,1
 abe:	0014                	0x14
 ac0:	0301                	addi	t1,t1,0
 ac2:	0905                	addi	s2,s2,1
 ac4:	0018                	0x18
 ac6:	0301                	addi	t1,t1,0
 ac8:	0905                	addi	s2,s2,1
 aca:	0018                	0x18
 acc:	0301                	addi	t1,t1,0
 ace:	0905                	addi	s2,s2,1
 ad0:	0018                	0x18
 ad2:	0301                	addi	t1,t1,0
 ad4:	0905                	addi	s2,s2,1
 ad6:	0018                	0x18
 ad8:	0301                	addi	t1,t1,0
 ada:	0905                	addi	s2,s2,1
 adc:	0018                	0x18
 ade:	0301                	addi	t1,t1,0
 ae0:	0905                	addi	s2,s2,1
 ae2:	0014                	0x14
 ae4:	0301                	addi	t1,t1,0
 ae6:	0905                	addi	s2,s2,1
 ae8:	0018                	0x18
 aea:	0301                	addi	t1,t1,0
 aec:	0905                	addi	s2,s2,1
 aee:	0018                	0x18
 af0:	0301                	addi	t1,t1,0
 af2:	0905                	addi	s2,s2,1
 af4:	0018                	0x18
 af6:	0301                	addi	t1,t1,0
 af8:	0905                	addi	s2,s2,1
 afa:	0018                	0x18
 afc:	0301                	addi	t1,t1,0
 afe:	0905                	addi	s2,s2,1
 b00:	0010                	0x10
 b02:	0301                	addi	t1,t1,0
 b04:	0905                	addi	s2,s2,1
 b06:	0014                	0x14
 b08:	0301                	addi	t1,t1,0
 b0a:	0905                	addi	s2,s2,1
 b0c:	0010                	0x10
 b0e:	0301                	addi	t1,t1,0
 b10:	0905                	addi	s2,s2,1
 b12:	0010                	0x10
 b14:	0301                	addi	t1,t1,0
 b16:	0905                	addi	s2,s2,1
 b18:	0014                	0x14
 b1a:	0301                	addi	t1,t1,0
 b1c:	0905                	addi	s2,s2,1
 b1e:	0014                	0x14
 b20:	0301                	addi	t1,t1,0
 b22:	0905                	addi	s2,s2,1
 b24:	0014                	0x14
 b26:	0301                	addi	t1,t1,0
 b28:	0905                	addi	s2,s2,1
 b2a:	0014                	0x14
 b2c:	0301                	addi	t1,t1,0
 b2e:	0905                	addi	s2,s2,1
 b30:	0014                	0x14
 b32:	0301                	addi	t1,t1,0
 b34:	0905                	addi	s2,s2,1
 b36:	0010                	0x10
 b38:	0301                	addi	t1,t1,0
 b3a:	0905                	addi	s2,s2,1
 b3c:	0014                	0x14
 b3e:	0301                	addi	t1,t1,0
 b40:	0905                	addi	s2,s2,1
 b42:	0014                	0x14
 b44:	0301                	addi	t1,t1,0
 b46:	0905                	addi	s2,s2,1
 b48:	0014                	0x14
 b4a:	0301                	addi	t1,t1,0
 b4c:	0905                	addi	s2,s2,1
 b4e:	0014                	0x14
 b50:	0301                	addi	t1,t1,0
 b52:	0905                	addi	s2,s2,1
 b54:	0010                	0x10
 b56:	0301                	addi	t1,t1,0
 b58:	0905                	addi	s2,s2,1
 b5a:	0014                	0x14
 b5c:	0301                	addi	t1,t1,0
 b5e:	0905                	addi	s2,s2,1
 b60:	0014                	0x14
 b62:	0301                	addi	t1,t1,0
 b64:	0905                	addi	s2,s2,1
 b66:	0010                	0x10
 b68:	0301                	addi	t1,t1,0
 b6a:	0905                	addi	s2,s2,1
 b6c:	0014                	0x14
 b6e:	0301                	addi	t1,t1,0
 b70:	0905                	addi	s2,s2,1
 b72:	0014                	0x14
 b74:	0301                	addi	t1,t1,0
 b76:	0905                	addi	s2,s2,1
 b78:	0014                	0x14
 b7a:	0301                	addi	t1,t1,0
 b7c:	0905                	addi	s2,s2,1
 b7e:	0014                	0x14
 b80:	0301                	addi	t1,t1,0
 b82:	0905                	addi	s2,s2,1
 b84:	0010                	0x10
 b86:	0301                	addi	t1,t1,0
 b88:	0905                	addi	s2,s2,1
 b8a:	0014                	0x14
 b8c:	0301                	addi	t1,t1,0
 b8e:	0905                	addi	s2,s2,1
 b90:	0010                	0x10
 b92:	0301                	addi	t1,t1,0
 b94:	0905                	addi	s2,s2,1
 b96:	0010                	0x10
 b98:	0301                	addi	t1,t1,0
 b9a:	0905                	addi	s2,s2,1
 b9c:	0014                	0x14
 b9e:	0301                	addi	t1,t1,0
 ba0:	0905                	addi	s2,s2,1
 ba2:	0014                	0x14
 ba4:	0301                	addi	t1,t1,0
 ba6:	0905                	addi	s2,s2,1
 ba8:	0014                	0x14
 baa:	0301                	addi	t1,t1,0
 bac:	0905                	addi	s2,s2,1
 bae:	0014                	0x14
 bb0:	0301                	addi	t1,t1,0
 bb2:	0905                	addi	s2,s2,1
 bb4:	0014                	0x14
 bb6:	0301                	addi	t1,t1,0
 bb8:	0905                	addi	s2,s2,1
 bba:	0010                	0x10
 bbc:	0301                	addi	t1,t1,0
 bbe:	0905                	addi	s2,s2,1
 bc0:	0014                	0x14
 bc2:	0301                	addi	t1,t1,0
 bc4:	0905                	addi	s2,s2,1
 bc6:	0014                	0x14
 bc8:	0301                	addi	t1,t1,0
 bca:	0905                	addi	s2,s2,1
 bcc:	0014                	0x14
 bce:	0301                	addi	t1,t1,0
 bd0:	0905                	addi	s2,s2,1
 bd2:	0014                	0x14
 bd4:	0301                	addi	t1,t1,0
 bd6:	0905                	addi	s2,s2,1
 bd8:	0014                	0x14
 bda:	0301                	addi	t1,t1,0
 bdc:	0905                	addi	s2,s2,1
 bde:	0018                	0x18
 be0:	0301                	addi	t1,t1,0
 be2:	0905                	addi	s2,s2,1
 be4:	0018                	0x18
 be6:	0301                	addi	t1,t1,0
 be8:	0905                	addi	s2,s2,1
 bea:	0014                	0x14
 bec:	0301                	addi	t1,t1,0
 bee:	0905                	addi	s2,s2,1
 bf0:	0018                	0x18
 bf2:	0301                	addi	t1,t1,0
 bf4:	0905                	addi	s2,s2,1
 bf6:	0018                	0x18
 bf8:	0301                	addi	t1,t1,0
 bfa:	0905                	addi	s2,s2,1
 bfc:	0018                	0x18
 bfe:	0301                	addi	t1,t1,0
 c00:	0905                	addi	s2,s2,1
 c02:	0018                	0x18
 c04:	0301                	addi	t1,t1,0
 c06:	0905                	addi	s2,s2,1
 c08:	0014                	0x14
 c0a:	0301                	addi	t1,t1,0
 c0c:	0905                	addi	s2,s2,1
 c0e:	0018                	0x18
 c10:	0301                	addi	t1,t1,0
 c12:	0905                	addi	s2,s2,1
 c14:	0014                	0x14
 c16:	0301                	addi	t1,t1,0
 c18:	0905                	addi	s2,s2,1
 c1a:	0014                	0x14
 c1c:	0301                	addi	t1,t1,0
 c1e:	0905                	addi	s2,s2,1
 c20:	0018                	0x18
 c22:	0301                	addi	t1,t1,0
 c24:	0905                	addi	s2,s2,1
 c26:	0018                	0x18
 c28:	0301                	addi	t1,t1,0
 c2a:	0905                	addi	s2,s2,1
 c2c:	0018                	0x18
 c2e:	0301                	addi	t1,t1,0
 c30:	0905                	addi	s2,s2,1
 c32:	0018                	0x18
 c34:	0301                	addi	t1,t1,0
 c36:	0905                	addi	s2,s2,1
 c38:	0018                	0x18
 c3a:	0301                	addi	t1,t1,0
 c3c:	0905                	addi	s2,s2,1
 c3e:	0014                	0x14
 c40:	0301                	addi	t1,t1,0
 c42:	0905                	addi	s2,s2,1
 c44:	0018                	0x18
 c46:	0301                	addi	t1,t1,0
 c48:	0905                	addi	s2,s2,1
 c4a:	0018                	0x18
 c4c:	0301                	addi	t1,t1,0
 c4e:	0905                	addi	s2,s2,1
 c50:	0018                	0x18
 c52:	0301                	addi	t1,t1,0
 c54:	0905                	addi	s2,s2,1
 c56:	0018                	0x18
 c58:	0301                	addi	t1,t1,0
 c5a:	0905                	addi	s2,s2,1
 c5c:	0018                	0x18
 c5e:	0301                	addi	t1,t1,0
 c60:	0905                	addi	s2,s2,1
 c62:	0018                	0x18
 c64:	0301                	addi	t1,t1,0
 c66:	0905                	addi	s2,s2,1
 c68:	0014                	0x14
 c6a:	0301                	addi	t1,t1,0
 c6c:	0905                	addi	s2,s2,1
 c6e:	0018                	0x18
 c70:	0301                	addi	t1,t1,0
 c72:	0905                	addi	s2,s2,1
 c74:	0018                	0x18
 c76:	0301                	addi	t1,t1,0
 c78:	0905                	addi	s2,s2,1
 c7a:	0018                	0x18
 c7c:	0301                	addi	t1,t1,0
 c7e:	0905                	addi	s2,s2,1
 c80:	0018                	0x18
 c82:	0301                	addi	t1,t1,0
 c84:	0905                	addi	s2,s2,1
 c86:	0014                	0x14
 c88:	0301                	addi	t1,t1,0
 c8a:	0905                	addi	s2,s2,1
 c8c:	0018                	0x18
 c8e:	0301                	addi	t1,t1,0
 c90:	0905                	addi	s2,s2,1
 c92:	0014                	0x14
 c94:	0301                	addi	t1,t1,0
 c96:	0905                	addi	s2,s2,1
 c98:	0014                	0x14
 c9a:	0301                	addi	t1,t1,0
 c9c:	0905                	addi	s2,s2,1
 c9e:	0018                	0x18
 ca0:	0301                	addi	t1,t1,0
 ca2:	0905                	addi	s2,s2,1
 ca4:	0018                	0x18
 ca6:	0301                	addi	t1,t1,0
 ca8:	0905                	addi	s2,s2,1
 caa:	0018                	0x18
 cac:	0301                	addi	t1,t1,0
 cae:	0905                	addi	s2,s2,1
 cb0:	0018                	0x18
 cb2:	0301                	addi	t1,t1,0
 cb4:	0905                	addi	s2,s2,1
 cb6:	0018                	0x18
 cb8:	0301                	addi	t1,t1,0
 cba:	0905                	addi	s2,s2,1
 cbc:	0014                	0x14
 cbe:	0301                	addi	t1,t1,0
 cc0:	0905                	addi	s2,s2,1
 cc2:	0018                	0x18
 cc4:	0301                	addi	t1,t1,0
 cc6:	0905                	addi	s2,s2,1
 cc8:	0018                	0x18
 cca:	0301                	addi	t1,t1,0
 ccc:	0905                	addi	s2,s2,1
 cce:	0018                	0x18
 cd0:	0301                	addi	t1,t1,0
 cd2:	0905                	addi	s2,s2,1
 cd4:	0018                	0x18
 cd6:	0301                	addi	t1,t1,0
 cd8:	0905                	addi	s2,s2,1
 cda:	0014                	0x14
 cdc:	0301                	addi	t1,t1,0
 cde:	0905                	addi	s2,s2,1
 ce0:	0018                	0x18
 ce2:	0301                	addi	t1,t1,0
 ce4:	0905                	addi	s2,s2,1
 ce6:	0018                	0x18
 ce8:	0301                	addi	t1,t1,0
 cea:	0905                	addi	s2,s2,1
 cec:	0014                	0x14
 cee:	0301                	addi	t1,t1,0
 cf0:	0901                	addi	s2,s2,0
 cf2:	0018                	0x18
 cf4:	0301                	addi	t1,t1,0
 cf6:	0905                	addi	s2,s2,1
 cf8:	0008                	0x8
 cfa:	0301                	addi	t1,t1,0
 cfc:	0905                	addi	s2,s2,1
 cfe:	0018                	0x18
 d00:	0301                	addi	t1,t1,0
 d02:	0905                	addi	s2,s2,1
 d04:	0018                	0x18
 d06:	0301                	addi	t1,t1,0
 d08:	0905                	addi	s2,s2,1
 d0a:	0018                	0x18
 d0c:	0301                	addi	t1,t1,0
 d0e:	0905                	addi	s2,s2,1
 d10:	0014                	0x14
 d12:	0301                	addi	t1,t1,0
 d14:	0905                	addi	s2,s2,1
 d16:	0018                	0x18
 d18:	0301                	addi	t1,t1,0
 d1a:	0905                	addi	s2,s2,1
 d1c:	0014                	0x14
 d1e:	0301                	addi	t1,t1,0
 d20:	0905                	addi	s2,s2,1
 d22:	0014                	0x14
 d24:	0301                	addi	t1,t1,0
 d26:	0905                	addi	s2,s2,1
 d28:	0018                	0x18
 d2a:	0301                	addi	t1,t1,0
 d2c:	0905                	addi	s2,s2,1
 d2e:	0018                	0x18
 d30:	0301                	addi	t1,t1,0
 d32:	0905                	addi	s2,s2,1
 d34:	0018                	0x18
 d36:	0301                	addi	t1,t1,0
 d38:	0905                	addi	s2,s2,1
 d3a:	0018                	0x18
 d3c:	0301                	addi	t1,t1,0
 d3e:	0905                	addi	s2,s2,1
 d40:	0018                	0x18
 d42:	0301                	addi	t1,t1,0
 d44:	0905                	addi	s2,s2,1
 d46:	0014                	0x14
 d48:	0301                	addi	t1,t1,0
 d4a:	0905                	addi	s2,s2,1
 d4c:	0018                	0x18
 d4e:	0301                	addi	t1,t1,0
 d50:	0905                	addi	s2,s2,1
 d52:	0018                	0x18
 d54:	0301                	addi	t1,t1,0
 d56:	0905                	addi	s2,s2,1
 d58:	0018                	0x18
 d5a:	0301                	addi	t1,t1,0
 d5c:	0905                	addi	s2,s2,1
 d5e:	0018                	0x18
 d60:	0301                	addi	t1,t1,0
 d62:	0905                	addi	s2,s2,1
 d64:	0014                	0x14
 d66:	0301                	addi	t1,t1,0
 d68:	0905                	addi	s2,s2,1
 d6a:	0018                	0x18
 d6c:	0301                	addi	t1,t1,0
 d6e:	0905                	addi	s2,s2,1
 d70:	0018                	0x18
 d72:	0301                	addi	t1,t1,0
 d74:	0905                	addi	s2,s2,1
 d76:	0014                	0x14
 d78:	0301                	addi	t1,t1,0
 d7a:	0905                	addi	s2,s2,1
 d7c:	0018                	0x18
 d7e:	0301                	addi	t1,t1,0
 d80:	0905                	addi	s2,s2,1
 d82:	0018                	0x18
 d84:	0301                	addi	t1,t1,0
 d86:	0905                	addi	s2,s2,1
 d88:	0018                	0x18
 d8a:	0301                	addi	t1,t1,0
 d8c:	0905                	addi	s2,s2,1
 d8e:	0018                	0x18
 d90:	0301                	addi	t1,t1,0
 d92:	0905                	addi	s2,s2,1
 d94:	0014                	0x14
 d96:	0301                	addi	t1,t1,0
 d98:	0905                	addi	s2,s2,1
 d9a:	0018                	0x18
 d9c:	0301                	addi	t1,t1,0
 d9e:	0905                	addi	s2,s2,1
 da0:	0014                	0x14
 da2:	0301                	addi	t1,t1,0
 da4:	0905                	addi	s2,s2,1
 da6:	0014                	0x14
 da8:	0301                	addi	t1,t1,0
 daa:	0905                	addi	s2,s2,1
 dac:	0018                	0x18
 dae:	0301                	addi	t1,t1,0
 db0:	0905                	addi	s2,s2,1
 db2:	0018                	0x18
 db4:	0301                	addi	t1,t1,0
 db6:	0905                	addi	s2,s2,1
 db8:	0018                	0x18
 dba:	0301                	addi	t1,t1,0
 dbc:	0905                	addi	s2,s2,1
 dbe:	0018                	0x18
 dc0:	0301                	addi	t1,t1,0
 dc2:	0905                	addi	s2,s2,1
 dc4:	0018                	0x18
 dc6:	0301                	addi	t1,t1,0
 dc8:	0905                	addi	s2,s2,1
 dca:	0014                	0x14
 dcc:	0301                	addi	t1,t1,0
 dce:	0905                	addi	s2,s2,1
 dd0:	0018                	0x18
 dd2:	0301                	addi	t1,t1,0
 dd4:	0905                	addi	s2,s2,1
 dd6:	0018                	0x18
 dd8:	0301                	addi	t1,t1,0
 dda:	0905                	addi	s2,s2,1
 ddc:	0018                	0x18
 dde:	0301                	addi	t1,t1,0
 de0:	0905                	addi	s2,s2,1
 de2:	0018                	0x18
 de4:	0301                	addi	t1,t1,0
 de6:	0905                	addi	s2,s2,1
 de8:	0014                	0x14
 dea:	0301                	addi	t1,t1,0
 dec:	0905                	addi	s2,s2,1
 dee:	0018                	0x18
 df0:	0301                	addi	t1,t1,0
 df2:	0905                	addi	s2,s2,1
 df4:	0018                	0x18
 df6:	0301                	addi	t1,t1,0
 df8:	0905                	addi	s2,s2,1
 dfa:	0014                	0x14
 dfc:	0301                	addi	t1,t1,0
 dfe:	0905                	addi	s2,s2,1
 e00:	0018                	0x18
 e02:	0301                	addi	t1,t1,0
 e04:	0905                	addi	s2,s2,1
 e06:	0018                	0x18
 e08:	0301                	addi	t1,t1,0
 e0a:	0905                	addi	s2,s2,1
 e0c:	0018                	0x18
 e0e:	0301                	addi	t1,t1,0
 e10:	0905                	addi	s2,s2,1
 e12:	0018                	0x18
 e14:	0301                	addi	t1,t1,0
 e16:	0905                	addi	s2,s2,1
 e18:	0014                	0x14
 e1a:	0301                	addi	t1,t1,0
 e1c:	0905                	addi	s2,s2,1
 e1e:	0018                	0x18
 e20:	0301                	addi	t1,t1,0
 e22:	0905                	addi	s2,s2,1
 e24:	0014                	0x14
 e26:	0301                	addi	t1,t1,0
 e28:	0905                	addi	s2,s2,1
 e2a:	0014                	0x14
 e2c:	0301                	addi	t1,t1,0
 e2e:	0905                	addi	s2,s2,1
 e30:	0018                	0x18
 e32:	0301                	addi	t1,t1,0
 e34:	0905                	addi	s2,s2,1
 e36:	0018                	0x18
 e38:	0301                	addi	t1,t1,0
 e3a:	0905                	addi	s2,s2,1
 e3c:	0018                	0x18
 e3e:	0301                	addi	t1,t1,0
 e40:	0905                	addi	s2,s2,1
 e42:	0018                	0x18
 e44:	0301                	addi	t1,t1,0
 e46:	0905                	addi	s2,s2,1
 e48:	0018                	0x18
 e4a:	0301                	addi	t1,t1,0
 e4c:	0905                	addi	s2,s2,1
 e4e:	0014                	0x14
 e50:	0301                	addi	t1,t1,0
 e52:	0905                	addi	s2,s2,1
 e54:	0014                	0x14
 e56:	0901                	addi	s2,s2,0
 e58:	0014                	0x14
 e5a:	0100                	addi	s0,sp,128
 e5c:	01              	Address 0x0000000000000e5c is out of bounds.


Disassembly of section .debug_info:

00000000 <.debug_info>:
   0:	0022                	c.slli	zero,0x8
   2:	0000                	unimp
   4:	0002                	c.slli64	zero
   6:	0000                	unimp
   8:	0000                	unimp
   a:	0104                	addi	s1,sp,128
   c:	0000                	unimp
   e:	0000                	unimp
  10:	1000                	addi	s0,sp,32
  12:	0000                	unimp
  14:	4224                	lw	s1,64(a2)
  16:	0000                	unimp
  18:	0000                	unimp
  1a:	0000                	unimp
  1c:	004d                	c.nop	19
  1e:	0000                	unimp
  20:	009d                	addi	ra,ra,7
  22:	0000                	unimp
  24:	8001                	c.srli64	s0

Disassembly of section .debug_abbrev:

00000000 <.debug_abbrev>:
   0:	1101                	addi	sp,sp,-32
   2:	1000                	addi	s0,sp,32
   4:	1106                	slli	sp,sp,0x21
   6:	1201                	addi	tp,tp,-32
   8:	0301                	addi	t1,t1,0
   a:	1b0e                	slli	s6,s6,0x23
   c:	250e                	fld	fa0,192(sp)
   e:	130e                	slli	t1,t1,0x23
  10:	0005                	c.nop	1
	...

Disassembly of section .debug_aranges:

00000000 <.debug_aranges>:
   0:	001c                	0x1c
   2:	0000                	unimp
   4:	0002                	c.slli64	zero
   6:	0000                	unimp
   8:	0000                	unimp
   a:	0004                	0x4
   c:	0000                	unimp
   e:	0000                	unimp
  10:	1000                	addi	s0,sp,32
  12:	0000                	unimp
  14:	3224                	fld	fs1,96(a2)
	...

Disassembly of section .debug_str:

00000000 <.debug_str>:
   0:	6d6f682f          	0x6d6f682f
   4:	2f65                	jal	7bc <offset+0x6d4>
   6:	6974                	flw	fa3,84(a0)
   8:	39726567          	0x39726567
   c:	7574                	flw	fa3,108(a0)
   e:	6f6f742f          	0x6f6f742f
  12:	736c                	flw	fa1,100(a4)
  14:	7369722f          	0x7369722f
  18:	612d7663          	bgeu	s10,s2,624 <offset+0x53c>
  1c:	6372                	flw	ft6,28(sp)
  1e:	2d68                	fld	fa0,216(a0)
  20:	6574                	flw	fa3,76(a0)
  22:	722f7473          	csrrci	s0,0x722,30
  26:	7369                	lui	t1,0xffffa
  28:	742d7663          	bgeu	s10,sp,774 <offset+0x68c>
  2c:	7365                	lui	t1,0xffff9
  2e:	2d74                	fld	fa3,216(a0)
  30:	74697573          	csrrci	a0,0x746,18
  34:	2f65                	jal	7ec <offset+0x704>
  36:	7672                	flw	fa2,60(sp)
  38:	5f693233          	0x5f693233
  3c:	2f6d                	jal	7f6 <offset+0x70e>
  3e:	2f49                	jal	7d0 <offset+0x6e8>
  40:	2f637273          	csrrci	tp,0x2f6,6
  44:	6f78                	flw	fa4,92(a4)
  46:	2d72                	fld	fs10,280(sp)
  48:	3130                	fld	fa2,96(a0)
  4a:	532e                	lw	t1,232(sp)
  4c:	2f00                	fld	fs0,24(a4)
  4e:	6f68                	flw	fa0,92(a4)
  50:	656d                	lui	a0,0x1b
  52:	6769742f          	0x6769742f
  56:	7265                	lui	tp,0xffff9
  58:	7439                	lui	s0,0xfffee
  5a:	2f75                	jal	816 <offset+0x72e>
  5c:	7270                	flw	fa2,100(a2)
  5e:	792f6a6f          	jal	s4,f67f0 <_end+0xf07ec>
  62:	7461                	lui	s0,0xffff8
  64:	2f757063          	bgeu	a0,s7,344 <offset+0x25c>
  68:	6972                	flw	fs2,28(sp)
  6a:	666f6373          	csrrsi	t1,0x666,30
  6e:	742d                	lui	s0,0xfffeb
  70:	7261                	lui	tp,0xffff8
  72:	2f746567          	0x2f746567
  76:	6972                	flw	fs2,28(sp)
  78:	666f6373          	csrrsi	t1,0x666,30
  7c:	775f 726f 2f6b      	0x2f6b726f775f
  82:	7672                	flw	fa2,60(sp)
  84:	5f693233          	0x5f693233
  88:	2f6d                	jal	842 <offset+0x75a>
  8a:	2f49                	jal	81c <offset+0x734>
  8c:	2f637273          	csrrci	tp,0x2f6,6
  90:	6f78                	flw	fa4,92(a4)
  92:	2d72                	fld	fs10,280(sp)
  94:	3130                	fld	fa2,96(a0)
  96:	532e                	lw	t1,232(sp)
  98:	7475642f          	0x7475642f
  9c:	4700                	lw	s0,8(a4)
  9e:	554e                	lw	a0,240(sp)
  a0:	4120                	lw	s0,64(a0)
  a2:	2e322053          	0x2e322053
  a6:	          	snez	s0,zero
